
vecadd.riscv:	file format elf32-littleriscv

Disassembly of section .text:

80000000 <_start>:
80000000: 97 91 01 00  	auipc	gp, 25
80000004: 93 81 01 a4  	addi	gp, gp, -1472
80000008: 93 0e 00 02  	li	t4, 32
8000000c: d7 fe 0e 0d  	vsetvli	t4, t4, e32, m1, ta, ma
80000010: b7 2e 00 00  	lui	t4, 2
80000014: f3 ae 0e 30  	csrrs	t4, mstatus, t4
80000018: 93 0e 00 00  	li	t4, 0
8000001c: 73 21 60 80  	csrr	sp, 2054
80000020: 13 02 00 00  	li	tp, 0

80000024 <.Lpcrel_hi1>:
80000024: 17 85 01 00  	auipc	a0, 24
80000028: 13 05 85 23  	addi	a0, a0, 568

8000002c <.Lpcrel_hi2>:
8000002c: 17 86 01 00  	auipc	a2, 24
80000030: 13 06 86 25  	addi	a2, a2, 600
80000034: 63 08 c5 00  	beq	a0, a2, 0x80000044 <.Ltmp0>

80000038 <.Ltmp1>:
80000038: 23 20 05 00  	sw	zero, 0(a0)
8000003c: 13 05 45 00  	addi	a0, a0, 4
80000040: e3 6c c5 fe  	bltu	a0, a2, 0x80000038 <.Ltmp1>

80000044 <.Ltmp0>:
80000044: f3 22 30 80  	csrr	t0, 2051
80000048: 03 a3 02 00  	lw	t1, 0(t0)
8000004c: 03 a5 42 00  	lw	a0, 4(t0)
80000050: 83 a3 02 03  	lw	t2, 48(t0)
80000054: 03 ae 42 03  	lw	t3, 52(t0)

80000058 <.Lpcrel_hi3>:
80000058: 97 2e 01 00  	auipc	t4, 18
8000005c: 93 8e 8e fa  	addi	t4, t4, -88

80000060 <.Lpcrel_hi4>:
80000060: 17 2f 01 00  	auipc	t5, 18
80000064: 13 0f 4f fa  	addi	t5, t5, -92
80000068: 23 a0 7e 00  	sw	t2, 0(t4)
8000006c: 23 20 cf 01  	sw	t3, 0(t5)

80000070 <.Lpcrel_hi5>:
80000070: 97 0f 00 00  	auipc	t6, 0
80000074: 93 8f 8f 01  	addi	t6, t6, 24
80000078: 73 90 5f 30  	csrw	mtvec, t6
8000007c: e7 00 03 00  	jalr	t1
80000080: 0b 40 00 00  	endprg	x0, x0, x0
80000084: 6f 00 40 00  	j	0x80000088 <spike_end>

80000088 <spike_end>:
80000088: 13 03 10 00  	li	t1, 1

8000008c <.Lpcrel_hi6>:
8000008c: 97 e2 00 00  	auipc	t0, 14
80000090: 93 82 42 f7  	addi	t0, t0, -140
80000094: 23 a0 62 00  	sw	t1, 0(t0)

80000098 <vectorAdd>:
80000098: 13 01 c1 00  	addi	sp, sp, 12
8000009c: 23 2a 11 fe  	sw	ra, -12(sp)
800000a0: 83 22 05 00  	lw	t0, 0(a0)
800000a4: 23 2c 51 fe  	sw	t0, -8(sp)
800000a8: 83 22 45 00  	lw	t0, 4(a0)
800000ac: 23 2e 51 fe  	sw	t0, -4(sp)
800000b0: 57 60 00 42  	vmv.v.x	v0, zero
800000b4: ef 20 10 3d  	jal	0x80002c84 <_Z13get_global_idj>
800000b8: 57 30 01 96  	vsll.vi	v0, v0, 2
800000bc: 03 23 c1 ff  	lw	t1, -4(sp)
800000c0: d7 40 03 02  	vadd.vx	v1, v0, t1
800000c4: fb a0 00 00  	vlw12.v	v1, 0(v1)
800000c8: 83 22 81 ff  	lw	t0, -8(sp)
800000cc: 57 c0 02 02  	vadd.vx	v0, v0, t0
800000d0: 7b 21 00 00  	vlw12.v	v2, 0(v0)
800000d4: d7 10 11 02  	vfadd.vv	v1, v1, v2
800000d8: 7b 60 10 00  	vsw12.v	v1, 0(v0)
800000dc: b7 f2 00 80  	lui	t0, 524303
800000e0: 93 82 f2 02  	addi	t0, t0, 47
800000e4: 13 03 20 00  	li	t1, 2
800000e8: 57 e0 02 42  	vmv.v.x	v0, t0
800000ec: d7 60 03 42  	vmv.v.x	v1, t1
800000f0: ef 50 c0 05  	jal	0x8000514c <printf>
800000f4: 83 20 41 ff  	lw	ra, -12(sp)
800000f8: 13 01 41 ff  	addi	sp, sp, -12
800000fc: 67 80 00 00  	ret

80000100 <__muldf3>:
80000100: 13 01 41 00  	addi	sp, sp, 4
80000104: 23 2e 11 fe  	sw	ra, -4(sp)
80000108: d7 44 00 5e  	<unknown>
8000010c: 93 03 f0 ff  	li	t2, -1
80000110: b7 04 00 80  	lui	s1, 524288
80000114: 93 84 f4 ff  	addi	s1, s1, -1
80000118: b7 02 10 00  	lui	t0, 256
8000011c: 93 82 f2 ff  	addi	t0, t0, -1
80000120: 57 32 1a a2  	vsrl.vi	v4, v1, 20
80000124: 13 03 f0 7f  	li	t1, 2047
80000128: d7 42 43 26  	vand.vx	v5, v4, t1
8000012c: 57 42 03 5e  	<unknown>
80000130: 57 33 3a a2  	vsrl.vi	v6, v3, 20
80000134: 57 03 62 26  	vand.vv	v6, v6, v4
80000138: 57 82 30 2e  	vxor.vv	v4, v3, v1
8000013c: 13 03 10 00  	li	t1, 1
80000140: 33 03 93 00  	add	t1, t1, s1
80000144: 57 42 43 26  	vand.vx	v4, v4, t1
80000148: 57 c4 02 5e  	<unknown>
8000014c: 13 03 10 80  	li	t1, -2047
80000150: d7 43 53 02  	vadd.vx	v7, v5, t1
80000154: 57 45 03 5e  	<unknown>
80000158: 13 03 20 80  	li	t1, -2046
8000015c: d7 45 73 6a  	vmsltu.vx	v11, v7, t1
80000160: d7 43 03 5e  	<unknown>
80000164: 57 05 65 02  	vadd.vv	v10, v6, v10
80000168: 57 85 a3 6a  	vmsltu.vv	v10, v10, v7
8000016c: d7 c3 12 26  	vand.vx	v7, v1, t0
80000170: 57 05 b5 2a  	vor.vv	v10, v11, v10
80000174: 57 04 34 26  	vand.vv	v8, v3, v8

80000178 <.Lpcrel_hi0>:
80000178: 17 03 00 00  	auipc	t1, 0
8000017c: 5b 30 03 45  	setrpc	zero, t1, 1104
80000180: 5b 8c a4 0a  	vbeq	v10, v9, 0x80000238 <.LBB0_8>
80000184: 57 c5 03 26  	vand.vx	v10, v0, t2
80000188: d7 c5 14 26  	vand.vx	v11, v1, s1
8000018c: 37 03 f0 7f  	lui	t1, 524032
80000190: 57 46 03 5e  	<unknown>
80000194: d7 34 ba a2  	vsrl.vi	v9, v11, 20

80000198 <.Lpcrel_hi1>:
80000198: 17 03 00 00  	auipc	t1, 0
8000019c: 5b 30 83 14  	setrpc	zero, t1, 328
800001a0: 5b 00 b6 0a  	vbeq	v11, v12, 0x80000240 <.LBB0_9>
800001a4: 13 03 f0 7f  	li	t1, 2047
800001a8: 57 46 93 6a  	vmsltu.vx	v12, v9, t1
800001ac: d7 46 00 5e  	<unknown>

800001b0 <.Lpcrel_hi2>:
800001b0: 17 03 00 00  	auipc	t1, 0
800001b4: 5b 30 03 13  	setrpc	zero, t1, 304
800001b8: 5b 8e c6 08  	vbeq	v12, v13, 0x80000254 <.LBB0_10>

800001bc <.LBB0_3>:
800001bc: d7 c0 03 5e  	<unknown>
800001c0: d7 c6 04 5e  	<unknown>
800001c4: 57 86 20 26  	vand.vv	v12, v2, v1
800001c8: d7 86 36 26  	vand.vv	v13, v3, v13
800001cc: 37 03 f0 7f  	lui	t1, 524032
800001d0: 57 47 03 5e  	<unknown>
800001d4: d7 30 da a2  	vsrl.vi	v1, v13, 20

800001d8 <.Lpcrel_hi3>:
800001d8: 17 03 00 00  	auipc	t1, 0
800001dc: 5b 30 83 10  	setrpc	zero, t1, 264
800001e0: 5b 06 d7 08  	vbeq	v13, v14, 0x8000026c <.LBB0_11>
800001e4: 13 03 f0 7f  	li	t1, 2047
800001e8: 57 47 13 6a  	vmsltu.vx	v14, v1, t1
800001ec: d7 47 00 5e  	<unknown>

800001f0 <.Lpcrel_hi4>:
800001f0: 17 03 00 00  	auipc	t1, 0
800001f4: 5b 30 03 0f  	setrpc	zero, t1, 240
800001f8: 5b 84 e7 08  	vbeq	v14, v15, 0x80000280 <.LBB0_12>

800001fc <.LBB0_5>:
800001fc: d7 41 00 5e  	<unknown>
80000200: 37 03 f0 7f  	lui	t1, 524032
80000204: 57 47 b3 2e  	vxor.vx	v14, v11, t1
80000208: 57 07 a7 2a  	vor.vv	v14, v10, v14

8000020c <.Lpcrel_hi5>:
8000020c: 17 03 00 00  	auipc	t1, 0
80000210: 5b 30 43 0d  	setrpc	zero, t1, 212
80000214: 5b 92 e1 08  	vbne	v14, v3, 0x80000298 <.LBB0_13>
80000218: d7 40 00 5e  	<unknown>
8000021c: d7 81 c6 2a  	vor.vv	v3, v12, v13

80000220 <.Lpcrel_hi6>:
80000220: 17 03 00 00  	auipc	t1, 0
80000224: 5b 30 03 0b  	setrpc	zero, t1, 176
80000228: 5b 90 30 0a  	vbne	v3, v1, 0x800002c8 <.LBB0_15>

8000022c <.LBB0_7>:
8000022c: 37 03 f8 7f  	lui	t1, 524160
80000230: d7 40 03 5e  	<unknown>
80000234: 6f 00 c0 09  	j	0x800002d0 <.LBB0_16>

80000238 <.LBB0_8>:
80000238: d7 44 00 5e  	<unknown>
8000023c: 6f 00 80 0b  	j	0x800002f4 <.LBB0_18>

80000240 <.LBB0_9>:
80000240: 57 36 a0 62  	vmseq.vi	v12, v10, 0
80000244: d7 46 00 5e  	<unknown>

80000248 <.Lpcrel_hi7>:
80000248: 17 03 00 00  	auipc	t1, 0
8000024c: 5b 30 83 09  	setrpc	zero, t1, 152
80000250: db 96 c6 f6  	vbne	v12, v13, 0x800001bc <.LBB0_3>

80000254 <.LBB0_10>:
80000254: d7 44 00 5e  	<unknown>
80000258: 57 45 00 5e  	<unknown>
8000025c: 37 03 08 00  	lui	t1, 128
80000260: d7 40 13 2a  	vor.vx	v1, v1, t1
80000264: d7 41 00 02  	vadd.vx	v3, v0, zero
80000268: 6f 00 80 07  	j	0x800002e0 <.LBB0_17>

8000026c <.LBB0_11>:
8000026c: 57 37 c0 62  	vmseq.vi	v14, v12, 0
80000270: d7 47 00 5e  	<unknown>

80000274 <.Lpcrel_hi8>:
80000274: 17 03 00 00  	auipc	t1, 0
80000278: 5b 30 c3 06  	setrpc	zero, t1, 108
8000027c: db 90 e7 f8  	vbne	v14, v15, 0x800001fc <.LBB0_5>

80000280 <.LBB0_12>:
80000280: d7 44 00 5e  	<unknown>
80000284: 57 45 00 5e  	<unknown>
80000288: 37 03 08 00  	lui	t1, 128
8000028c: d7 40 33 2a  	vor.vx	v1, v3, t1
80000290: d7 41 20 02  	vadd.vx	v3, v2, zero
80000294: 6f 00 c0 04  	j	0x800002e0 <.LBB0_17>

80000298 <.LBB0_13>:
80000298: d7 41 00 5e  	<unknown>
8000029c: 37 03 f0 7f  	lui	t1, 524032
800002a0: 57 47 d3 2e  	vxor.vx	v14, v13, t1
800002a4: 57 07 c7 2a  	vor.vv	v14, v12, v14

800002a8 <.Lpcrel_hi9>:
800002a8: 17 03 00 00  	auipc	t1, 0
800002ac: 5b 30 83 03  	setrpc	zero, t1, 56
800002b0: 5b 98 e1 32  	vbne	v14, v3, 0x800005e0 <.LBB0_46>
800002b4: d7 40 00 5e  	<unknown>
800002b8: d7 81 a5 2a  	vor.vv	v3, v10, v11

800002bc <.Lpcrel_hi10>:
800002bc: 17 03 00 00  	auipc	t1, 0
800002c0: 5b 30 43 01  	setrpc	zero, t1, 20
800002c4: db 84 30 f6  	vbeq	v3, v1, 0x8000022c <.LBB0_7>

800002c8 <.LBB0_15>:
800002c8: 37 03 f0 7f  	lui	t1, 524032
800002cc: d7 40 43 2a  	vor.vx	v1, v4, t1

800002d0 <.LBB0_16>:
800002d0: 5b 20 00 00  	join	zero, zero, 0
800002d4: d7 41 00 5e  	<unknown>
800002d8: d7 44 00 5e  	<unknown>
800002dc: 57 45 00 5e  	<unknown>

800002e0 <.LBB0_17>:
800002e0: 5b 20 00 00  	join	zero, zero, 0
800002e4: d7 45 00 5e  	<unknown>

800002e8 <.Lpcrel_hi11>:
800002e8: 17 03 00 00  	auipc	t1, 0
800002ec: 5b 30 03 2e  	setrpc	zero, t1, 736
800002f0: 5b 8c a5 2c  	vbeq	v10, v11, 0x800005c8 <.LBB0_45>

800002f4 <.LBB0_18>:
800002f4: 57 45 00 5e  	<unknown>
800002f8: d7 b5 2a a2  	vsrl.vi	v11, v2, 21
800002fc: 57 b4 85 96  	vsll.vi	v8, v8, 11
80000300: d7 85 85 2a  	vor.vv	v11, v8, v11
80000304: 57 b6 25 96  	vsll.vi	v12, v2, 11
80000308: 57 24 c0 96  	vmul.vv	v8, v12, v0
8000030c: d7 26 c0 92  	vmulhu.vv	v13, v12, v0
80000310: 37 03 00 80  	lui	t1, 524288
80000314: 57 41 b3 2a  	vor.vx	v2, v11, t1
80000318: d7 25 20 92  	vmulhu.vv	v11, v2, v0
8000031c: 37 03 10 00  	lui	t1, 256
80000320: d7 43 73 2a  	vor.vx	v7, v7, t1
80000324: 57 a7 c3 92  	vmulhu.vv	v14, v12, v7
80000328: d7 a7 c3 96  	vmul.vv	v15, v12, v7
8000032c: 57 a6 d3 a6  	vmadd.vv	v12, v7, v13
80000330: d7 a6 23 92  	vmulhu.vv	v13, v2, v7
80000334: d7 87 c7 6a  	vmsltu.vv	v15, v12, v15
80000338: d7 23 e1 a6  	vmadd.vv	v7, v2, v14
8000033c: 57 21 c0 a6  	vmadd.vv	v2, v0, v12
80000340: 57 00 26 6a  	vmsltu.vv	v0, v2, v12
80000344: 57 00 f0 02  	vadd.vv	v0, v15, v0
80000348: 57 06 77 6a  	vmsltu.vv	v12, v7, v14
8000034c: 57 06 d6 02  	vadd.vv	v12, v13, v12
80000350: d7 85 75 02  	vadd.vv	v11, v7, v11
80000354: d7 83 b3 6a  	vmsltu.vv	v7, v11, v7
80000358: d7 83 c3 02  	vadd.vv	v7, v12, v7
8000035c: 57 00 b0 02  	vadd.vv	v0, v11, v0
80000360: d7 85 05 6a  	vmsltu.vv	v11, v0, v11
80000364: d7 83 75 02  	vadd.vv	v7, v7, v11
80000368: d7 02 53 02  	vadd.vv	v5, v5, v6
8000036c: d7 82 54 02  	vadd.vv	v5, v5, v9
80000370: 13 03 10 c0  	li	t1, -1023
80000374: 57 43 53 02  	vadd.vx	v6, v5, t1
80000378: 13 83 13 00  	addi	t1, t2, 1
8000037c: b3 34 73 00  	sltu	s1, t1, t2
80000380: b3 84 92 00  	add	s1, t0, s1
80000384: d7 c2 74 26  	vand.vx	v5, v7, s1
80000388: d7 44 03 26  	vand.vx	v9, v0, t1
8000038c: d7 82 92 2a  	vor.vv	v5, v9, v5

80000390 <.Lpcrel_hi12>:
80000390: 17 03 00 00  	auipc	t1, 0
80000394: 5b 30 c3 03  	setrpc	zero, t1, 60
80000398: 5b 06 55 00  	vbeq	v5, v10, 0x800003a4 <.LBB0_20>
8000039c: 57 b3 60 02  	vadd.vi	v6, v6, 1
800003a0: 6f 00 c0 02  	j	0x800003cc <.LBB0_21>

800003a4 <.LBB0_20>:
800003a4: d7 b2 0f a2  	vsrl.vi	v5, v0, 31
800003a8: d7 b3 70 96  	vsll.vi	v7, v7, 1
800003ac: d7 83 72 2a  	vor.vv	v7, v7, v5
800003b0: 57 b0 00 96  	vsll.vi	v0, v0, 1
800003b4: d7 b2 2f a2  	vsrl.vi	v5, v2, 31
800003b8: 57 80 02 2a  	vor.vv	v0, v0, v5
800003bc: d7 b2 8f a2  	vsrl.vi	v5, v8, 31
800003c0: 57 b1 20 96  	vsll.vi	v2, v2, 1
800003c4: 57 81 22 2a  	vor.vv	v2, v2, v5
800003c8: 57 b4 80 96  	vsll.vi	v8, v8, 1

800003cc <.LBB0_21>:
800003cc: 5b 20 00 00  	join	zero, zero, 0
800003d0: 13 03 f0 7f  	li	t1, 2047
800003d4: d7 42 03 5e  	<unknown>

800003d8 <.Lpcrel_hi13>:
800003d8: 17 03 00 00  	auipc	t1, 0
800003dc: 5b 30 03 1f  	setrpc	zero, t1, 496
800003e0: 5b ca 62 00  	vblt	v6, v5, 0x800003f4 <.LBB0_23>
800003e4: d7 41 00 5e  	<unknown>
800003e8: b7 02 f0 7f  	lui	t0, 524032
800003ec: d7 c0 42 2a  	vor.vx	v1, v4, t0
800003f0: 6f 00 80 1d  	j	0x800005c8 <.LBB0_45>

800003f4 <.LBB0_23>:
800003f4: d7 42 00 5e  	<unknown>

800003f8 <.Lpcrel_hi14>:
800003f8: 17 03 00 00  	auipc	t1, 0
800003fc: 5b 30 03 1d  	setrpc	zero, t1, 464
80000400: 5b 5c 53 00  	vbge	v5, v6, 0x80000418 <.LBB0_25>
80000404: 57 c0 03 26  	vand.vx	v0, v0, t2
80000408: d7 c0 72 26  	vand.vx	v1, v7, t0
8000040c: d7 31 6a 96  	vsll.vi	v3, v6, 20
80000410: d7 83 30 2a  	vor.vv	v7, v3, v1
80000414: 6f 00 80 15  	j	0x8000056c <.LBB0_41>

80000418 <.LBB0_25>:
80000418: d7 b2 60 0e  	vrsub.vi	v5, v6, 1
8000041c: 93 02 00 04  	li	t0, 64
80000420: d7 c4 02 5e  	<unknown>

80000424 <.Lpcrel_hi15>:
80000424: 17 03 00 00  	auipc	t1, 0
80000428: 5b 30 03 13  	setrpc	zero, t1, 304
8000042c: 5b e8 54 00  	vbltu	v5, v9, 0x8000043c <.LBB0_27>
80000430: d7 41 00 5e  	<unknown>
80000434: d7 40 40 02  	vadd.vx	v1, v4, zero
80000438: 6f 00 c0 11  	j	0x80000554 <.LBB0_40>

8000043c <.LBB0_27>:
8000043c: d7 44 00 5e  	<unknown>
80000440: 57 b3 6f 02  	vadd.vi	v6, v6, -1
80000444: 93 02 f0 03  	li	t0, 63
80000448: 57 c3 62 26  	vand.vx	v6, v6, t0
8000044c: 93 02 f0 01  	li	t0, 31
80000450: 57 c5 62 2e  	vxor.vx	v10, v6, t0
80000454: 93 03 00 fe  	li	t2, -32
80000458: d7 c5 63 02  	vadd.vx	v11, v6, t2

8000045c <.Lpcrel_hi16>:
8000045c: 17 03 00 00  	auipc	t1, 0
80000460: 5b 30 43 02  	setrpc	zero, t1, 36
80000464: 5b c6 b4 00  	vblt	v11, v9, 0x80000470 <.LBB0_29>
80000468: d7 84 85 96  	vsll.vv	v9, v8, v11
8000046c: 6f 00 40 01  	j	0x80000480 <.LBB0_30>

80000470 <.LBB0_29>:
80000470: d7 04 23 96  	vsll.vv	v9, v2, v6
80000474: 57 b6 80 a2  	vsrl.vi	v12, v8, 1
80000478: 57 06 c5 a2  	vsrl.vv	v12, v12, v10
8000047c: d7 04 96 2a  	vor.vv	v9, v9, v12

80000480 <.LBB0_30>:
80000480: 5b 20 00 00  	join	zero, zero, 0
80000484: d7 47 00 5e  	<unknown>
80000488: 57 06 83 96  	vsll.vv	v12, v8, v6
8000048c: d7 b6 bf 76  	vmsle.vi	v13, v11, -1
80000490: d7 36 d0 0e  	vrsub.vi	v13, v13, 0
80000494: 57 06 d6 26  	vand.vv	v12, v13, v12
80000498: 57 07 03 96  	vsll.vv	v14, v0, v6

8000049c <.Lpcrel_hi17>:
8000049c: 17 03 00 00  	auipc	t1, 0
800004a0: 5b 30 43 02  	setrpc	zero, t1, 36
800004a4: 5b c6 b7 00  	vblt	v11, v15, 0x800004b0 <.LBB0_32>
800004a8: 57 83 05 96  	vsll.vv	v6, v0, v11
800004ac: 6f 00 40 01  	j	0x800004c0 <.LBB0_33>

800004b0 <.LBB0_32>:
800004b0: 57 03 73 96  	vsll.vv	v6, v7, v6
800004b4: d7 b5 00 a2  	vsrl.vi	v11, v0, 1
800004b8: 57 05 b5 a2  	vsrl.vv	v10, v11, v10
800004bc: 57 03 65 2a  	vor.vv	v6, v6, v10

800004c0 <.LBB0_33>:
800004c0: 5b 20 00 00  	join	zero, zero, 0
800004c4: d7 47 00 5e  	<unknown>
800004c8: 57 86 c4 2a  	vor.vv	v12, v12, v9
800004cc: d7 05 d7 26  	vand.vv	v11, v13, v14
800004d0: d7 c4 52 2e  	vxor.vx	v9, v5, t0
800004d4: 57 c5 53 02  	vadd.vx	v10, v5, t2

800004d8 <.Lpcrel_hi18>:
800004d8: 17 03 00 00  	auipc	t1, 0
800004dc: 5b 30 43 02  	setrpc	zero, t1, 36
800004e0: 5b c6 a7 00  	vblt	v10, v15, 0x800004ec <.LBB0_35>
800004e4: 57 04 25 a2  	vsrl.vv	v8, v2, v10
800004e8: 6f 00 40 01  	j	0x800004fc <.LBB0_36>

800004ec <.LBB0_35>:
800004ec: 57 84 82 a2  	vsrl.vv	v8, v8, v5
800004f0: d7 b6 20 96  	vsll.vi	v13, v2, 1
800004f4: d7 86 d4 96  	vsll.vv	v13, v13, v9
800004f8: 57 84 86 2a  	vor.vv	v8, v8, v13

800004fc <.LBB0_36>:
800004fc: 5b 20 00 00  	join	zero, zero, 0
80000500: 57 47 00 5e  	<unknown>
80000504: d7 36 c0 66  	vmsne.vi	v13, v12, 0
80000508: 57 81 22 a2  	vsrl.vv	v2, v2, v5
8000050c: 57 b6 af 76  	vmsle.vi	v12, v10, -1
80000510: 57 36 c0 0e  	vrsub.vi	v12, v12, 0
80000514: 57 01 c1 26  	vand.vv	v2, v12, v2
80000518: 57 04 b4 2a  	vor.vv	v8, v11, v8

8000051c <.Lpcrel_hi19>:
8000051c: 17 03 00 00  	auipc	t1, 0
80000520: 5b 30 43 02  	setrpc	zero, t1, 36
80000524: 5b 46 a7 00  	vblt	v10, v14, 0x80000530 <.LBB0_38>
80000528: 57 00 75 a2  	vsrl.vv	v0, v7, v10
8000052c: 6f 00 40 01  	j	0x80000540 <.LBB0_39>

80000530 <.LBB0_38>:
80000530: 57 80 02 a2  	vsrl.vv	v0, v0, v5
80000534: 57 b5 70 96  	vsll.vi	v10, v7, 1
80000538: d7 84 a4 96  	vsll.vv	v9, v10, v9
8000053c: 57 80 04 2a  	vor.vv	v0, v0, v9

80000540 <.LBB0_39>:
80000540: 5b 20 00 00  	join	zero, zero, 0
80000544: 57 01 61 2a  	vor.vv	v2, v6, v2
80000548: 57 84 86 2a  	vor.vv	v8, v8, v13
8000054c: 57 83 72 a2  	vsrl.vv	v6, v7, v5
80000550: d7 03 c3 26  	vand.vv	v7, v12, v6

80000554 <.LBB0_40>:
80000554: 5b 20 00 00  	join	zero, zero, 0
80000558: 93 02 f0 03  	li	t0, 63
8000055c: 57 c3 02 5e  	<unknown>

80000560 <.Lpcrel_hi20>:
80000560: 17 03 00 00  	auipc	t1, 0
80000564: 5b 30 83 06  	setrpc	zero, t1, 104
80000568: 5b e0 62 06  	vbltu	v6, v5, 0x800005c8 <.LBB0_45>

8000056c <.LBB0_41>:
8000056c: b7 02 00 80  	lui	t0, 524288
80000570: d7 c1 02 5e  	<unknown>
80000574: d7 00 72 2a  	vor.vv	v1, v7, v4

80000578 <.Lpcrel_hi21>:
80000578: 17 03 00 00  	auipc	t1, 0
8000057c: 5b 30 c3 01  	setrpc	zero, t1, 28
80000580: 5b 88 21 00  	vbeq	v2, v3, 0x80000590 <.LBB0_43>
80000584: d7 c1 02 5e  	<unknown>
80000588: d7 01 31 6a  	vmsltu.vv	v3, v3, v2
8000058c: 6f 00 80 00  	j	0x80000594 <.LBB0_44>

80000590 <.LBB0_43>:
80000590: d7 31 80 66  	vmsne.vi	v3, v8, 0

80000594 <.LBB0_44>:
80000594: 5b 20 00 00  	join	zero, zero, 0
80000598: d7 81 01 02  	vadd.vv	v3, v0, v3
8000059c: 57 00 30 6a  	vmsltu.vv	v0, v3, v0
800005a0: 57 00 10 02  	vadd.vv	v0, v1, v0
800005a4: d7 c0 22 2e  	vxor.vx	v1, v2, t0
800005a8: d7 80 80 2a  	vor.vv	v1, v8, v1
800005ac: d7 30 10 66  	vmsne.vi	v1, v1, 0
800005b0: d7 b0 1f 02  	vadd.vi	v1, v1, -1
800005b4: d7 80 30 26  	vand.vv	v1, v3, v1
800005b8: d7 b0 10 26  	vand.vi	v1, v1, 1
800005bc: d7 81 11 02  	vadd.vv	v3, v1, v3
800005c0: d7 80 30 6a  	vmsltu.vv	v1, v3, v1
800005c4: d7 80 00 02  	vadd.vv	v1, v0, v1

800005c8 <.LBB0_45>:
800005c8: 5b 20 00 00  	join	zero, zero, 0
800005cc: 57 40 30 02  	vadd.vx	v0, v3, zero
800005d0: 83 20 c1 ff  	lw	ra, -4(sp)
800005d4: 0b c0 00 04  	barrier	x0, x0, 1
800005d8: 13 01 c1 ff  	addi	sp, sp, -4
800005dc: 67 80 00 00  	ret

800005e0 <.LBB0_46>:
800005e0: d7 41 00 5e  	<unknown>
800005e4: 57 85 a5 2a  	vor.vv	v10, v10, v11

800005e8 <.Lpcrel_hi22>:
800005e8: 17 03 00 00  	auipc	t1, 0
800005ec: 5b 30 83 cf  	setrpc	zero, t1, -776
800005f0: 5b 80 a1 0c  	vbeq	v10, v3, 0x800006b0 <.LBB0_51>
800005f4: d7 41 00 5e  	<unknown>
800005f8: 57 85 c6 2a  	vor.vv	v10, v12, v13

800005fc <.Lpcrel_hi23>:
800005fc: 17 03 00 00  	auipc	t1, 0
80000600: 5b 30 43 ce  	setrpc	zero, t1, -796
80000604: 5b 86 a1 0a  	vbeq	v10, v3, 0x800006b0 <.LBB0_51>
80000608: d7 41 00 5e  	<unknown>

8000060c <.Lpcrel_hi24>:
8000060c: 17 03 00 00  	auipc	t1, 0
80000610: 5b 30 43 18  	setrpc	zero, t1, 388
80000614: 5b 9c 91 0a  	vbne	v9, v3, 0x800006cc <.LBB0_52>
80000618: d7 44 00 5e  	<unknown>
8000061c: d7 b1 00 a2  	vsrl.vi	v3, v0, 1
80000620: 37 53 55 55  	lui	t1, 349525
80000624: 13 06 53 55  	addi	a2, t1, 1365
80000628: 37 33 33 33  	lui	t1, 209715
8000062c: 93 05 33 33  	addi	a1, t1, 819
80000630: 37 13 0f 0f  	lui	t1, 61681
80000634: 13 05 f3 f0  	addi	a0, t1, -241
80000638: 37 03 01 01  	lui	t1, 4112
8000063c: 93 04 13 10  	addi	s1, t1, 257

80000640 <.Lpcrel_hi25>:
80000640: 17 03 00 00  	auipc	t1, 0
80000644: 5b 30 43 0f  	setrpc	zero, t1, 244
80000648: 5b 96 74 08  	vbne	v7, v9, 0x800006d4 <.LBB0_53>
8000064c: d7 84 01 2a  	vor.vv	v9, v0, v3
80000650: 57 35 91 a2  	vsrl.vi	v10, v9, 2
80000654: d7 04 95 2a  	vor.vv	v9, v9, v10
80000658: 57 35 92 a2  	vsrl.vi	v10, v9, 4
8000065c: d7 04 95 2a  	vor.vv	v9, v9, v10
80000660: 57 35 94 a2  	vsrl.vi	v10, v9, 8
80000664: d7 04 95 2a  	vor.vv	v9, v9, v10
80000668: 57 35 98 a2  	vsrl.vi	v10, v9, 16
8000066c: d7 04 95 2a  	vor.vv	v9, v9, v10
80000670: d7 b4 9f 2e  	vnot.v	v9, v9
80000674: 57 b5 90 a2  	vsrl.vi	v10, v9, 1
80000678: 57 45 a6 26  	vand.vx	v10, v10, a2
8000067c: d7 04 95 0a  	vsub.vv	v9, v9, v10
80000680: 57 c5 05 5e  	<unknown>
80000684: d7 c5 95 26  	vand.vx	v11, v9, a1
80000688: d7 34 91 a2  	vsrl.vi	v9, v9, 2
8000068c: d7 04 95 26  	vand.vv	v9, v9, v10
80000690: d7 84 b4 02  	vadd.vv	v9, v11, v9
80000694: 57 35 92 a2  	vsrl.vi	v10, v9, 4
80000698: d7 04 95 02  	vadd.vv	v9, v9, v10
8000069c: d7 44 95 26  	vand.vx	v9, v9, a0
800006a0: d7 e4 94 96  	vmul.vx	v9, v9, s1
800006a4: d7 34 9c a2  	vsrl.vi	v9, v9, 24
800006a8: 8b 84 04 02  	vadd12.vi	v9, v9, 32
800006ac: 6f 00 80 08  	j	0x80000734 <.LBB0_54>

800006b0 <.LBB0_51>:
800006b0: d7 41 00 5e  	<unknown>
800006b4: 13 03 00 00  	li	t1, 0
800006b8: 93 04 00 00  	li	s1, 0
800006bc: d7 44 00 5e  	<unknown>
800006c0: 57 45 00 5e  	<unknown>
800006c4: d7 40 40 02  	vadd.vx	v1, v4, zero
800006c8: 6f f0 9f c1  	j	0x800002e0 <.LBB0_17>

800006cc <.LBB0_52>:
800006cc: d7 44 00 5e  	<unknown>
800006d0: 6f 00 00 0c  	j	0x80000790 <.LBB0_58>

800006d4 <.LBB0_53>:
800006d4: d7 b4 70 a2  	vsrl.vi	v9, v7, 1
800006d8: d7 84 74 2a  	vor.vv	v9, v7, v9
800006dc: 57 35 91 a2  	vsrl.vi	v10, v9, 2
800006e0: d7 04 95 2a  	vor.vv	v9, v9, v10
800006e4: 57 35 92 a2  	vsrl.vi	v10, v9, 4
800006e8: d7 04 95 2a  	vor.vv	v9, v9, v10
800006ec: 57 35 94 a2  	vsrl.vi	v10, v9, 8
800006f0: d7 04 95 2a  	vor.vv	v9, v9, v10
800006f4: 57 35 98 a2  	vsrl.vi	v10, v9, 16
800006f8: d7 04 95 2a  	vor.vv	v9, v9, v10
800006fc: d7 b4 9f 2e  	vnot.v	v9, v9
80000700: 57 b5 90 a2  	vsrl.vi	v10, v9, 1
80000704: 57 45 a6 26  	vand.vx	v10, v10, a2
80000708: d7 04 95 0a  	vsub.vv	v9, v9, v10
8000070c: 57 c5 05 5e  	<unknown>
80000710: d7 c5 95 26  	vand.vx	v11, v9, a1
80000714: d7 34 91 a2  	vsrl.vi	v9, v9, 2
80000718: d7 04 95 26  	vand.vv	v9, v9, v10
8000071c: d7 84 b4 02  	vadd.vv	v9, v11, v9
80000720: 57 35 92 a2  	vsrl.vi	v10, v9, 4
80000724: d7 04 95 02  	vadd.vv	v9, v9, v10
80000728: d7 44 95 26  	vand.vx	v9, v9, a0
8000072c: d7 e4 94 96  	vmul.vx	v9, v9, s1
80000730: d7 34 9c a2  	vsrl.vi	v9, v9, 24

80000734 <.LBB0_54>:
80000734: 5b 20 00 00  	join	zero, zero, 0
80000738: 57 46 00 5e  	<unknown>
8000073c: 0b 85 54 03  	vadd12.vi	v10, v9, 53
80000740: 13 03 f0 03  	li	t1, 63
80000744: 57 45 a3 26  	vand.vx	v10, v10, t1
80000748: 13 03 00 fe  	li	t1, -32
8000074c: d7 45 a3 02  	vadd.vx	v11, v10, t1

80000750 <.Lpcrel_hi26>:
80000750: 17 03 00 00  	auipc	t1, 0
80000754: 5b 30 83 02  	setrpc	zero, t1, 40
80000758: 5b 46 b6 00  	vblt	v11, v12, 0x80000764 <.LBB0_56>
8000075c: d7 83 05 96  	vsll.vv	v7, v0, v11
80000760: 6f 00 80 01  	j	0x80000778 <.LBB0_57>

80000764 <.LBB0_56>:
80000764: d7 03 75 96  	vsll.vv	v7, v7, v10
80000768: 13 03 f0 01  	li	t1, 31
8000076c: 57 46 a3 2e  	vxor.vx	v12, v10, t1
80000770: d7 01 36 a2  	vsrl.vv	v3, v3, v12
80000774: d7 83 71 2a  	vor.vv	v7, v7, v3

80000778 <.LBB0_57>:
80000778: 5b 20 00 00  	join	zero, zero, 0
8000077c: 57 00 05 96  	vsll.vv	v0, v0, v10
80000780: d7 b1 bf 76  	vmsle.vi	v3, v11, -1
80000784: d7 31 30 0e  	vrsub.vi	v3, v3, 0
80000788: 57 00 30 26  	vand.vv	v0, v3, v0
8000078c: d7 34 96 0e  	vrsub.vi	v9, v9, 12

80000790 <.LBB0_58>:
80000790: 5b 20 00 00  	join	zero, zero, 0
80000794: d7 41 00 5e  	<unknown>
80000798: 93 04 10 00  	li	s1, 1

8000079c <.Lpcrel_hi27>:
8000079c: 17 03 00 00  	auipc	t1, 0
800007a0: 5b 30 43 16  	setrpc	zero, t1, 356
800007a4: 5b 9e 11 14  	vbne	v1, v3, 0x80000900 <.LBB0_66>
800007a8: d7 41 00 5e  	<unknown>
800007ac: d7 b0 20 a2  	vsrl.vi	v1, v2, 1
800007b0: 37 53 55 55  	lui	t1, 349525
800007b4: 93 06 53 55  	addi	a3, t1, 1365
800007b8: 37 33 33 33  	lui	t1, 209715
800007bc: 13 06 33 33  	addi	a2, t1, 819
800007c0: 37 13 0f 0f  	lui	t1, 61681
800007c4: 93 05 f3 f0  	addi	a1, t1, -241
800007c8: 37 03 01 01  	lui	t1, 4112
800007cc: 13 05 13 10  	addi	a0, t1, 257

800007d0 <.Lpcrel_hi28>:
800007d0: 17 03 00 00  	auipc	t1, 0
800007d4: 5b 30 03 0d  	setrpc	zero, t1, 208
800007d8: 5b 94 81 06  	vbne	v8, v3, 0x80000840 <.LBB0_61>
800007dc: d7 81 20 2a  	vor.vv	v3, v2, v1
800007e0: 57 35 31 a2  	vsrl.vi	v10, v3, 2
800007e4: d7 01 35 2a  	vor.vv	v3, v3, v10
800007e8: 57 35 32 a2  	vsrl.vi	v10, v3, 4
800007ec: d7 01 35 2a  	vor.vv	v3, v3, v10
800007f0: 57 35 34 a2  	vsrl.vi	v10, v3, 8
800007f4: d7 01 35 2a  	vor.vv	v3, v3, v10
800007f8: 57 35 38 a2  	vsrl.vi	v10, v3, 16
800007fc: d7 01 35 2a  	vor.vv	v3, v3, v10
80000800: d7 b1 3f 2e  	vnot.v	v3, v3
80000804: 57 b5 30 a2  	vsrl.vi	v10, v3, 1
80000808: 57 c5 a6 26  	vand.vx	v10, v10, a3
8000080c: d7 01 35 0a  	vsub.vv	v3, v3, v10
80000810: 57 45 06 5e  	<unknown>
80000814: d7 45 36 26  	vand.vx	v11, v3, a2
80000818: d7 31 31 a2  	vsrl.vi	v3, v3, 2
8000081c: d7 01 35 26  	vand.vv	v3, v3, v10
80000820: d7 81 b1 02  	vadd.vv	v3, v11, v3
80000824: 57 35 32 a2  	vsrl.vi	v10, v3, 4
80000828: d7 01 35 02  	vadd.vv	v3, v3, v10
8000082c: d7 c1 35 26  	vand.vx	v3, v3, a1
80000830: d7 61 35 96  	vmul.vx	v3, v3, a0
80000834: d7 31 3c a2  	vsrl.vi	v3, v3, 24
80000838: 8b 81 01 02  	vadd12.vi	v3, v3, 32
8000083c: 6f 00 40 06  	j	0x800008a0 <.LBB0_62>

80000840 <.LBB0_61>:
80000840: d7 b1 80 a2  	vsrl.vi	v3, v8, 1
80000844: d7 81 81 2a  	vor.vv	v3, v8, v3
80000848: 57 35 31 a2  	vsrl.vi	v10, v3, 2
8000084c: d7 01 35 2a  	vor.vv	v3, v3, v10
80000850: 57 35 32 a2  	vsrl.vi	v10, v3, 4
80000854: d7 01 35 2a  	vor.vv	v3, v3, v10
80000858: 57 35 34 a2  	vsrl.vi	v10, v3, 8
8000085c: d7 01 35 2a  	vor.vv	v3, v3, v10
80000860: 57 35 38 a2  	vsrl.vi	v10, v3, 16
80000864: d7 01 35 2a  	vor.vv	v3, v3, v10
80000868: d7 b1 3f 2e  	vnot.v	v3, v3
8000086c: 57 b5 30 a2  	vsrl.vi	v10, v3, 1
80000870: 57 c5 a6 26  	vand.vx	v10, v10, a3
80000874: d7 01 35 0a  	vsub.vv	v3, v3, v10
80000878: 57 45 06 5e  	<unknown>
8000087c: d7 45 36 26  	vand.vx	v11, v3, a2
80000880: d7 31 31 a2  	vsrl.vi	v3, v3, 2
80000884: d7 01 35 26  	vand.vv	v3, v3, v10
80000888: d7 81 b1 02  	vadd.vv	v3, v11, v3
8000088c: 57 35 32 a2  	vsrl.vi	v10, v3, 4
80000890: d7 01 35 02  	vadd.vv	v3, v3, v10
80000894: d7 c1 35 26  	vand.vx	v3, v3, a1
80000898: d7 61 35 96  	vmul.vx	v3, v3, a0
8000089c: d7 31 3c a2  	vsrl.vi	v3, v3, 24

800008a0 <.LBB0_62>:
800008a0: 5b 20 00 00  	join	zero, zero, 0
800008a4: 57 46 00 5e  	<unknown>
800008a8: 0b 85 51 03  	vadd12.vi	v10, v3, 53
800008ac: 13 03 f0 03  	li	t1, 63
800008b0: 57 45 a3 26  	vand.vx	v10, v10, t1
800008b4: 13 03 00 fe  	li	t1, -32
800008b8: d7 45 a3 02  	vadd.vx	v11, v10, t1

800008bc <.Lpcrel_hi29>:
800008bc: 17 03 00 00  	auipc	t1, 0
800008c0: 5b 30 83 02  	setrpc	zero, t1, 40
800008c4: 5b 46 b6 00  	vblt	v11, v12, 0x800008d0 <.LBB0_64>
800008c8: 57 84 25 96  	vsll.vv	v8, v2, v11
800008cc: 6f 00 80 01  	j	0x800008e4 <.LBB0_65>

800008d0 <.LBB0_64>:
800008d0: 57 04 85 96  	vsll.vv	v8, v8, v10
800008d4: 13 03 f0 01  	li	t1, 31
800008d8: 57 46 a3 2e  	vxor.vx	v12, v10, t1
800008dc: d7 00 16 a2  	vsrl.vv	v1, v1, v12
800008e0: 57 84 80 2a  	vor.vv	v8, v8, v1

800008e4 <.LBB0_65>:
800008e4: 5b 20 00 00  	join	zero, zero, 0
800008e8: d7 00 25 96  	vsll.vv	v1, v2, v10
800008ec: 57 b1 bf 76  	vmsle.vi	v2, v11, -1
800008f0: 57 31 20 0e  	vrsub.vi	v2, v2, 0
800008f4: 57 81 20 26  	vand.vv	v2, v2, v1
800008f8: d7 80 91 0a  	vsub.vv	v1, v9, v3
800008fc: d7 34 16 02  	vadd.vi	v9, v1, 12

80000900 <.LBB0_66>:
80000900: 5b 20 00 00  	join	zero, zero, 0
80000904: 57 c5 04 5e  	<unknown>
80000908: 6f f0 9f 9d  	j	0x800002e0 <.LBB0_17>

8000090c <__extendsfdf2>:
8000090c: 13 01 41 00  	addi	sp, sp, 4
80000910: 23 2e 11 fe  	sw	ra, -4(sp)
80000914: b7 02 00 80  	lui	t0, 524288
80000918: 93 82 f2 ff  	addi	t0, t0, -1
8000091c: d7 c0 02 26  	vand.vx	v1, v0, t0
80000920: b7 02 80 ff  	lui	t0, 1046528
80000924: 57 c1 12 02  	vadd.vx	v2, v1, t0
80000928: 57 31 2c a2  	vsrl.vi	v2, v2, 24
8000092c: 13 03 e0 07  	li	t1, 126
80000930: d7 41 03 5e  	<unknown>

80000934 <.Lpcrel_hi0>:
80000934: 17 03 00 00  	auipc	t1, 0
80000938: 5b 30 43 14  	setrpc	zero, t1, 324
8000093c: 5b 6c 31 00  	vbltu	v3, v2, 0x80000954 <.LBB0_2>
80000940: 57 b1 1e 96  	vsll.vi	v2, v1, 29
80000944: d7 b0 11 a2  	vsrl.vi	v1, v1, 3
80000948: b7 02 00 38  	lui	t0, 229376
8000094c: d7 c0 12 02  	vadd.vx	v1, v1, t0
80000950: 6f 00 80 12  	j	0x80000a78 <.LBB0_10>

80000954 <.LBB0_2>:
80000954: 57 b1 1b a2  	vsrl.vi	v2, v1, 23
80000958: 93 02 f0 0f  	li	t0, 255
8000095c: d7 c1 02 5e  	<unknown>

80000960 <.Lpcrel_hi1>:
80000960: 17 03 00 00  	auipc	t1, 0
80000964: 5b 30 83 11  	setrpc	zero, t1, 280
80000968: 5b ec 21 00  	vbltu	v2, v3, 0x80000980 <.LBB0_4>
8000096c: 57 b1 0e 96  	vsll.vi	v2, v0, 29
80000970: d7 b0 01 a2  	vsrl.vi	v1, v0, 3
80000974: b7 02 f0 7f  	lui	t0, 524032
80000978: d7 c0 12 2a  	vor.vx	v1, v1, t0
8000097c: 6f 00 c0 0f  	j	0x80000a78 <.LBB0_10>

80000980 <.LBB0_4>:
80000980: 57 41 00 5e  	<unknown>

80000984 <.Lpcrel_hi2>:
80000984: 17 03 00 00  	auipc	t1, 0
80000988: 5b 30 43 0f  	setrpc	zero, t1, 244
8000098c: 5b 02 11 0a  	vbeq	v1, v2, 0x80000a30 <.LBB0_7>
80000990: 57 43 00 5e  	<unknown>
80000994: 57 b1 10 a2  	vsrl.vi	v2, v1, 1
80000998: d7 01 11 2a  	vor.vv	v3, v1, v2
8000099c: 57 32 31 a2  	vsrl.vi	v4, v3, 2
800009a0: d7 01 32 2a  	vor.vv	v3, v3, v4
800009a4: 57 32 32 a2  	vsrl.vi	v4, v3, 4
800009a8: d7 01 32 2a  	vor.vv	v3, v3, v4
800009ac: 57 32 34 a2  	vsrl.vi	v4, v3, 8
800009b0: d7 01 32 2a  	vor.vv	v3, v3, v4
800009b4: 57 32 38 a2  	vsrl.vi	v4, v3, 16
800009b8: d7 01 32 2a  	vor.vv	v3, v3, v4
800009bc: d7 b1 3f 2e  	vnot.v	v3, v3
800009c0: 57 b2 30 a2  	vsrl.vi	v4, v3, 1
800009c4: b7 52 55 55  	lui	t0, 349525
800009c8: 93 82 52 55  	addi	t0, t0, 1365
800009cc: 57 c2 42 26  	vand.vx	v4, v4, t0
800009d0: d7 01 32 0a  	vsub.vv	v3, v3, v4
800009d4: b7 32 33 33  	lui	t0, 209715
800009d8: 93 82 32 33  	addi	t0, t0, 819
800009dc: 57 c2 32 26  	vand.vx	v4, v3, t0
800009e0: d7 c2 02 5e  	<unknown>
800009e4: d7 31 31 a2  	vsrl.vi	v3, v3, 2
800009e8: d7 81 32 26  	vand.vv	v3, v3, v5
800009ec: d7 81 41 02  	vadd.vv	v3, v4, v3
800009f0: 57 32 32 a2  	vsrl.vi	v4, v3, 4
800009f4: d7 01 32 02  	vadd.vv	v3, v3, v4
800009f8: b7 12 0f 0f  	lui	t0, 61681
800009fc: 93 82 f2 f0  	addi	t0, t0, -241
80000a00: d7 c1 32 26  	vand.vx	v3, v3, t0
80000a04: b7 02 01 01  	lui	t0, 4112
80000a08: 93 82 12 10  	addi	t0, t0, 257
80000a0c: d7 e1 32 96  	vmul.vx	v3, v3, t0
80000a10: d7 31 3c a2  	vsrl.vi	v3, v3, 24
80000a14: 57 b2 3a 02  	vadd.vi	v4, v3, -11
80000a18: 8b 82 51 01  	vadd12.vi	v5, v3, 21

80000a1c <.Lpcrel_hi3>:
80000a1c: 17 03 00 00  	auipc	t1, 0
80000a20: 5b 30 c3 02  	setrpc	zero, t1, 44
80000a24: 5b 4c 43 00  	vblt	v4, v6, 0x80000a3c <.LBB0_8>
80000a28: 57 03 12 96  	vsll.vv	v6, v1, v4
80000a2c: 6f 00 c0 01  	j	0x80000a48 <.LBB0_9>

80000a30 <.LBB0_7>:
80000a30: 57 41 00 5e  	<unknown>
80000a34: d7 40 00 5e  	<unknown>
80000a38: 6f 00 00 04  	j	0x80000a78 <.LBB0_10>

80000a3c <.LBB0_8>:
80000a3c: 93 02 f0 01  	li	t0, 31
80000a40: 57 c3 52 2e  	vxor.vx	v6, v5, t0
80000a44: 57 03 23 a2  	vsrl.vv	v6, v2, v6

80000a48 <.LBB0_9>:
80000a48: 5b 20 00 00  	join	zero, zero, 0
80000a4c: d7 80 12 96  	vsll.vv	v1, v1, v5
80000a50: 57 b1 4f 76  	vmsle.vi	v2, v4, -1
80000a54: 57 31 20 0e  	vrsub.vi	v2, v2, 0
80000a58: 57 81 20 26  	vand.vv	v2, v2, v1
80000a5c: b7 02 10 00  	lui	t0, 256
80000a60: d7 c0 62 2e  	vxor.vx	v1, v6, t0
80000a64: 93 02 90 38  	li	t0, 905
80000a68: 57 c2 02 5e  	<unknown>
80000a6c: d7 81 41 0a  	vsub.vv	v3, v4, v3
80000a70: d7 31 3a 96  	vsll.vi	v3, v3, 20
80000a74: d7 80 11 2a  	vor.vv	v1, v1, v3

80000a78 <.LBB0_10>:
80000a78: 5b 20 00 00  	join	zero, zero, 0
80000a7c: b7 02 00 80  	lui	t0, 524288
80000a80: 57 c0 02 26  	vand.vx	v0, v0, t0
80000a84: d7 00 10 2a  	vor.vv	v1, v1, v0
80000a88: 57 40 20 02  	vadd.vx	v0, v2, zero
80000a8c: 83 20 c1 ff  	lw	ra, -4(sp)
80000a90: 0b c0 00 04  	barrier	x0, x0, 1
80000a94: 13 01 c1 ff  	addi	sp, sp, -4
80000a98: 67 80 00 00  	ret

80000a9c <__divdf3>:
80000a9c: 13 01 41 00  	addi	sp, sp, 4
80000aa0: 23 2e 11 fe  	sw	ra, -4(sp)
80000aa4: d7 44 00 5e  	<unknown>
80000aa8: 93 02 f0 ff  	li	t0, -1
80000aac: b7 04 00 80  	lui	s1, 524288
80000ab0: 93 84 f4 ff  	addi	s1, s1, -1
80000ab4: b7 03 10 00  	lui	t2, 256
80000ab8: 93 83 f3 ff  	addi	t2, t2, -1
80000abc: 57 32 1a a2  	vsrl.vi	v4, v1, 20
80000ac0: 13 03 f0 7f  	li	t1, 2047
80000ac4: d7 42 43 26  	vand.vx	v5, v4, t1
80000ac8: 57 42 03 5e  	<unknown>
80000acc: 57 33 3a a2  	vsrl.vi	v6, v3, 20
80000ad0: 57 03 62 26  	vand.vv	v6, v6, v4
80000ad4: 57 82 30 2e  	vxor.vv	v4, v3, v1
80000ad8: 13 03 10 00  	li	t1, 1
80000adc: 33 03 93 00  	add	t1, t1, s1
80000ae0: 57 42 43 26  	vand.vx	v4, v4, t1
80000ae4: d7 c3 03 5e  	<unknown>
80000ae8: 13 03 10 80  	li	t1, -2047
80000aec: 57 44 53 02  	vadd.vx	v8, v5, t1
80000af0: 57 45 03 5e  	<unknown>
80000af4: 13 03 20 80  	li	t1, -2046
80000af8: d7 45 83 6a  	vmsltu.vx	v11, v8, t1
80000afc: 57 44 03 5e  	<unknown>
80000b00: 57 05 65 02  	vadd.vv	v10, v6, v10
80000b04: 57 05 a4 6a  	vmsltu.vv	v10, v10, v8
80000b08: 57 c4 13 26  	vand.vx	v8, v1, t2
80000b0c: 57 05 b5 2a  	vor.vv	v10, v11, v10
80000b10: d7 83 33 26  	vand.vv	v7, v3, v7

80000b14 <.Lpcrel_hi0>:
80000b14: 17 03 00 00  	auipc	t1, 0
80000b18: 5b 30 03 53  	setrpc	zero, t1, 1328
80000b1c: 5b 80 a4 0c  	vbeq	v10, v9, 0x80000bdc <.LBB0_8>
80000b20: 57 c5 02 26  	vand.vx	v10, v0, t0
80000b24: 57 c6 14 26  	vand.vx	v12, v1, s1
80000b28: 37 03 f0 7f  	lui	t1, 524032
80000b2c: d7 45 03 5e  	<unknown>
80000b30: d7 34 ca a2  	vsrl.vi	v9, v12, 20

80000b34 <.Lpcrel_hi1>:
80000b34: 17 03 00 00  	auipc	t1, 0
80000b38: 5b 30 43 15  	setrpc	zero, t1, 340
80000b3c: 5b 84 c5 0a  	vbeq	v12, v11, 0x80000be4 <.LBB0_9>
80000b40: 13 03 f0 7f  	li	t1, 2047
80000b44: d7 45 93 6a  	vmsltu.vx	v11, v9, t1
80000b48: d7 46 00 5e  	<unknown>

80000b4c <.Lpcrel_hi2>:
80000b4c: 17 03 00 00  	auipc	t1, 0
80000b50: 5b 30 c3 13  	setrpc	zero, t1, 316
80000b54: 5b 82 b6 0a  	vbeq	v11, v13, 0x80000bf8 <.LBB0_10>

80000b58 <.LBB0_3>:
80000b58: d7 c0 02 5e  	<unknown>
80000b5c: d7 c6 04 5e  	<unknown>
80000b60: d7 85 20 26  	vand.vv	v11, v2, v1
80000b64: d7 86 36 26  	vand.vv	v13, v3, v13
80000b68: 37 03 f0 7f  	lui	t1, 524032
80000b6c: 57 47 03 5e  	<unknown>
80000b70: d7 30 da a2  	vsrl.vi	v1, v13, 20

80000b74 <.Lpcrel_hi3>:
80000b74: 17 03 00 00  	auipc	t1, 0
80000b78: 5b 30 43 11  	setrpc	zero, t1, 276
80000b7c: 5b 0a d7 08  	vbeq	v13, v14, 0x80000c10 <.LBB0_11>
80000b80: 13 03 f0 7f  	li	t1, 2047
80000b84: 57 47 13 6a  	vmsltu.vx	v14, v1, t1
80000b88: d7 47 00 5e  	<unknown>

80000b8c <.Lpcrel_hi4>:
80000b8c: 17 03 00 00  	auipc	t1, 0
80000b90: 5b 30 c3 0f  	setrpc	zero, t1, 252
80000b94: 5b 88 e7 08  	vbeq	v14, v15, 0x80000c24 <.LBB0_12>

80000b98 <.LBB0_5>:
80000b98: d7 41 00 5e  	<unknown>
80000b9c: 37 03 f0 7f  	lui	t1, 524032
80000ba0: 57 47 c3 2e  	vxor.vx	v14, v12, t1
80000ba4: 57 07 a7 2a  	vor.vv	v14, v10, v14

80000ba8 <.Lpcrel_hi5>:
80000ba8: 17 03 00 00  	auipc	t1, 0
80000bac: 5b 30 03 0e  	setrpc	zero, t1, 224
80000bb0: 5b 96 e1 08  	vbne	v14, v3, 0x80000c3c <.LBB0_13>
80000bb4: d7 40 00 5e  	<unknown>
80000bb8: b7 04 f0 7f  	lui	s1, 524032
80000bbc: d7 c1 d4 2e  	vxor.vx	v3, v13, s1
80000bc0: d7 81 b1 2a  	vor.vv	v3, v11, v3

80000bc4 <.Lpcrel_hi6>:
80000bc4: 17 03 00 00  	auipc	t1, 0
80000bc8: 5b 30 43 0b  	setrpc	zero, t1, 180
80000bcc: 5b 94 30 0a  	vbne	v3, v1, 0x80000c74 <.LBB0_15>

80000bd0 <.LBB0_7>:
80000bd0: 37 03 f8 7f  	lui	t1, 524160
80000bd4: d7 40 03 5e  	<unknown>
80000bd8: 6f 00 00 0a  	j	0x80000c78 <.LBB0_16>

80000bdc <.LBB0_8>:
80000bdc: d7 44 00 5e  	<unknown>
80000be0: 6f 00 c0 0b  	j	0x80000c9c <.LBB0_18>

80000be4 <.LBB0_9>:
80000be4: d7 35 a0 62  	vmseq.vi	v11, v10, 0
80000be8: d7 46 00 5e  	<unknown>

80000bec <.Lpcrel_hi7>:
80000bec: 17 03 00 00  	auipc	t1, 0
80000bf0: 5b 30 c3 09  	setrpc	zero, t1, 156
80000bf4: db 92 b6 f6  	vbne	v11, v13, 0x80000b58 <.LBB0_3>

80000bf8 <.LBB0_10>:
80000bf8: 57 45 00 5e  	<unknown>
80000bfc: d7 44 00 5e  	<unknown>
80000c00: 37 03 08 00  	lui	t1, 128
80000c04: d7 40 13 2a  	vor.vx	v1, v1, t1
80000c08: d7 41 00 02  	vadd.vx	v3, v0, zero
80000c0c: 6f 00 c0 07  	j	0x80000c88 <.LBB0_17>

80000c10 <.LBB0_11>:
80000c10: 57 37 b0 62  	vmseq.vi	v14, v11, 0
80000c14: d7 47 00 5e  	<unknown>

80000c18 <.Lpcrel_hi8>:
80000c18: 17 03 00 00  	auipc	t1, 0
80000c1c: 5b 30 03 07  	setrpc	zero, t1, 112
80000c20: db 9c e7 f6  	vbne	v14, v15, 0x80000b98 <.LBB0_5>

80000c24 <.LBB0_12>:
80000c24: 57 45 00 5e  	<unknown>
80000c28: d7 44 00 5e  	<unknown>
80000c2c: 37 03 08 00  	lui	t1, 128
80000c30: d7 40 33 2a  	vor.vx	v1, v3, t1
80000c34: d7 41 20 02  	vadd.vx	v3, v2, zero
80000c38: 6f 00 00 05  	j	0x80000c88 <.LBB0_17>

80000c3c <.LBB0_13>:
80000c3c: d7 41 00 5e  	<unknown>
80000c40: 37 03 f0 7f  	lui	t1, 524032
80000c44: 57 47 d3 2e  	vxor.vx	v14, v13, t1
80000c48: 57 07 b7 2a  	vor.vv	v14, v11, v14

80000c4c <.Lpcrel_hi9>:
80000c4c: 17 03 00 00  	auipc	t1, 0
80000c50: 5b 30 c3 03  	setrpc	zero, t1, 60
80000c54: 5b 94 e1 40  	vbne	v14, v3, 0x8000105c <.LBB0_39>
80000c58: d7 41 00 5e  	<unknown>
80000c5c: 13 03 00 00  	li	t1, 0
80000c60: 93 04 00 00  	li	s1, 0
80000c64: 57 45 00 5e  	<unknown>
80000c68: d7 44 00 5e  	<unknown>
80000c6c: d7 40 40 02  	vadd.vx	v1, v4, zero
80000c70: 6f 00 80 01  	j	0x80000c88 <.LBB0_17>

80000c74 <.LBB0_15>:
80000c74: d7 c0 44 2a  	vor.vx	v1, v4, s1

80000c78 <.LBB0_16>:
80000c78: 5b 20 00 00  	join	zero, zero, 0
80000c7c: d7 41 00 5e  	<unknown>
80000c80: 57 45 00 5e  	<unknown>
80000c84: d7 44 00 5e  	<unknown>

80000c88 <.LBB0_17>:
80000c88: 5b 20 00 00  	join	zero, zero, 0
80000c8c: d7 45 00 5e  	<unknown>

80000c90 <.Lpcrel_hi10>:
80000c90: 17 03 00 00  	auipc	t1, 0
80000c94: 5b 30 43 3b  	setrpc	zero, t1, 948
80000c98: 5b 86 a5 3a  	vbeq	v10, v11, 0x80001044 <.LBB0_38>

80000c9c <.LBB0_18>:
80000c9c: d7 45 00 5e  	<unknown>
80000ca0: 13 83 12 00  	addi	t1, t0, 1
80000ca4: b3 34 53 00  	sltu	s1, t1, t0
80000ca8: b3 84 93 00  	add	s1, t2, s1
80000cac: 57 c4 84 2a  	vor.vx	v8, v8, s1
80000cb0: d7 c0 04 5e  	<unknown>
80000cb4: 57 45 03 2a  	vor.vx	v10, v0, t1
80000cb8: d7 41 03 5e  	<unknown>
80000cbc: d7 80 70 2a  	vor.vv	v1, v7, v1
80000cc0: d7 81 21 2a  	vor.vv	v3, v2, v3
80000cc4: d7 02 53 0a  	vsub.vv	v5, v5, v6
80000cc8: d7 83 92 02  	vadd.vv	v7, v9, v5
80000ccc: 57 b1 25 96  	vsll.vi	v2, v2, 11
80000cd0: d7 b2 3a a2  	vsrl.vi	v5, v3, 21
80000cd4: 57 b3 15 96  	vsll.vi	v6, v1, 11
80000cd8: d7 02 53 2a  	vor.vv	v5, v5, v6
80000cdc: 37 f3 04 75  	lui	t1, 479311
80000ce0: 13 03 33 33  	addi	t1, t1, 819
80000ce4: 57 43 03 5e  	<unknown>
80000ce8: 57 83 62 0a  	vsub.vv	v6, v6, v5
80000cec: d7 24 53 92  	vmulhu.vv	v9, v5, v6
80000cf0: d7 34 90 0e  	vrsub.vi	v9, v9, 0
80000cf4: 57 26 93 96  	vmul.vv	v12, v9, v6
80000cf8: 57 23 93 92  	vmulhu.vv	v6, v9, v6
80000cfc: 57 b3 60 96  	vsll.vi	v6, v6, 1
80000d00: d7 b4 cf a2  	vsrl.vi	v9, v12, 31
80000d04: 57 03 93 2a  	vor.vv	v6, v9, v6
80000d08: d7 a4 62 92  	vmulhu.vv	v9, v6, v5
80000d0c: d7 34 90 0e  	vrsub.vi	v9, v9, 0
80000d10: 57 a6 64 96  	vmul.vv	v12, v6, v9
80000d14: 57 a3 64 92  	vmulhu.vv	v6, v6, v9
80000d18: 57 b3 60 96  	vsll.vi	v6, v6, 1
80000d1c: d7 b4 cf a2  	vsrl.vi	v9, v12, 31
80000d20: 57 03 93 2a  	vor.vv	v6, v9, v6
80000d24: d7 a4 62 92  	vmulhu.vv	v9, v6, v5
80000d28: d7 34 90 0e  	vrsub.vi	v9, v9, 0
80000d2c: 57 a6 64 96  	vmul.vv	v12, v6, v9
80000d30: 57 a3 64 92  	vmulhu.vv	v6, v6, v9
80000d34: 57 b3 60 96  	vsll.vi	v6, v6, 1
80000d38: d7 b4 cf a2  	vsrl.vi	v9, v12, 31
80000d3c: 57 03 93 2a  	vor.vv	v6, v9, v6
80000d40: 57 b3 6f 02  	vadd.vi	v6, v6, -1
80000d44: d7 24 53 92  	vmulhu.vv	v9, v5, v6
80000d48: 57 26 53 96  	vmul.vv	v12, v5, v6
80000d4c: 57 21 23 92  	vmulhu.vv	v2, v2, v6
80000d50: d7 22 23 a6  	vmadd.vv	v5, v6, v2
80000d54: 57 01 56 6a  	vmsltu.vv	v2, v5, v12
80000d58: 57 01 91 02  	vadd.vv	v2, v9, v2
80000d5c: d7 34 51 7a  	vmsgtu.vi	v9, v5, 2
80000d60: 57 81 24 02  	vadd.vv	v2, v2, v9
80000d64: 57 31 20 0e  	vrsub.vi	v2, v2, 0
80000d68: d7 b2 50 0e  	vrsub.vi	v5, v5, 1
80000d6c: d7 24 61 96  	vmul.vv	v9, v6, v2
80000d70: 57 b6 9f a2  	vsrl.vi	v12, v9, 31
80000d74: 57 21 61 92  	vmulhu.vv	v2, v6, v2
80000d78: 57 b1 20 96  	vsll.vi	v2, v2, 1
80000d7c: 57 01 26 2a  	vor.vv	v2, v2, v12
80000d80: d7 b4 90 96  	vsll.vi	v9, v9, 1
80000d84: 57 26 53 96  	vmul.vv	v12, v5, v6
80000d88: d7 22 53 92  	vmulhu.vv	v5, v5, v6
80000d8c: 57 b3 50 96  	vsll.vi	v6, v5, 1
80000d90: 57 b6 cf a2  	vsrl.vi	v12, v12, 31
80000d94: 57 03 c3 2a  	vor.vv	v6, v12, v6
80000d98: d7 b2 5f a2  	vsrl.vi	v5, v5, 31
80000d9c: 57 03 93 02  	vadd.vv	v6, v9, v6
80000da0: d7 84 64 6a  	vmsltu.vv	v9, v6, v9
80000da4: 57 81 22 02  	vadd.vv	v2, v2, v5
80000da8: 57 81 24 02  	vadd.vv	v2, v2, v9
80000dac: 13 03 f0 f1  	li	t1, -225
80000db0: d7 44 63 02  	vadd.vx	v9, v6, t1
80000db4: d7 02 93 6a  	vmsltu.vv	v5, v9, v6
80000db8: 57 81 22 02  	vadd.vv	v2, v2, v5
80000dbc: 57 b3 2f 02  	vadd.vi	v6, v2, -1
80000dc0: 57 b1 af a2  	vsrl.vi	v2, v10, 31
80000dc4: d7 b2 80 96  	vsll.vi	v5, v8, 1
80000dc8: d7 02 51 2a  	vor.vv	v5, v5, v2
80000dcc: 57 b1 a0 96  	vsll.vi	v2, v10, 1
80000dd0: 57 26 91 92  	vmulhu.vv	v12, v9, v2
80000dd4: d7 a6 92 92  	vmulhu.vv	v13, v9, v5
80000dd8: 57 27 61 92  	vmulhu.vv	v14, v6, v2
80000ddc: d7 a4 c2 a6  	vmadd.vv	v9, v5, v12
80000de0: 57 06 96 6a  	vmsltu.vv	v12, v9, v12
80000de4: d7 47 60 02  	vadd.vx	v15, v6, zero
80000de8: d7 27 91 a6  	vmadd.vv	v15, v2, v9
80000dec: d7 84 f4 6a  	vmsltu.vv	v9, v15, v9
80000df0: d7 a7 62 92  	vmulhu.vv	v15, v6, v5
80000df4: d7 84 c4 02  	vadd.vv	v9, v12, v9
80000df8: 57 a3 e2 a6  	vmadd.vv	v6, v5, v14
80000dfc: 57 06 67 6a  	vmsltu.vv	v12, v6, v14
80000e00: 57 06 f6 02  	vadd.vv	v12, v15, v12
80000e04: d7 86 66 02  	vadd.vv	v13, v6, v13
80000e08: 57 03 d3 6a  	vmsltu.vv	v6, v13, v6
80000e0c: 57 03 c3 02  	vadd.vv	v6, v12, v6
80000e10: d7 84 d4 02  	vadd.vv	v9, v13, v9
80000e14: 57 86 96 6a  	vmsltu.vv	v12, v9, v13
80000e18: 57 03 66 02  	vadd.vv	v6, v6, v12
80000e1c: 57 b6 6a a2  	vsrl.vi	v12, v6, 21

80000e20 <.Lpcrel_hi11>:
80000e20: 17 03 00 00  	auipc	t1, 0
80000e24: 5b 30 83 09  	setrpc	zero, t1, 152
80000e28: 5b 90 c5 04  	vbne	v12, v11, 0x80000e68 <.LBB0_20>
80000e2c: 57 44 00 5e  	<unknown>
80000e30: 57 b0 0a 96  	vsll.vi	v0, v0, 21
80000e34: 57 a5 91 96  	vmul.vv	v10, v9, v3
80000e38: d7 a5 91 92  	vmulhu.vv	v11, v9, v3
80000e3c: 57 46 90 02  	vadd.vx	v12, v9, zero
80000e40: 57 a6 b0 a6  	vmadd.vv	v12, v1, v11
80000e44: d7 46 60 02  	vadd.vx	v13, v6, zero
80000e48: d7 a6 c1 a6  	vmadd.vv	v13, v3, v12
80000e4c: d7 45 90 02  	vadd.vx	v11, v9, zero
80000e50: d7 a5 81 ae  	vnmsub.vv	v11, v3, v8
80000e54: 57 80 06 0a  	vsub.vv	v0, v0, v13
80000e58: 57 34 a0 66  	vmsne.vi	v8, v10, 0
80000e5c: 57 06 04 0a  	vsub.vv	v12, v0, v8
80000e60: 8b 83 e3 3f  	vadd12.vi	v7, v7, 1022
80000e64: 6f 00 40 05  	j	0x80000eb8 <.LBB0_21>

80000e68 <.LBB0_20>:
80000e68: 57 41 00 5e  	<unknown>
80000e6c: 8b 83 f3 3f  	vadd12.vi	v7, v7, 1023
80000e70: d7 b2 90 a2  	vsrl.vi	v5, v9, 1
80000e74: d7 b4 6f 96  	vsll.vi	v9, v6, 31
80000e78: d7 84 54 2a  	vor.vv	v9, v5, v9
80000e7c: 57 b3 60 a2  	vsrl.vi	v6, v6, 1
80000e80: 57 30 0a 96  	vsll.vi	v0, v0, 20
80000e84: d7 a2 91 92  	vmulhu.vv	v5, v9, v3
80000e88: d7 45 90 02  	vadd.vx	v11, v9, zero
80000e8c: d7 a5 50 a6  	vmadd.vv	v11, v1, v5
80000e90: d7 42 60 02  	vadd.vx	v5, v6, zero
80000e94: d7 a2 b1 a6  	vmadd.vv	v5, v3, v11
80000e98: d7 a5 91 96  	vmul.vv	v11, v9, v3
80000e9c: 57 80 02 0a  	vsub.vv	v0, v0, v5
80000ea0: d7 32 b0 66  	vmsne.vi	v5, v11, 0
80000ea4: 57 86 02 0a  	vsub.vv	v12, v0, v5
80000ea8: d7 45 90 02  	vadd.vx	v11, v9, zero
80000eac: d7 a5 21 ae  	vnmsub.vv	v11, v3, v2
80000eb0: 57 41 a0 02  	vadd.vx	v2, v10, zero
80000eb4: d7 42 80 02  	vadd.vx	v5, v8, zero

80000eb8 <.LBB0_21>:
80000eb8: 5b 20 00 00  	join	zero, zero, 0
80000ebc: 13 03 f0 7f  	li	t1, 2047
80000ec0: 57 40 03 5e  	<unknown>

80000ec4 <.Lpcrel_hi12>:
80000ec4: 17 03 00 00  	auipc	t1, 0
80000ec8: 5b 30 03 18  	setrpc	zero, t1, 384
80000ecc: 5b 4a 70 00  	vblt	v7, v0, 0x80000ee0 <.LBB0_23>
80000ed0: d7 41 00 5e  	<unknown>
80000ed4: b7 02 f0 7f  	lui	t0, 524032
80000ed8: d7 c0 42 2a  	vor.vx	v1, v4, t0
80000edc: 6f 00 80 16  	j	0x80001044 <.LBB0_38>

80000ee0 <.LBB0_23>:
80000ee0: 57 40 00 5e  	<unknown>

80000ee4 <.Lpcrel_hi13>:
80000ee4: 17 03 00 00  	auipc	t1, 0
80000ee8: 5b 30 03 16  	setrpc	zero, t1, 352
80000eec: 5b d4 03 02  	vbge	v0, v7, 0x80000f14 <.LBB0_25>
80000ef0: 57 c0 92 26  	vand.vx	v0, v9, t0
80000ef4: 57 c1 63 26  	vand.vx	v2, v6, t2
80000ef8: d7 32 7a 96  	vsll.vi	v5, v7, 20
80000efc: 57 03 51 2a  	vor.vv	v6, v5, v2
80000f00: 57 b1 bf a2  	vsrl.vi	v2, v11, 31
80000f04: d7 b2 c0 96  	vsll.vi	v5, v12, 1
80000f08: 57 01 51 2a  	vor.vv	v2, v5, v2
80000f0c: d7 b2 b0 96  	vsll.vi	v5, v11, 1
80000f10: 6f 00 80 0f  	j	0x80001008 <.LBB0_34>

80000f14 <.LBB0_25>:
80000f14: 93 02 b0 fc  	li	t0, -53
80000f18: 57 c0 02 5e  	<unknown>

80000f1c <.Lpcrel_hi14>:
80000f1c: 17 03 00 00  	auipc	t1, 0
80000f20: 5b 30 83 12  	setrpc	zero, t1, 296
80000f24: 5b c8 03 00  	vblt	v0, v7, 0x80000f34 <.LBB0_27>
80000f28: d7 41 00 5e  	<unknown>
80000f2c: d7 40 40 02  	vadd.vx	v1, v4, zero
80000f30: 6f 00 40 11  	j	0x80001044 <.LBB0_38>

80000f34 <.LBB0_27>:
80000f34: 57 46 00 5e  	<unknown>
80000f38: 57 b0 70 0e  	vrsub.vi	v0, v7, 1
80000f3c: 57 04 60 a2  	vsrl.vv	v8, v6, v0
80000f40: 93 02 10 fe  	li	t0, -31
80000f44: 57 c5 02 5e  	<unknown>
80000f48: d7 85 a3 0a  	vsub.vv	v11, v10, v7
80000f4c: 57 b5 bf 76  	vmsle.vi	v10, v11, -1
80000f50: 57 35 a0 0e  	vrsub.vi	v10, v10, 0
80000f54: 93 02 f0 01  	li	t0, 31

80000f58 <.Lpcrel_hi15>:
80000f58: 17 03 00 00  	auipc	t1, 0
80000f5c: 5b 30 83 02  	setrpc	zero, t1, 40
80000f60: 5b 46 b6 00  	vblt	v11, v12, 0x80000f6c <.LBB0_29>
80000f64: 57 80 65 a2  	vsrl.vv	v0, v6, v11
80000f68: 6f 00 80 01  	j	0x80000f80 <.LBB0_30>

80000f6c <.LBB0_29>:
80000f6c: d7 04 90 a2  	vsrl.vv	v9, v9, v0
80000f70: 57 c0 02 2e  	vxor.vx	v0, v0, t0
80000f74: 57 b3 60 96  	vsll.vi	v6, v6, 1
80000f78: 57 00 60 96  	vsll.vv	v0, v6, v0
80000f7c: 57 00 90 2a  	vor.vv	v0, v9, v0

80000f80 <.LBB0_30>:
80000f80: 5b 20 00 00  	join	zero, zero, 0
80000f84: d7 45 00 5e  	<unknown>
80000f88: 8b 84 43 03  	vadd12.vi	v9, v7, 52
80000f8c: 8b 83 43 01  	vadd12.vi	v7, v7, 20
80000f90: 57 03 a4 26  	vand.vv	v6, v10, v8

80000f94 <.Lpcrel_hi16>:
80000f94: 17 03 00 00  	auipc	t1, 0
80000f98: 5b 30 83 02  	setrpc	zero, t1, 40
80000f9c: 5b c6 75 00  	vblt	v7, v11, 0x80000fa8 <.LBB0_32>
80000fa0: d7 82 23 96  	vsll.vv	v5, v2, v7
80000fa4: 6f 00 80 01  	j	0x80000fbc <.LBB0_33>

80000fa8 <.LBB0_32>:
80000fa8: d7 82 54 96  	vsll.vv	v5, v5, v9
80000fac: 57 c4 92 2e  	vxor.vx	v8, v9, t0
80000fb0: 57 b5 20 a2  	vsrl.vi	v10, v2, 1
80000fb4: 57 04 a4 a2  	vsrl.vv	v8, v10, v8
80000fb8: d7 02 54 2a  	vor.vv	v5, v5, v8

80000fbc <.LBB0_33>:
80000fbc: 5b 20 00 00  	join	zero, zero, 0
80000fc0: 57 81 24 96  	vsll.vv	v2, v2, v9
80000fc4: d7 b3 7f 76  	vmsle.vi	v7, v7, -1
80000fc8: d7 33 70 0e  	vrsub.vi	v7, v7, 0
80000fcc: d7 03 71 26  	vand.vv	v7, v7, v2
80000fd0: 57 21 30 92  	vmulhu.vv	v2, v3, v0
80000fd4: 57 44 30 02  	vadd.vx	v8, v3, zero
80000fd8: 57 24 23 a6  	vmadd.vv	v8, v6, v2
80000fdc: 57 41 10 02  	vadd.vx	v2, v1, zero
80000fe0: 57 21 80 a6  	vmadd.vv	v2, v0, v8
80000fe4: 57 b1 20 96  	vsll.vi	v2, v2, 1
80000fe8: 57 24 30 96  	vmul.vv	v8, v3, v0
80000fec: d7 b4 8f a2  	vsrl.vi	v9, v8, 31
80000ff0: 57 81 24 2a  	vor.vv	v2, v2, v9
80000ff4: 57 b4 80 96  	vsll.vi	v8, v8, 1
80000ff8: 57 01 51 0a  	vsub.vv	v2, v5, v2
80000ffc: d7 02 74 6a  	vmsltu.vv	v5, v7, v8
80001000: 57 81 22 0a  	vsub.vv	v2, v2, v5
80001004: d7 02 74 0a  	vsub.vv	v5, v7, v8

80001008 <.LBB0_34>:
80001008: d7 b3 00 26  	vand.vi	v7, v0, 1
8000100c: d7 82 72 02  	vadd.vv	v5, v7, v5
80001010: d7 83 53 6a  	vmsltu.vv	v7, v5, v7
80001014: 57 81 23 02  	vadd.vv	v2, v2, v7

80001018 <.Lpcrel_hi17>:
80001018: 17 03 00 00  	auipc	t1, 0
8000101c: 5b 30 83 01  	setrpc	zero, t1, 24
80001020: 5b 86 20 00  	vbeq	v2, v1, 0x8000102c <.LBB0_36>
80001024: d7 00 11 6a  	vmsltu.vv	v1, v1, v2
80001028: 6f 00 80 00  	j	0x80001030 <.LBB0_37>

8000102c <.LBB0_36>:
8000102c: d7 80 32 6a  	vmsltu.vv	v1, v3, v5

80001030 <.LBB0_37>:
80001030: 5b 20 00 00  	join	zero, zero, 0
80001034: d7 81 00 02  	vadd.vv	v3, v0, v1
80001038: 57 00 30 6a  	vmsltu.vv	v0, v3, v0
8000103c: 57 00 60 02  	vadd.vv	v0, v6, v0
80001040: d7 00 02 2a  	vor.vv	v1, v0, v4

80001044 <.LBB0_38>:
80001044: 5b 20 00 00  	join	zero, zero, 0
80001048: 57 40 30 02  	vadd.vx	v0, v3, zero
8000104c: 83 20 c1 ff  	lw	ra, -4(sp)
80001050: 0b c0 00 04  	barrier	x0, x0, 1
80001054: 13 01 c1 ff  	addi	sp, sp, -4
80001058: 67 80 00 00  	ret

8000105c <.LBB0_39>:
8000105c: d7 41 00 5e  	<unknown>
80001060: 57 05 a6 2a  	vor.vv	v10, v10, v12

80001064 <.Lpcrel_hi18>:
80001064: 17 03 00 00  	auipc	t1, 0
80001068: 5b 30 43 c2  	setrpc	zero, t1, -988
8000106c: 5b 80 a1 0c  	vbeq	v10, v3, 0x8000112c <.LBB0_44>
80001070: d7 41 00 5e  	<unknown>
80001074: 57 85 b6 2a  	vor.vv	v10, v11, v13

80001078 <.Lpcrel_hi19>:
80001078: 17 03 00 00  	auipc	t1, 0
8000107c: 5b 30 03 c1  	setrpc	zero, t1, -1008
80001080: 5b 84 a1 0c  	vbeq	v10, v3, 0x80001148 <.LBB0_45>
80001084: d7 41 00 5e  	<unknown>

80001088 <.Lpcrel_hi20>:
80001088: 17 03 00 00  	auipc	t1, 0
8000108c: 5b 30 c3 19  	setrpc	zero, t1, 412
80001090: 5b 98 91 0c  	vbne	v9, v3, 0x80001160 <.LBB0_46>
80001094: d7 44 00 5e  	<unknown>
80001098: d7 b1 00 a2  	vsrl.vi	v3, v0, 1
8000109c: 37 53 55 55  	lui	t1, 349525
800010a0: 13 06 53 55  	addi	a2, t1, 1365
800010a4: 37 33 33 33  	lui	t1, 209715
800010a8: 93 05 33 33  	addi	a1, t1, 819
800010ac: 37 13 0f 0f  	lui	t1, 61681
800010b0: 13 05 f3 f0  	addi	a0, t1, -241
800010b4: 37 03 01 01  	lui	t1, 4112
800010b8: 93 04 13 10  	addi	s1, t1, 257

800010bc <.Lpcrel_hi21>:
800010bc: 17 03 00 00  	auipc	t1, 0
800010c0: 5b 30 c3 10  	setrpc	zero, t1, 268
800010c4: 5b 92 84 0a  	vbne	v8, v9, 0x80001168 <.LBB0_47>
800010c8: d7 84 01 2a  	vor.vv	v9, v0, v3
800010cc: 57 35 91 a2  	vsrl.vi	v10, v9, 2
800010d0: d7 04 95 2a  	vor.vv	v9, v9, v10
800010d4: 57 35 92 a2  	vsrl.vi	v10, v9, 4
800010d8: d7 04 95 2a  	vor.vv	v9, v9, v10
800010dc: 57 35 94 a2  	vsrl.vi	v10, v9, 8
800010e0: d7 04 95 2a  	vor.vv	v9, v9, v10
800010e4: 57 35 98 a2  	vsrl.vi	v10, v9, 16
800010e8: d7 04 95 2a  	vor.vv	v9, v9, v10
800010ec: d7 b4 9f 2e  	vnot.v	v9, v9
800010f0: 57 b5 90 a2  	vsrl.vi	v10, v9, 1
800010f4: 57 45 a6 26  	vand.vx	v10, v10, a2
800010f8: d7 04 95 0a  	vsub.vv	v9, v9, v10
800010fc: 57 c5 05 5e  	<unknown>
80001100: d7 c5 95 26  	vand.vx	v11, v9, a1
80001104: d7 34 91 a2  	vsrl.vi	v9, v9, 2
80001108: d7 04 95 26  	vand.vv	v9, v9, v10
8000110c: d7 84 b4 02  	vadd.vv	v9, v11, v9
80001110: 57 35 92 a2  	vsrl.vi	v10, v9, 4
80001114: d7 04 95 02  	vadd.vv	v9, v9, v10
80001118: d7 44 95 26  	vand.vx	v9, v9, a0
8000111c: d7 e4 94 96  	vmul.vx	v9, v9, s1
80001120: d7 34 9c a2  	vsrl.vi	v9, v9, 24
80001124: 8b 84 04 02  	vadd12.vi	v9, v9, 32
80001128: 6f 00 00 0a  	j	0x800011c8 <.LBB0_48>

8000112c <.LBB0_44>:
8000112c: d7 41 00 5e  	<unknown>
80001130: d7 84 b6 2a  	vor.vv	v9, v11, v13
80001134: d7 40 40 02  	vadd.vx	v1, v4, zero

80001138 <.Lpcrel_hi22>:
80001138: 17 03 00 00  	auipc	t1, 0
8000113c: 5b 30 03 b4  	setrpc	zero, t1, -1216
80001140: db 88 91 a8  	vbeq	v9, v3, 0x80000bd0 <.LBB0_7>
80001144: 6f f0 5f b3  	j	0x80000c78 <.LBB0_16>

80001148 <.LBB0_45>:
80001148: d7 41 00 5e  	<unknown>
8000114c: 57 45 00 5e  	<unknown>
80001150: d7 44 00 5e  	<unknown>
80001154: 37 03 f0 7f  	lui	t1, 524032
80001158: d7 40 43 2a  	vor.vx	v1, v4, t1
8000115c: 6f f0 df b2  	j	0x80000c88 <.LBB0_17>

80001160 <.LBB0_46>:
80001160: d7 44 00 5e  	<unknown>
80001164: 6f 00 00 0c  	j	0x80001224 <.LBB0_52>

80001168 <.LBB0_47>:
80001168: d7 b4 80 a2  	vsrl.vi	v9, v8, 1
8000116c: d7 84 84 2a  	vor.vv	v9, v8, v9
80001170: 57 35 91 a2  	vsrl.vi	v10, v9, 2
80001174: d7 04 95 2a  	vor.vv	v9, v9, v10
80001178: 57 35 92 a2  	vsrl.vi	v10, v9, 4
8000117c: d7 04 95 2a  	vor.vv	v9, v9, v10
80001180: 57 35 94 a2  	vsrl.vi	v10, v9, 8
80001184: d7 04 95 2a  	vor.vv	v9, v9, v10
80001188: 57 35 98 a2  	vsrl.vi	v10, v9, 16
8000118c: d7 04 95 2a  	vor.vv	v9, v9, v10
80001190: d7 b4 9f 2e  	vnot.v	v9, v9
80001194: 57 b5 90 a2  	vsrl.vi	v10, v9, 1
80001198: 57 45 a6 26  	vand.vx	v10, v10, a2
8000119c: d7 04 95 0a  	vsub.vv	v9, v9, v10
800011a0: 57 c5 05 5e  	<unknown>
800011a4: d7 c5 95 26  	vand.vx	v11, v9, a1
800011a8: d7 34 91 a2  	vsrl.vi	v9, v9, 2
800011ac: d7 04 95 26  	vand.vv	v9, v9, v10
800011b0: d7 84 b4 02  	vadd.vv	v9, v11, v9
800011b4: 57 35 92 a2  	vsrl.vi	v10, v9, 4
800011b8: d7 04 95 02  	vadd.vv	v9, v9, v10
800011bc: d7 44 95 26  	vand.vx	v9, v9, a0
800011c0: d7 e4 94 96  	vmul.vx	v9, v9, s1
800011c4: d7 34 9c a2  	vsrl.vi	v9, v9, 24

800011c8 <.LBB0_48>:
800011c8: 5b 20 00 00  	join	zero, zero, 0
800011cc: 57 46 00 5e  	<unknown>
800011d0: 0b 85 54 03  	vadd12.vi	v10, v9, 53
800011d4: 13 03 f0 03  	li	t1, 63
800011d8: 57 45 a3 26  	vand.vx	v10, v10, t1
800011dc: 13 03 00 fe  	li	t1, -32
800011e0: d7 45 a3 02  	vadd.vx	v11, v10, t1

800011e4 <.Lpcrel_hi23>:
800011e4: 17 03 00 00  	auipc	t1, 0
800011e8: 5b 30 83 02  	setrpc	zero, t1, 40
800011ec: 5b 46 b6 00  	vblt	v11, v12, 0x800011f8 <.LBB0_50>
800011f0: 57 84 05 96  	vsll.vv	v8, v0, v11
800011f4: 6f 00 80 01  	j	0x8000120c <.LBB0_51>

800011f8 <.LBB0_50>:
800011f8: 57 04 85 96  	vsll.vv	v8, v8, v10
800011fc: 13 03 f0 01  	li	t1, 31
80001200: 57 46 a3 2e  	vxor.vx	v12, v10, t1
80001204: d7 01 36 a2  	vsrl.vv	v3, v3, v12
80001208: 57 84 81 2a  	vor.vv	v8, v8, v3

8000120c <.LBB0_51>:
8000120c: 5b 20 00 00  	join	zero, zero, 0
80001210: 57 00 05 96  	vsll.vv	v0, v0, v10
80001214: d7 b1 bf 76  	vmsle.vi	v3, v11, -1
80001218: d7 31 30 0e  	vrsub.vi	v3, v3, 0
8000121c: 57 00 30 26  	vand.vv	v0, v3, v0
80001220: d7 34 96 0e  	vrsub.vi	v9, v9, 12

80001224 <.LBB0_52>:
80001224: 5b 20 00 00  	join	zero, zero, 0
80001228: d7 41 00 5e  	<unknown>
8000122c: 93 04 10 00  	li	s1, 1

80001230 <.Lpcrel_hi24>:
80001230: 17 03 00 00  	auipc	t1, 0
80001234: 5b 30 43 16  	setrpc	zero, t1, 356
80001238: 5b 9e 11 14  	vbne	v1, v3, 0x80001394 <.LBB0_60>
8000123c: d7 41 00 5e  	<unknown>
80001240: d7 b0 20 a2  	vsrl.vi	v1, v2, 1
80001244: 37 53 55 55  	lui	t1, 349525
80001248: 93 06 53 55  	addi	a3, t1, 1365
8000124c: 37 33 33 33  	lui	t1, 209715
80001250: 13 06 33 33  	addi	a2, t1, 819
80001254: 37 13 0f 0f  	lui	t1, 61681
80001258: 93 05 f3 f0  	addi	a1, t1, -241
8000125c: 37 03 01 01  	lui	t1, 4112
80001260: 13 05 13 10  	addi	a0, t1, 257

80001264 <.Lpcrel_hi25>:
80001264: 17 03 00 00  	auipc	t1, 0
80001268: 5b 30 03 0d  	setrpc	zero, t1, 208
8000126c: 5b 94 71 06  	vbne	v7, v3, 0x800012d4 <.LBB0_55>
80001270: d7 81 20 2a  	vor.vv	v3, v2, v1
80001274: 57 35 31 a2  	vsrl.vi	v10, v3, 2
80001278: d7 01 35 2a  	vor.vv	v3, v3, v10
8000127c: 57 35 32 a2  	vsrl.vi	v10, v3, 4
80001280: d7 01 35 2a  	vor.vv	v3, v3, v10
80001284: 57 35 34 a2  	vsrl.vi	v10, v3, 8
80001288: d7 01 35 2a  	vor.vv	v3, v3, v10
8000128c: 57 35 38 a2  	vsrl.vi	v10, v3, 16
80001290: d7 01 35 2a  	vor.vv	v3, v3, v10
80001294: d7 b1 3f 2e  	vnot.v	v3, v3
80001298: 57 b5 30 a2  	vsrl.vi	v10, v3, 1
8000129c: 57 c5 a6 26  	vand.vx	v10, v10, a3
800012a0: d7 01 35 0a  	vsub.vv	v3, v3, v10
800012a4: 57 45 06 5e  	<unknown>
800012a8: d7 45 36 26  	vand.vx	v11, v3, a2
800012ac: d7 31 31 a2  	vsrl.vi	v3, v3, 2
800012b0: d7 01 35 26  	vand.vv	v3, v3, v10
800012b4: d7 81 b1 02  	vadd.vv	v3, v11, v3
800012b8: 57 35 32 a2  	vsrl.vi	v10, v3, 4
800012bc: d7 01 35 02  	vadd.vv	v3, v3, v10
800012c0: d7 c1 35 26  	vand.vx	v3, v3, a1
800012c4: d7 61 35 96  	vmul.vx	v3, v3, a0
800012c8: d7 31 3c a2  	vsrl.vi	v3, v3, 24
800012cc: 8b 81 01 02  	vadd12.vi	v3, v3, 32
800012d0: 6f 00 40 06  	j	0x80001334 <.LBB0_56>

800012d4 <.LBB0_55>:
800012d4: d7 b1 70 a2  	vsrl.vi	v3, v7, 1
800012d8: d7 81 71 2a  	vor.vv	v3, v7, v3
800012dc: 57 35 31 a2  	vsrl.vi	v10, v3, 2
800012e0: d7 01 35 2a  	vor.vv	v3, v3, v10
800012e4: 57 35 32 a2  	vsrl.vi	v10, v3, 4
800012e8: d7 01 35 2a  	vor.vv	v3, v3, v10
800012ec: 57 35 34 a2  	vsrl.vi	v10, v3, 8
800012f0: d7 01 35 2a  	vor.vv	v3, v3, v10
800012f4: 57 35 38 a2  	vsrl.vi	v10, v3, 16
800012f8: d7 01 35 2a  	vor.vv	v3, v3, v10
800012fc: d7 b1 3f 2e  	vnot.v	v3, v3
80001300: 57 b5 30 a2  	vsrl.vi	v10, v3, 1
80001304: 57 c5 a6 26  	vand.vx	v10, v10, a3
80001308: d7 01 35 0a  	vsub.vv	v3, v3, v10
8000130c: 57 45 06 5e  	<unknown>
80001310: d7 45 36 26  	vand.vx	v11, v3, a2
80001314: d7 31 31 a2  	vsrl.vi	v3, v3, 2
80001318: d7 01 35 26  	vand.vv	v3, v3, v10
8000131c: d7 81 b1 02  	vadd.vv	v3, v11, v3
80001320: 57 35 32 a2  	vsrl.vi	v10, v3, 4
80001324: d7 01 35 02  	vadd.vv	v3, v3, v10
80001328: d7 c1 35 26  	vand.vx	v3, v3, a1
8000132c: d7 61 35 96  	vmul.vx	v3, v3, a0
80001330: d7 31 3c a2  	vsrl.vi	v3, v3, 24

80001334 <.LBB0_56>:
80001334: 5b 20 00 00  	join	zero, zero, 0
80001338: 57 46 00 5e  	<unknown>
8000133c: 0b 85 51 03  	vadd12.vi	v10, v3, 53
80001340: 13 03 f0 03  	li	t1, 63
80001344: 57 45 a3 26  	vand.vx	v10, v10, t1
80001348: 13 03 00 fe  	li	t1, -32
8000134c: d7 45 a3 02  	vadd.vx	v11, v10, t1

80001350 <.Lpcrel_hi26>:
80001350: 17 03 00 00  	auipc	t1, 0
80001354: 5b 30 83 02  	setrpc	zero, t1, 40
80001358: 5b 46 b6 00  	vblt	v11, v12, 0x80001364 <.LBB0_58>
8000135c: d7 83 25 96  	vsll.vv	v7, v2, v11
80001360: 6f 00 80 01  	j	0x80001378 <.LBB0_59>

80001364 <.LBB0_58>:
80001364: d7 03 75 96  	vsll.vv	v7, v7, v10
80001368: 13 03 f0 01  	li	t1, 31
8000136c: 57 46 a3 2e  	vxor.vx	v12, v10, t1
80001370: d7 00 16 a2  	vsrl.vv	v1, v1, v12
80001374: d7 83 70 2a  	vor.vv	v7, v7, v1

80001378 <.LBB0_59>:
80001378: 5b 20 00 00  	join	zero, zero, 0
8000137c: d7 00 25 96  	vsll.vv	v1, v2, v10
80001380: 57 b1 bf 76  	vmsle.vi	v2, v11, -1
80001384: 57 31 20 0e  	vrsub.vi	v2, v2, 0
80001388: 57 81 20 26  	vand.vv	v2, v2, v1
8000138c: d7 80 34 02  	vadd.vv	v1, v3, v9
80001390: d7 34 1a 02  	vadd.vi	v9, v1, -12

80001394 <.LBB0_60>:
80001394: 5b 20 00 00  	join	zero, zero, 0
80001398: 57 c5 04 5e  	<unknown>
8000139c: 6f f0 df 8e  	j	0x80000c88 <.LBB0_17>

800013a0 <__truncdfsf2>:
800013a0: 13 01 41 00  	addi	sp, sp, 4
800013a4: 23 2e 11 fe  	sw	ra, -4(sp)
800013a8: b7 02 00 80  	lui	t0, 524288
800013ac: 93 82 f2 ff  	addi	t0, t0, -1
800013b0: d7 c1 12 26  	vand.vx	v3, v1, t0
800013b4: b7 02 f0 c7  	lui	t0, 818944
800013b8: 57 c1 32 02  	vadd.vx	v2, v3, t0
800013bc: b7 02 10 b8  	lui	t0, 753920
800013c0: 57 c2 32 02  	vadd.vx	v4, v3, t0

800013c4 <.Lpcrel_hi0>:
800013c4: 17 03 00 00  	auipc	t1, 0
800013c8: 5b 30 c3 10  	setrpc	zero, t1, 268
800013cc: 5b 72 22 04  	vbgeu	v2, v4, 0x80001410 <.LBB0_3>
800013d0: 57 b1 0e a2  	vsrl.vi	v2, v0, 29
800013d4: d7 b1 11 96  	vsll.vi	v3, v1, 3
800013d8: 57 81 21 2a  	vor.vv	v2, v2, v3
800013dc: b7 02 00 20  	lui	t0, 131072
800013e0: 93 82 f2 ff  	addi	t0, t0, -1
800013e4: 57 c0 02 26  	vand.vx	v0, v0, t0
800013e8: 37 03 00 10  	lui	t1, 65536
800013ec: 13 03 13 00  	addi	t1, t1, 1
800013f0: d7 41 03 5e  	<unknown>

800013f4 <.Lpcrel_hi1>:
800013f4: 17 03 00 00  	auipc	t1, 0
800013f8: 5b 30 c3 0d  	setrpc	zero, t1, 220
800013fc: 5b ee 01 06  	vbltu	v0, v3, 0x80001478 <.LBB0_8>
80001400: b7 02 00 40  	lui	t0, 262144
80001404: 93 82 12 00  	addi	t0, t0, 1
80001408: d7 c1 22 02  	vadd.vx	v3, v2, t0
8000140c: 6f 00 40 0c  	j	0x800014d0 <.LBB0_11>

80001410 <.LBB0_3>:
80001410: b7 02 f0 7f  	lui	t0, 524032
80001414: 57 c2 02 5e  	<unknown>
80001418: 57 31 3a a2  	vsrl.vi	v2, v3, 20

8000141c <.Lpcrel_hi2>:
8000141c: 17 03 00 00  	auipc	t1, 0
80001420: 5b 30 43 0b  	setrpc	zero, t1, 180
80001424: 5b 0c 32 06  	vbeq	v3, v4, 0x8000149c <.LBB0_9>
80001428: 93 02 f0 7f  	li	t0, 2047
8000142c: d7 c1 22 6a  	vmsltu.vx	v3, v2, t0
80001430: 57 42 00 5e  	<unknown>

80001434 <.Lpcrel_hi3>:
80001434: 17 03 00 00  	auipc	t1, 0
80001438: 5b 30 c3 09  	setrpc	zero, t1, 156
8000143c: 5b 0a 32 06  	vbeq	v3, v4, 0x800014b0 <.LBB0_10>

80001440 <.LBB0_5>:
80001440: b7 02 80 7f  	lui	t0, 522240
80001444: 13 03 e0 47  	li	t1, 1150
80001448: 57 42 03 5e  	<unknown>
8000144c: d7 c1 02 5e  	<unknown>

80001450 <.Lpcrel_hi4>:
80001450: 17 03 00 00  	auipc	t1, 0
80001454: 5b 30 03 08  	setrpc	zero, t1, 128
80001458: 5b 6c 41 06  	vbltu	v4, v2, 0x800014d0 <.LBB0_11>
8000145c: 93 02 d0 34  	li	t0, 845
80001460: d7 c1 02 5e  	<unknown>

80001464 <.Lpcrel_hi5>:
80001464: 17 03 00 00  	auipc	t1, 0
80001468: 5b 30 c3 06  	setrpc	zero, t1, 108
8000146c: 5b f2 21 08  	vbgeu	v2, v3, 0x800014f0 <.LBB0_12>
80001470: d7 41 00 5e  	<unknown>
80001474: 6f 00 c0 05  	j	0x800014d0 <.LBB0_11>

80001478 <.LBB0_8>:
80001478: b7 02 00 10  	lui	t0, 65536
8000147c: 57 c0 02 66  	vmsne.vx	v0, v0, t0
80001480: 57 b0 0f 02  	vadd.vi	v0, v0, -1
80001484: 57 00 20 26  	vand.vv	v0, v2, v0
80001488: 57 b0 00 26  	vand.vi	v0, v0, 1
8000148c: 57 00 20 02  	vadd.vv	v0, v2, v0
80001490: b7 02 00 40  	lui	t0, 262144
80001494: d7 c1 02 02  	vadd.vx	v3, v0, t0
80001498: 6f 00 80 03  	j	0x800014d0 <.LBB0_11>

8000149c <.LBB0_9>:
8000149c: d7 31 00 62  	vmseq.vi	v3, v0, 0
800014a0: 57 42 00 5e  	<unknown>

800014a4 <.Lpcrel_hi6>:
800014a4: 17 03 00 00  	auipc	t1, 0
800014a8: 5b 30 c3 02  	setrpc	zero, t1, 44
800014ac: db 1a 32 f8  	vbne	v3, v4, 0x80001440 <.LBB0_5>

800014b0 <.LBB0_10>:
800014b0: 57 b0 0e a2  	vsrl.vi	v0, v0, 29
800014b4: 57 b1 11 96  	vsll.vi	v2, v1, 3
800014b8: 57 00 01 2a  	vor.vv	v0, v0, v2
800014bc: b7 02 40 00  	lui	t0, 1024
800014c0: 93 82 f2 ff  	addi	t0, t0, -1
800014c4: 57 c0 02 26  	vand.vx	v0, v0, t0
800014c8: b7 02 c0 7f  	lui	t0, 523264
800014cc: d7 c1 02 2a  	vor.vx	v3, v0, t0

800014d0 <.LBB0_11>:
800014d0: 5b 20 00 00  	join	zero, zero, 0
800014d4: b7 02 00 80  	lui	t0, 524288
800014d8: 57 c0 12 26  	vand.vx	v0, v1, t0
800014dc: 57 00 30 2a  	vor.vv	v0, v3, v0
800014e0: 83 20 c1 ff  	lw	ra, -4(sp)
800014e4: 0b c0 00 04  	barrier	x0, x0, 1
800014e8: 13 01 c1 ff  	addi	sp, sp, -4
800014ec: 67 80 00 00  	ret

800014f0 <.LBB0_12>:
800014f0: 57 42 00 5e  	<unknown>
800014f4: d7 b2 20 0e  	vrsub.vi	v5, v2, 1
800014f8: b7 02 10 00  	lui	t0, 256
800014fc: 93 82 f2 ff  	addi	t0, t0, -1
80001500: d7 c1 12 26  	vand.vx	v3, v1, t0
80001504: 57 c3 02 5e  	<unknown>
80001508: d7 b3 0f 02  	vadd.vi	v7, v0, -1
8000150c: 57 00 70 6a  	vmsltu.vv	v0, v7, v0
80001510: 57 00 30 02  	vadd.vv	v0, v3, v0
80001514: d7 b1 70 02  	vadd.vi	v3, v7, 1
80001518: d7 83 33 6a  	vmsltu.vv	v7, v3, v7
8000151c: 57 80 03 02  	vadd.vv	v0, v0, v7
80001520: 57 00 03 02  	vadd.vv	v0, v0, v6
80001524: 57 b1 2f 02  	vadd.vi	v2, v2, -1
80001528: 93 04 f0 03  	li	s1, 63
8000152c: 57 c1 24 26  	vand.vx	v2, v2, s1
80001530: 93 02 f0 01  	li	t0, 31
80001534: 93 03 00 fe  	li	t2, -32
80001538: 57 c3 23 02  	vadd.vx	v6, v2, t2

8000153c <.Lpcrel_hi7>:
8000153c: 17 03 00 00  	auipc	t1, 0
80001540: 5b 30 83 02  	setrpc	zero, t1, 40
80001544: 5b 46 62 00  	vblt	v6, v4, 0x80001550 <.LBB0_14>
80001548: d7 03 33 96  	vsll.vv	v7, v3, v6
8000154c: 6f 00 80 01  	j	0x80001564 <.LBB0_15>

80001550 <.LBB0_14>:
80001550: d7 03 01 96  	vsll.vv	v7, v0, v2
80001554: 57 c4 22 2e  	vxor.vx	v8, v2, t0
80001558: d7 b4 30 a2  	vsrl.vi	v9, v3, 1
8000155c: 57 04 94 a2  	vsrl.vv	v8, v9, v8
80001560: d7 03 74 2a  	vor.vv	v7, v7, v8

80001564 <.LBB0_15>:
80001564: 5b 20 00 00  	join	zero, zero, 0
80001568: 57 01 31 96  	vsll.vv	v2, v3, v2
8000156c: 57 b3 6f 76  	vmsle.vi	v6, v6, -1
80001570: 57 33 60 0e  	vrsub.vi	v6, v6, 0
80001574: 57 01 61 26  	vand.vv	v2, v6, v2
80001578: 57 81 23 2a  	vor.vv	v2, v2, v7
8000157c: 57 31 20 66  	vmsne.vi	v2, v2, 0
80001580: d7 c2 54 26  	vand.vx	v5, v5, s1
80001584: 57 c3 53 02  	vadd.vx	v6, v5, t2

80001588 <.Lpcrel_hi8>:
80001588: 17 03 00 00  	auipc	t1, 0
8000158c: 5b 30 83 02  	setrpc	zero, t1, 40
80001590: 5b 46 62 00  	vblt	v6, v4, 0x8000159c <.LBB0_17>
80001594: d7 01 03 a2  	vsrl.vv	v3, v0, v6
80001598: 6f 00 80 01  	j	0x800015b0 <.LBB0_18>

8000159c <.LBB0_17>:
8000159c: 57 b2 00 96  	vsll.vi	v4, v0, 1
800015a0: d7 c3 52 2e  	vxor.vx	v7, v5, t0
800015a4: 57 82 43 96  	vsll.vv	v4, v4, v7
800015a8: d7 81 32 a2  	vsrl.vv	v3, v3, v5
800015ac: d7 01 32 2a  	vor.vv	v3, v3, v4

800015b0 <.LBB0_18>:
800015b0: 5b 20 00 00  	join	zero, zero, 0
800015b4: 57 80 02 a2  	vsrl.vv	v0, v0, v5
800015b8: 57 b2 6f 76  	vmsle.vi	v4, v6, -1
800015bc: 57 32 40 0e  	vrsub.vi	v4, v4, 0
800015c0: 57 00 40 26  	vand.vv	v0, v4, v0
800015c4: 57 b2 3e a2  	vsrl.vi	v4, v3, 29
800015c8: 57 b0 01 96  	vsll.vi	v0, v0, 3
800015cc: 57 00 40 2a  	vor.vv	v0, v4, v0
800015d0: b7 02 00 20  	lui	t0, 131072
800015d4: 93 82 f2 ff  	addi	t0, t0, -1
800015d8: d7 c1 32 26  	vand.vx	v3, v3, t0
800015dc: 57 01 31 2a  	vor.vv	v2, v3, v2
800015e0: 37 03 00 10  	lui	t1, 65536
800015e4: 13 03 13 00  	addi	t1, t1, 1
800015e8: d7 41 03 5e  	<unknown>

800015ec <.Lpcrel_hi9>:
800015ec: 17 03 00 00  	auipc	t1, 0
800015f0: 5b 30 43 ee  	setrpc	zero, t1, -284
800015f4: 5b e6 21 00  	vbltu	v2, v3, 0x80001600 <.LBB0_20>
800015f8: d7 b1 00 02  	vadd.vi	v3, v0, 1
800015fc: 6f f0 5f ed  	j	0x800014d0 <.LBB0_11>

80001600 <.LBB0_20>:
80001600: b7 02 00 10  	lui	t0, 65536
80001604: 57 c1 22 66  	vmsne.vx	v2, v2, t0
80001608: 57 b1 2f 02  	vadd.vi	v2, v2, -1
8000160c: 57 01 01 26  	vand.vv	v2, v0, v2
80001610: 57 b1 20 26  	vand.vi	v2, v2, 1
80001614: d7 01 20 02  	vadd.vv	v3, v2, v0
80001618: 6f f0 9f eb  	j	0x800014d0 <.LBB0_11>

8000161c <__floatunsidf>:
8000161c: 13 01 41 00  	addi	sp, sp, 4
80001620: 23 2e 11 fe  	sw	ra, -4(sp)
80001624: d7 40 00 5e  	<unknown>

80001628 <.Lpcrel_hi0>:
80001628: 17 03 00 00  	auipc	t1, 0
8000162c: 5b 30 43 0f  	setrpc	zero, t1, 244
80001630: 5b 82 00 0a  	vbeq	v0, v1, 0x800016d4 <.LBB0_3>
80001634: d7 42 00 5e  	<unknown>
80001638: d7 b0 00 a2  	vsrl.vi	v1, v0, 1
8000163c: 57 81 00 2a  	vor.vv	v2, v0, v1
80001640: d7 31 21 a2  	vsrl.vi	v3, v2, 2
80001644: 57 81 21 2a  	vor.vv	v2, v2, v3
80001648: d7 31 22 a2  	vsrl.vi	v3, v2, 4
8000164c: 57 81 21 2a  	vor.vv	v2, v2, v3
80001650: d7 31 24 a2  	vsrl.vi	v3, v2, 8
80001654: 57 81 21 2a  	vor.vv	v2, v2, v3
80001658: d7 31 28 a2  	vsrl.vi	v3, v2, 16
8000165c: 57 81 21 2a  	vor.vv	v2, v2, v3
80001660: 57 b1 2f 2e  	vnot.v	v2, v2
80001664: d7 b1 20 a2  	vsrl.vi	v3, v2, 1
80001668: b7 52 55 55  	lui	t0, 349525
8000166c: 93 82 52 55  	addi	t0, t0, 1365
80001670: d7 c1 32 26  	vand.vx	v3, v3, t0
80001674: 57 81 21 0a  	vsub.vv	v2, v2, v3
80001678: b7 32 33 33  	lui	t0, 209715
8000167c: 93 82 32 33  	addi	t0, t0, 819
80001680: d7 c1 22 26  	vand.vx	v3, v2, t0
80001684: 57 c2 02 5e  	<unknown>
80001688: 57 31 21 a2  	vsrl.vi	v2, v2, 2
8000168c: 57 01 22 26  	vand.vv	v2, v2, v4
80001690: 57 01 31 02  	vadd.vv	v2, v3, v2
80001694: d7 31 22 a2  	vsrl.vi	v3, v2, 4
80001698: 57 81 21 02  	vadd.vv	v2, v2, v3
8000169c: b7 12 0f 0f  	lui	t0, 61681
800016a0: 93 82 f2 f0  	addi	t0, t0, -241
800016a4: 57 c1 22 26  	vand.vx	v2, v2, t0
800016a8: b7 02 01 01  	lui	t0, 4112
800016ac: 93 82 12 10  	addi	t0, t0, 257
800016b0: 57 e1 22 96  	vmul.vx	v2, v2, t0
800016b4: 57 31 2c a2  	vsrl.vi	v2, v2, 24
800016b8: d7 b1 2a 02  	vadd.vi	v3, v2, -11
800016bc: 0b 02 51 01  	vadd12.vi	v4, v2, 21

800016c0 <.Lpcrel_hi1>:
800016c0: 17 03 00 00  	auipc	t1, 0
800016c4: 5b 30 c3 02  	setrpc	zero, t1, 44
800016c8: 5b cc 32 00  	vblt	v3, v5, 0x800016e0 <.LBB0_4>
800016cc: d7 80 01 96  	vsll.vv	v1, v0, v3
800016d0: 6f 00 c0 01  	j	0x800016ec <.LBB0_5>

800016d4 <.LBB0_3>:
800016d4: 57 40 00 5e  	<unknown>
800016d8: d7 40 00 5e  	<unknown>
800016dc: 6f 00 00 04  	j	0x8000171c <.LBB0_6>

800016e0 <.LBB0_4>:
800016e0: 93 02 f0 01  	li	t0, 31
800016e4: d7 c2 42 2e  	vxor.vx	v5, v4, t0
800016e8: d7 80 12 a2  	vsrl.vv	v1, v1, v5

800016ec <.LBB0_5>:
800016ec: 5b 20 00 00  	join	zero, zero, 0
800016f0: 57 00 02 96  	vsll.vv	v0, v0, v4
800016f4: d7 b1 3f 76  	vmsle.vi	v3, v3, -1
800016f8: d7 31 30 0e  	vrsub.vi	v3, v3, 0
800016fc: 57 00 30 26  	vand.vv	v0, v3, v0
80001700: b7 02 10 00  	lui	t0, 256
80001704: d7 c0 12 2e  	vxor.vx	v1, v1, t0
80001708: 93 02 e0 41  	li	t0, 1054
8000170c: d7 c1 02 5e  	<unknown>
80001710: 57 01 31 0a  	vsub.vv	v2, v3, v2
80001714: 57 31 2a 96  	vsll.vi	v2, v2, 20
80001718: d7 00 11 02  	vadd.vv	v1, v1, v2

8000171c <.LBB0_6>:
8000171c: 5b 20 00 00  	join	zero, zero, 0
80001720: 83 20 c1 ff  	lw	ra, -4(sp)
80001724: 0b c0 00 04  	barrier	x0, x0, 1
80001728: 13 01 c1 ff  	addi	sp, sp, -4
8000172c: 67 80 00 00  	ret

80001730 <__fixunsdfsi>:
80001730: 13 01 41 00  	addi	sp, sp, 4
80001734: 23 2e 11 fe  	sw	ra, -4(sp)
80001738: d7 41 00 5e  	<unknown>
8000173c: d7 40 00 5e  	<unknown>
80001740: d7 b2 0f a2  	vsrl.vi	v5, v0, 31
80001744: 57 b1 0b a2  	vsrl.vi	v2, v0, 23
80001748: 93 02 f0 0f  	li	t0, 255
8000174c: 57 c2 22 26  	vand.vx	v4, v2, t0
80001750: 93 02 f0 07  	li	t0, 127
80001754: 57 c3 42 6a  	vmsltu.vx	v6, v4, t0
80001758: d7 02 53 2a  	vor.vv	v5, v5, v6

8000175c <.Lpcrel_hi13>:
8000175c: 17 03 00 00  	auipc	t1, 0
80001760: 5b 30 83 0c  	setrpc	zero, t1, 200
80001764: 5b 90 51 0c  	vbne	v5, v3, 0x80001824 <.LBB3_7>
80001768: 93 02 10 f6  	li	t0, -159
8000176c: d7 c1 42 02  	vadd.vx	v3, v4, t0
80001770: 93 02 f0 ff  	li	t0, -1
80001774: 13 03 00 fe  	li	t1, -32
80001778: d7 42 03 5e  	<unknown>
8000177c: d7 c0 02 5e  	<unknown>

80001780 <.Lpcrel_hi14>:
80001780: 17 03 00 00  	auipc	t1, 0
80001784: 5b 30 43 0a  	setrpc	zero, t1, 164
80001788: 5b ee 32 08  	vbltu	v3, v5, 0x80001824 <.LBB3_7>
8000178c: b7 02 80 00  	lui	t0, 2048
80001790: 93 82 f2 ff  	addi	t0, t0, -1
80001794: d7 c0 02 26  	vand.vx	v1, v0, t0
80001798: 57 c0 02 5e  	<unknown>
8000179c: d7 01 10 02  	vadd.vv	v3, v1, v0
800017a0: 93 02 50 09  	li	t0, 149
800017a4: d7 c2 02 5e  	<unknown>
800017a8: 57 b0 30 02  	vadd.vi	v0, v3, 1

800017ac <.Lpcrel_hi15>:
800017ac: 17 03 00 00  	auipc	t1, 0
800017b0: 5b 30 83 07  	setrpc	zero, t1, 120
800017b4: 5b 62 52 04  	vbltu	v5, v4, 0x800017f8 <.LBB3_5>
800017b8: 57 42 00 5e  	<unknown>
800017bc: d7 80 30 6a  	vmsltu.vv	v1, v3, v1
800017c0: d7 81 01 6a  	vmsltu.vv	v3, v0, v3
800017c4: d7 80 11 02  	vadd.vv	v1, v1, v3
800017c8: 93 02 60 01  	li	t0, 22
800017cc: d7 c1 02 5e  	<unknown>
800017d0: 57 01 31 0a  	vsub.vv	v2, v3, v2
800017d4: 93 02 f0 03  	li	t0, 63
800017d8: 57 c1 22 26  	vand.vx	v2, v2, t0
800017dc: 93 02 00 fe  	li	t0, -32
800017e0: d7 c1 22 02  	vadd.vx	v3, v2, t0

800017e4 <.Lpcrel_hi16>:
800017e4: 17 03 00 00  	auipc	t1, 0
800017e8: 5b 30 03 04  	setrpc	zero, t1, 64
800017ec: 5b 40 32 02  	vblt	v3, v4, 0x8000180c <.LBB3_6>
800017f0: d7 80 11 a2  	vsrl.vv	v1, v1, v3
800017f4: 6f 00 00 03  	j	0x80001824 <.LBB3_7>

800017f8 <.LBB3_5>:
800017f8: d7 30 25 02  	vadd.vi	v1, v2, 10
800017fc: 93 02 f0 01  	li	t0, 31
80001800: d7 c0 12 26  	vand.vx	v1, v1, t0
80001804: d7 80 00 96  	vsll.vv	v1, v0, v1
80001808: 6f 00 c0 01  	j	0x80001824 <.LBB3_7>

8000180c <.LBB3_6>:
8000180c: 57 00 01 a2  	vsrl.vv	v0, v0, v2
80001810: 93 02 f0 01  	li	t0, 31
80001814: 57 c1 22 2e  	vxor.vx	v2, v2, t0
80001818: d7 b0 10 96  	vsll.vi	v1, v1, 1
8000181c: d7 00 11 96  	vsll.vv	v1, v1, v2
80001820: d7 80 00 2a  	vor.vv	v1, v0, v1

80001824 <.LBB3_7>:
80001824: 5b 20 00 00  	join	zero, zero, 0
80001828: 57 40 10 02  	vadd.vx	v0, v1, zero
8000182c: 83 20 c1 ff  	lw	ra, -4(sp)
80001830: 0b c0 00 04  	barrier	x0, x0, 1
80001834: 13 01 c1 ff  	addi	sp, sp, -4
80001838: 67 80 00 00  	ret

8000183c <__fixdfsi>:
8000183c: 13 01 41 00  	addi	sp, sp, 4
80001840: 23 2e 11 fe  	sw	ra, -4(sp)
80001844: 57 31 1a a2  	vsrl.vi	v2, v1, 20
80001848: 93 02 f0 7f  	li	t0, 2047
8000184c: d7 c1 22 26  	vand.vx	v3, v2, t0
80001850: 13 03 f0 3f  	li	t1, 1023
80001854: 57 42 03 5e  	<unknown>

80001858 <.Lpcrel_hi0>:
80001858: 17 03 00 00  	auipc	t1, 0
8000185c: 5b 30 03 0e  	setrpc	zero, t1, 224
80001860: 5b 76 32 00  	vbgeu	v3, v4, 0x8000186c <.LBB0_2>
80001864: 57 40 00 5e  	<unknown>
80001868: 6f 00 00 0d  	j	0x80001938 <.LBB0_8>

8000186c <.LBB0_2>:
8000186c: 93 02 10 be  	li	t0, -1055
80001870: d7 c1 32 02  	vadd.vx	v3, v3, t0
80001874: 13 03 f0 fd  	li	t1, -33
80001878: 57 42 03 5e  	<unknown>

8000187c <.Lpcrel_hi1>:
8000187c: 17 03 00 00  	auipc	t1, 0
80001880: 5b 30 c3 0b  	setrpc	zero, t1, 188
80001884: 5b ec 41 00  	vbltu	v4, v3, 0x8000189c <.LBB0_4>
80001888: 57 30 10 7e  	vmsgt.vi	v0, v1, 0
8000188c: b7 02 00 80  	lui	t0, 524288
80001890: d7 c0 02 5e  	<unknown>
80001894: 57 00 10 0a  	vsub.vv	v0, v1, v0
80001898: 6f 00 00 0a  	j	0x80001938 <.LBB0_8>

8000189c <.LBB0_4>:
8000189c: d7 42 00 5e  	<unknown>
800018a0: b7 02 10 00  	lui	t0, 256
800018a4: 93 82 f2 ff  	addi	t0, t0, -1
800018a8: d7 c1 12 26  	vand.vx	v3, v1, t0
800018ac: 57 c2 02 5e  	<unknown>
800018b0: 57 b3 0f 02  	vadd.vi	v6, v0, -1
800018b4: 57 00 60 6a  	vmsltu.vv	v0, v6, v0
800018b8: 57 00 30 02  	vadd.vv	v0, v3, v0
800018bc: d7 b1 60 02  	vadd.vi	v3, v6, 1
800018c0: 57 03 33 6a  	vmsltu.vv	v6, v3, v6
800018c4: 57 00 03 02  	vadd.vv	v0, v0, v6
800018c8: 57 00 02 02  	vadd.vv	v0, v0, v4
800018cc: 93 02 30 03  	li	t0, 51
800018d0: 57 c2 02 5e  	<unknown>
800018d4: 57 01 41 0a  	vsub.vv	v2, v4, v2
800018d8: 93 02 f0 03  	li	t0, 63
800018dc: 57 c1 22 26  	vand.vx	v2, v2, t0
800018e0: 93 02 00 fe  	li	t0, -32
800018e4: 57 c2 22 02  	vadd.vx	v4, v2, t0

800018e8 <.Lpcrel_hi2>:
800018e8: 17 03 00 00  	auipc	t1, 0
800018ec: 5b 30 03 05  	setrpc	zero, t1, 80
800018f0: 5b ce 42 00  	vblt	v4, v5, 0x8000190c <.LBB0_6>
800018f4: 57 00 02 a2  	vsrl.vv	v0, v0, v4
800018f8: 57 41 00 5e  	<unknown>

800018fc <.Lpcrel_hi3>:
800018fc: 17 03 00 00  	auipc	t1, 0
80001900: 5b 30 c3 03  	setrpc	zero, t1, 60
80001904: 5b 48 11 02  	vblt	v1, v2, 0x80001934 <.LBB0_7>
80001908: 6f 00 00 03  	j	0x80001938 <.LBB0_8>

8000190c <.LBB0_6>:
8000190c: d7 01 31 a2  	vsrl.vv	v3, v3, v2
80001910: 93 02 f0 01  	li	t0, 31
80001914: 57 c1 22 2e  	vxor.vx	v2, v2, t0
80001918: 57 b0 00 96  	vsll.vi	v0, v0, 1
8000191c: 57 00 01 96  	vsll.vv	v0, v0, v2
80001920: 57 00 30 2a  	vor.vv	v0, v3, v0
80001924: 57 41 00 5e  	<unknown>

80001928 <.Lpcrel_hi4>:
80001928: 17 03 00 00  	auipc	t1, 0
8000192c: 5b 30 03 01  	setrpc	zero, t1, 16
80001930: 5b 54 11 00  	vbge	v1, v2, 0x80001938 <.LBB0_8>

80001934 <.LBB0_7>:
80001934: 57 30 00 0e  	vrsub.vi	v0, v0, 0

80001938 <.LBB0_8>:
80001938: 5b 20 00 00  	join	zero, zero, 0
8000193c: 83 20 c1 ff  	lw	ra, -4(sp)
80001940: 0b c0 00 04  	barrier	x0, x0, 1
80001944: 13 01 c1 ff  	addi	sp, sp, -4
80001948: 67 80 00 00  	ret

8000194c <__ledf2>:
8000194c: 13 01 41 00  	addi	sp, sp, 4
80001950: 23 2e 11 fe  	sw	ra, -4(sp)
80001954: b7 02 00 80  	lui	t0, 524288
80001958: 93 82 f2 ff  	addi	t0, t0, -1
8000195c: 57 c2 12 26  	vand.vx	v4, v1, t0
80001960: d7 c2 02 5e  	<unknown>
80001964: b7 02 f0 7f  	lui	t0, 524032
80001968: 57 c3 02 5e  	<unknown>
8000196c: d7 82 32 26  	vand.vv	v5, v3, v5

80001970 <.Lpcrel_hi0>:
80001970: 17 03 00 00  	auipc	t1, 0
80001974: 5b 30 83 04  	setrpc	zero, t1, 72
80001978: 5b 02 43 02  	vbeq	v4, v6, 0x8000199c <.LBB0_3>
8000197c: 57 c3 02 5e  	<unknown>
80001980: 57 03 62 6a  	vmsltu.vv	v6, v6, v4
80001984: d7 c3 02 5e  	<unknown>

80001988 <.Lpcrel_hi1>:
80001988: 17 03 00 00  	auipc	t1, 0
8000198c: 5b 30 03 03  	setrpc	zero, t1, 48
80001990: 5b 90 53 02  	vbne	v5, v7, 0x800019b0 <.LBB0_4>

80001994 <.LBB0_2>:
80001994: d7 33 20 66  	vmsne.vi	v7, v2, 0
80001998: 6f 00 00 02  	j	0x800019b8 <.LBB0_5>

8000199c <.LBB0_3>:
8000199c: 57 33 00 66  	vmsne.vi	v6, v0, 0
800019a0: d7 c3 02 5e  	<unknown>

800019a4 <.Lpcrel_hi2>:
800019a4: 17 03 00 00  	auipc	t1, 0
800019a8: 5b 30 43 01  	setrpc	zero, t1, 20
800019ac: db 84 53 fe  	vbeq	v5, v7, 0x80001994 <.LBB0_2>

800019b0 <.LBB0_4>:
800019b0: d7 c3 02 5e  	<unknown>
800019b4: d7 83 72 6a  	vmsltu.vv	v7, v7, v5

800019b8 <.LBB0_5>:
800019b8: 5b 20 00 00  	join	zero, zero, 0
800019bc: 57 44 00 5e  	<unknown>
800019c0: 57 83 63 2a  	vor.vv	v6, v6, v7

800019c4 <.Lpcrel_hi3>:
800019c4: 17 03 00 00  	auipc	t1, 0
800019c8: 5b 30 83 0b  	setrpc	zero, t1, 184
800019cc: 5b 0a 64 00  	vbeq	v6, v8, 0x800019e0 <.LBB0_7>
800019d0: d7 40 00 5e  	<unknown>
800019d4: 93 02 10 00  	li	t0, 1
800019d8: 57 c0 02 5e  	<unknown>
800019dc: 6f 00 00 0a  	j	0x80001a7c <.LBB0_17>

800019e0 <.LBB0_7>:
800019e0: 57 43 00 5e  	<unknown>
800019e4: d7 03 20 2a  	vor.vv	v7, v2, v0
800019e8: 57 02 52 2a  	vor.vv	v4, v5, v4
800019ec: 57 02 72 2a  	vor.vv	v4, v7, v4

800019f0 <.Lpcrel_hi4>:
800019f0: 17 03 00 00  	auipc	t1, 0
800019f4: 5b 30 c3 08  	setrpc	zero, t1, 140
800019f8: 5b 0e 43 02  	vbeq	v4, v6, 0x80001a34 <.LBB0_11>
800019fc: 57 42 00 5e  	<unknown>
80001a00: d7 82 30 26  	vand.vv	v5, v3, v1

80001a04 <.Lpcrel_hi5>:
80001a04: 17 03 00 00  	auipc	t1, 0
80001a08: 5b 30 c3 06  	setrpc	zero, t1, 108
80001a0c: 5b 4a 52 02  	vblt	v5, v4, 0x80001a40 <.LBB0_12>
80001a10: 57 02 01 2e  	vxor.vv	v4, v0, v2
80001a14: d7 82 11 2e  	vxor.vv	v5, v1, v3
80001a18: 57 82 42 2a  	vor.vv	v4, v4, v5
80001a1c: 57 32 40 66  	vmsne.vi	v4, v4, 0

80001a20 <.Lpcrel_hi6>:
80001a20: 17 03 00 00  	auipc	t1, 0
80001a24: 5b 30 03 05  	setrpc	zero, t1, 80
80001a28: 5b 8e 11 02  	vbeq	v1, v3, 0x80001a64 <.LBB0_14>
80001a2c: 57 80 11 6e  	vmslt.vv	v0, v1, v3
80001a30: 6f 00 00 04  	j	0x80001a70 <.LBB0_16>

80001a34 <.LBB0_11>:
80001a34: 57 40 00 5e  	<unknown>
80001a38: d7 40 00 5e  	<unknown>
80001a3c: 6f 00 00 04  	j	0x80001a7c <.LBB0_17>

80001a40 <.LBB0_12>:
80001a40: 57 02 01 2e  	vxor.vv	v4, v0, v2
80001a44: d7 82 11 2e  	vxor.vv	v5, v1, v3
80001a48: 57 82 42 2a  	vor.vv	v4, v4, v5
80001a4c: 57 32 40 66  	vmsne.vi	v4, v4, 0

80001a50 <.Lpcrel_hi7>:
80001a50: 17 03 00 00  	auipc	t1, 0
80001a54: 5b 30 03 02  	setrpc	zero, t1, 32
80001a58: 5b 8a 11 00  	vbeq	v1, v3, 0x80001a6c <.LBB0_15>
80001a5c: 57 80 30 6e  	vmslt.vv	v0, v3, v1
80001a60: 6f 00 00 01  	j	0x80001a70 <.LBB0_16>

80001a64 <.LBB0_14>:
80001a64: 57 00 01 6a  	vmsltu.vv	v0, v0, v2
80001a68: 6f 00 80 00  	j	0x80001a70 <.LBB0_16>

80001a6c <.LBB0_15>:
80001a6c: 57 00 20 6a  	vmsltu.vv	v0, v2, v0

80001a70 <.LBB0_16>:
80001a70: 5b 20 00 00  	join	zero, zero, 0
80001a74: d7 30 00 0e  	vrsub.vi	v1, v0, 0
80001a78: 57 00 12 2a  	vor.vv	v0, v1, v4

80001a7c <.LBB0_17>:
80001a7c: 5b 20 00 00  	join	zero, zero, 0
80001a80: 83 20 c1 ff  	lw	ra, -4(sp)
80001a84: 0b c0 00 04  	barrier	x0, x0, 1
80001a88: 13 01 c1 ff  	addi	sp, sp, -4
80001a8c: 67 80 00 00  	ret

80001a90 <__ltdf2>:
80001a90: 13 01 41 00  	addi	sp, sp, 4
80001a94: 23 2e 11 fe  	sw	ra, -4(sp)
80001a98: b7 02 00 80  	lui	t0, 524288
80001a9c: 93 82 f2 ff  	addi	t0, t0, -1
80001aa0: 57 c2 12 26  	vand.vx	v4, v1, t0
80001aa4: d7 c2 02 5e  	<unknown>
80001aa8: b7 02 f0 7f  	lui	t0, 524032
80001aac: 57 c3 02 5e  	<unknown>
80001ab0: d7 82 32 26  	vand.vv	v5, v3, v5

80001ab4 <.Lpcrel_hi8>:
80001ab4: 17 03 00 00  	auipc	t1, 0
80001ab8: 5b 30 83 04  	setrpc	zero, t1, 72
80001abc: 5b 02 43 02  	vbeq	v4, v6, 0x80001ae0 <.LBB1_3>
80001ac0: 57 c3 02 5e  	<unknown>
80001ac4: 57 03 62 6a  	vmsltu.vv	v6, v6, v4
80001ac8: d7 c3 02 5e  	<unknown>

80001acc <.Lpcrel_hi9>:
80001acc: 17 03 00 00  	auipc	t1, 0
80001ad0: 5b 30 03 03  	setrpc	zero, t1, 48
80001ad4: 5b 90 53 02  	vbne	v5, v7, 0x80001af4 <.LBB1_4>

80001ad8 <.LBB1_2>:
80001ad8: d7 33 20 66  	vmsne.vi	v7, v2, 0
80001adc: 6f 00 00 02  	j	0x80001afc <.LBB1_5>

80001ae0 <.LBB1_3>:
80001ae0: 57 33 00 66  	vmsne.vi	v6, v0, 0
80001ae4: d7 c3 02 5e  	<unknown>

80001ae8 <.Lpcrel_hi10>:
80001ae8: 17 03 00 00  	auipc	t1, 0
80001aec: 5b 30 43 01  	setrpc	zero, t1, 20
80001af0: db 84 53 fe  	vbeq	v5, v7, 0x80001ad8 <.LBB1_2>

80001af4 <.LBB1_4>:
80001af4: d7 c3 02 5e  	<unknown>
80001af8: d7 83 72 6a  	vmsltu.vv	v7, v7, v5

80001afc <.LBB1_5>:
80001afc: 5b 20 00 00  	join	zero, zero, 0
80001b00: 57 44 00 5e  	<unknown>
80001b04: 57 83 63 2a  	vor.vv	v6, v6, v7

80001b08 <.Lpcrel_hi11>:
80001b08: 17 03 00 00  	auipc	t1, 0
80001b0c: 5b 30 83 0b  	setrpc	zero, t1, 184
80001b10: 5b 0a 64 00  	vbeq	v6, v8, 0x80001b24 <.LBB1_7>
80001b14: d7 40 00 5e  	<unknown>
80001b18: 93 02 10 00  	li	t0, 1
80001b1c: 57 c0 02 5e  	<unknown>
80001b20: 6f 00 00 0a  	j	0x80001bc0 <.LBB1_17>

80001b24 <.LBB1_7>:
80001b24: 57 43 00 5e  	<unknown>
80001b28: d7 03 20 2a  	vor.vv	v7, v2, v0
80001b2c: 57 02 52 2a  	vor.vv	v4, v5, v4
80001b30: 57 02 72 2a  	vor.vv	v4, v7, v4

80001b34 <.Lpcrel_hi12>:
80001b34: 17 03 00 00  	auipc	t1, 0
80001b38: 5b 30 c3 08  	setrpc	zero, t1, 140
80001b3c: 5b 0e 43 02  	vbeq	v4, v6, 0x80001b78 <.LBB1_11>
80001b40: 57 42 00 5e  	<unknown>
80001b44: d7 82 30 26  	vand.vv	v5, v3, v1

80001b48 <.Lpcrel_hi13>:
80001b48: 17 03 00 00  	auipc	t1, 0
80001b4c: 5b 30 c3 06  	setrpc	zero, t1, 108
80001b50: 5b 4a 52 02  	vblt	v5, v4, 0x80001b84 <.LBB1_12>
80001b54: 57 02 01 2e  	vxor.vv	v4, v0, v2
80001b58: d7 82 11 2e  	vxor.vv	v5, v1, v3
80001b5c: 57 82 42 2a  	vor.vv	v4, v4, v5
80001b60: 57 32 40 66  	vmsne.vi	v4, v4, 0

80001b64 <.Lpcrel_hi14>:
80001b64: 17 03 00 00  	auipc	t1, 0
80001b68: 5b 30 03 05  	setrpc	zero, t1, 80
80001b6c: 5b 8e 11 02  	vbeq	v1, v3, 0x80001ba8 <.LBB1_14>
80001b70: 57 80 11 6e  	vmslt.vv	v0, v1, v3
80001b74: 6f 00 00 04  	j	0x80001bb4 <.LBB1_16>

80001b78 <.LBB1_11>:
80001b78: 57 40 00 5e  	<unknown>
80001b7c: d7 40 00 5e  	<unknown>
80001b80: 6f 00 00 04  	j	0x80001bc0 <.LBB1_17>

80001b84 <.LBB1_12>:
80001b84: 57 02 01 2e  	vxor.vv	v4, v0, v2
80001b88: d7 82 11 2e  	vxor.vv	v5, v1, v3
80001b8c: 57 82 42 2a  	vor.vv	v4, v4, v5
80001b90: 57 32 40 66  	vmsne.vi	v4, v4, 0

80001b94 <.Lpcrel_hi15>:
80001b94: 17 03 00 00  	auipc	t1, 0
80001b98: 5b 30 03 02  	setrpc	zero, t1, 32
80001b9c: 5b 8a 11 00  	vbeq	v1, v3, 0x80001bb0 <.LBB1_15>
80001ba0: 57 80 30 6e  	vmslt.vv	v0, v3, v1
80001ba4: 6f 00 00 01  	j	0x80001bb4 <.LBB1_16>

80001ba8 <.LBB1_14>:
80001ba8: 57 00 01 6a  	vmsltu.vv	v0, v0, v2
80001bac: 6f 00 80 00  	j	0x80001bb4 <.LBB1_16>

80001bb0 <.LBB1_15>:
80001bb0: 57 00 20 6a  	vmsltu.vv	v0, v2, v0

80001bb4 <.LBB1_16>:
80001bb4: 5b 20 00 00  	join	zero, zero, 0
80001bb8: d7 30 00 0e  	vrsub.vi	v1, v0, 0
80001bbc: 57 00 12 2a  	vor.vv	v0, v1, v4

80001bc0 <.LBB1_17>:
80001bc0: 5b 20 00 00  	join	zero, zero, 0
80001bc4: 83 20 c1 ff  	lw	ra, -4(sp)
80001bc8: 0b c0 00 04  	barrier	x0, x0, 1
80001bcc: 13 01 c1 ff  	addi	sp, sp, -4
80001bd0: 67 80 00 00  	ret

80001bd4 <__nedf2>:
80001bd4: 13 01 41 00  	addi	sp, sp, 4
80001bd8: 23 2e 11 fe  	sw	ra, -4(sp)
80001bdc: b7 02 00 80  	lui	t0, 524288
80001be0: 93 82 f2 ff  	addi	t0, t0, -1
80001be4: 57 c2 12 26  	vand.vx	v4, v1, t0
80001be8: d7 c2 02 5e  	<unknown>
80001bec: b7 02 f0 7f  	lui	t0, 524032
80001bf0: 57 c3 02 5e  	<unknown>
80001bf4: d7 82 32 26  	vand.vv	v5, v3, v5

80001bf8 <.Lpcrel_hi16>:
80001bf8: 17 03 00 00  	auipc	t1, 0
80001bfc: 5b 30 83 04  	setrpc	zero, t1, 72
80001c00: 5b 02 43 02  	vbeq	v4, v6, 0x80001c24 <.LBB2_3>
80001c04: 57 c3 02 5e  	<unknown>
80001c08: 57 03 62 6a  	vmsltu.vv	v6, v6, v4
80001c0c: d7 c3 02 5e  	<unknown>

80001c10 <.Lpcrel_hi17>:
80001c10: 17 03 00 00  	auipc	t1, 0
80001c14: 5b 30 03 03  	setrpc	zero, t1, 48
80001c18: 5b 90 53 02  	vbne	v5, v7, 0x80001c38 <.LBB2_4>

80001c1c <.LBB2_2>:
80001c1c: d7 33 20 66  	vmsne.vi	v7, v2, 0
80001c20: 6f 00 00 02  	j	0x80001c40 <.LBB2_5>

80001c24 <.LBB2_3>:
80001c24: 57 33 00 66  	vmsne.vi	v6, v0, 0
80001c28: d7 c3 02 5e  	<unknown>

80001c2c <.Lpcrel_hi18>:
80001c2c: 17 03 00 00  	auipc	t1, 0
80001c30: 5b 30 43 01  	setrpc	zero, t1, 20
80001c34: db 84 53 fe  	vbeq	v5, v7, 0x80001c1c <.LBB2_2>

80001c38 <.LBB2_4>:
80001c38: d7 c3 02 5e  	<unknown>
80001c3c: d7 83 72 6a  	vmsltu.vv	v7, v7, v5

80001c40 <.LBB2_5>:
80001c40: 5b 20 00 00  	join	zero, zero, 0
80001c44: 57 44 00 5e  	<unknown>
80001c48: 57 83 63 2a  	vor.vv	v6, v6, v7

80001c4c <.Lpcrel_hi19>:
80001c4c: 17 03 00 00  	auipc	t1, 0
80001c50: 5b 30 83 0b  	setrpc	zero, t1, 184
80001c54: 5b 0a 64 00  	vbeq	v6, v8, 0x80001c68 <.LBB2_7>
80001c58: d7 40 00 5e  	<unknown>
80001c5c: 93 02 10 00  	li	t0, 1
80001c60: 57 c0 02 5e  	<unknown>
80001c64: 6f 00 00 0a  	j	0x80001d04 <.LBB2_17>

80001c68 <.LBB2_7>:
80001c68: 57 43 00 5e  	<unknown>
80001c6c: d7 03 20 2a  	vor.vv	v7, v2, v0
80001c70: 57 02 52 2a  	vor.vv	v4, v5, v4
80001c74: 57 02 72 2a  	vor.vv	v4, v7, v4

80001c78 <.Lpcrel_hi20>:
80001c78: 17 03 00 00  	auipc	t1, 0
80001c7c: 5b 30 c3 08  	setrpc	zero, t1, 140
80001c80: 5b 0e 43 02  	vbeq	v4, v6, 0x80001cbc <.LBB2_11>
80001c84: 57 42 00 5e  	<unknown>
80001c88: d7 82 30 26  	vand.vv	v5, v3, v1

80001c8c <.Lpcrel_hi21>:
80001c8c: 17 03 00 00  	auipc	t1, 0
80001c90: 5b 30 c3 06  	setrpc	zero, t1, 108
80001c94: 5b 4a 52 02  	vblt	v5, v4, 0x80001cc8 <.LBB2_12>
80001c98: 57 02 01 2e  	vxor.vv	v4, v0, v2
80001c9c: d7 82 11 2e  	vxor.vv	v5, v1, v3
80001ca0: 57 82 42 2a  	vor.vv	v4, v4, v5
80001ca4: 57 32 40 66  	vmsne.vi	v4, v4, 0

80001ca8 <.Lpcrel_hi22>:
80001ca8: 17 03 00 00  	auipc	t1, 0
80001cac: 5b 30 03 05  	setrpc	zero, t1, 80
80001cb0: 5b 8e 11 02  	vbeq	v1, v3, 0x80001cec <.LBB2_14>
80001cb4: 57 80 11 6e  	vmslt.vv	v0, v1, v3
80001cb8: 6f 00 00 04  	j	0x80001cf8 <.LBB2_16>

80001cbc <.LBB2_11>:
80001cbc: 57 40 00 5e  	<unknown>
80001cc0: d7 40 00 5e  	<unknown>
80001cc4: 6f 00 00 04  	j	0x80001d04 <.LBB2_17>

80001cc8 <.LBB2_12>:
80001cc8: 57 02 01 2e  	vxor.vv	v4, v0, v2
80001ccc: d7 82 11 2e  	vxor.vv	v5, v1, v3
80001cd0: 57 82 42 2a  	vor.vv	v4, v4, v5
80001cd4: 57 32 40 66  	vmsne.vi	v4, v4, 0

80001cd8 <.Lpcrel_hi23>:
80001cd8: 17 03 00 00  	auipc	t1, 0
80001cdc: 5b 30 03 02  	setrpc	zero, t1, 32
80001ce0: 5b 8a 11 00  	vbeq	v1, v3, 0x80001cf4 <.LBB2_15>
80001ce4: 57 80 30 6e  	vmslt.vv	v0, v3, v1
80001ce8: 6f 00 00 01  	j	0x80001cf8 <.LBB2_16>

80001cec <.LBB2_14>:
80001cec: 57 00 01 6a  	vmsltu.vv	v0, v0, v2
80001cf0: 6f 00 80 00  	j	0x80001cf8 <.LBB2_16>

80001cf4 <.LBB2_15>:
80001cf4: 57 00 20 6a  	vmsltu.vv	v0, v2, v0

80001cf8 <.LBB2_16>:
80001cf8: 5b 20 00 00  	join	zero, zero, 0
80001cfc: d7 30 00 0e  	vrsub.vi	v1, v0, 0
80001d00: 57 00 12 2a  	vor.vv	v0, v1, v4

80001d04 <.LBB2_17>:
80001d04: 5b 20 00 00  	join	zero, zero, 0
80001d08: 83 20 c1 ff  	lw	ra, -4(sp)
80001d0c: 0b c0 00 04  	barrier	x0, x0, 1
80001d10: 13 01 c1 ff  	addi	sp, sp, -4
80001d14: 67 80 00 00  	ret

80001d18 <__eqdf2>:
80001d18: 13 01 41 00  	addi	sp, sp, 4
80001d1c: 23 2e 11 fe  	sw	ra, -4(sp)
80001d20: b7 02 00 80  	lui	t0, 524288
80001d24: 93 82 f2 ff  	addi	t0, t0, -1
80001d28: 57 c2 12 26  	vand.vx	v4, v1, t0
80001d2c: d7 c2 02 5e  	<unknown>
80001d30: b7 02 f0 7f  	lui	t0, 524032
80001d34: 57 c3 02 5e  	<unknown>
80001d38: d7 82 32 26  	vand.vv	v5, v3, v5

80001d3c <.Lpcrel_hi24>:
80001d3c: 17 03 00 00  	auipc	t1, 0
80001d40: 5b 30 83 04  	setrpc	zero, t1, 72
80001d44: 5b 02 43 02  	vbeq	v4, v6, 0x80001d68 <.LBB3_3>
80001d48: 57 c3 02 5e  	<unknown>
80001d4c: 57 03 62 6a  	vmsltu.vv	v6, v6, v4
80001d50: d7 c3 02 5e  	<unknown>

80001d54 <.Lpcrel_hi25>:
80001d54: 17 03 00 00  	auipc	t1, 0
80001d58: 5b 30 03 03  	setrpc	zero, t1, 48
80001d5c: 5b 90 53 02  	vbne	v5, v7, 0x80001d7c <.LBB3_4>

80001d60 <.LBB3_2>:
80001d60: d7 33 20 66  	vmsne.vi	v7, v2, 0
80001d64: 6f 00 00 02  	j	0x80001d84 <.LBB3_5>

80001d68 <.LBB3_3>:
80001d68: 57 33 00 66  	vmsne.vi	v6, v0, 0
80001d6c: d7 c3 02 5e  	<unknown>

80001d70 <.Lpcrel_hi26>:
80001d70: 17 03 00 00  	auipc	t1, 0
80001d74: 5b 30 43 01  	setrpc	zero, t1, 20
80001d78: db 84 53 fe  	vbeq	v5, v7, 0x80001d60 <.LBB3_2>

80001d7c <.LBB3_4>:
80001d7c: d7 c3 02 5e  	<unknown>
80001d80: d7 83 72 6a  	vmsltu.vv	v7, v7, v5

80001d84 <.LBB3_5>:
80001d84: 5b 20 00 00  	join	zero, zero, 0
80001d88: 57 44 00 5e  	<unknown>
80001d8c: 57 83 63 2a  	vor.vv	v6, v6, v7

80001d90 <.Lpcrel_hi27>:
80001d90: 17 03 00 00  	auipc	t1, 0
80001d94: 5b 30 83 0b  	setrpc	zero, t1, 184
80001d98: 5b 0a 64 00  	vbeq	v6, v8, 0x80001dac <.LBB3_7>
80001d9c: d7 40 00 5e  	<unknown>
80001da0: 93 02 10 00  	li	t0, 1
80001da4: 57 c0 02 5e  	<unknown>
80001da8: 6f 00 00 0a  	j	0x80001e48 <.LBB3_17>

80001dac <.LBB3_7>:
80001dac: 57 43 00 5e  	<unknown>
80001db0: d7 03 20 2a  	vor.vv	v7, v2, v0
80001db4: 57 02 52 2a  	vor.vv	v4, v5, v4
80001db8: 57 02 72 2a  	vor.vv	v4, v7, v4

80001dbc <.Lpcrel_hi28>:
80001dbc: 17 03 00 00  	auipc	t1, 0
80001dc0: 5b 30 c3 08  	setrpc	zero, t1, 140
80001dc4: 5b 0e 43 02  	vbeq	v4, v6, 0x80001e00 <.LBB3_11>
80001dc8: 57 42 00 5e  	<unknown>
80001dcc: d7 82 30 26  	vand.vv	v5, v3, v1

80001dd0 <.Lpcrel_hi29>:
80001dd0: 17 03 00 00  	auipc	t1, 0
80001dd4: 5b 30 c3 06  	setrpc	zero, t1, 108
80001dd8: 5b 4a 52 02  	vblt	v5, v4, 0x80001e0c <.LBB3_12>
80001ddc: 57 02 01 2e  	vxor.vv	v4, v0, v2
80001de0: d7 82 11 2e  	vxor.vv	v5, v1, v3
80001de4: 57 82 42 2a  	vor.vv	v4, v4, v5
80001de8: 57 32 40 66  	vmsne.vi	v4, v4, 0

80001dec <.Lpcrel_hi30>:
80001dec: 17 03 00 00  	auipc	t1, 0
80001df0: 5b 30 03 05  	setrpc	zero, t1, 80
80001df4: 5b 8e 11 02  	vbeq	v1, v3, 0x80001e30 <.LBB3_14>
80001df8: 57 80 11 6e  	vmslt.vv	v0, v1, v3
80001dfc: 6f 00 00 04  	j	0x80001e3c <.LBB3_16>

80001e00 <.LBB3_11>:
80001e00: 57 40 00 5e  	<unknown>
80001e04: d7 40 00 5e  	<unknown>
80001e08: 6f 00 00 04  	j	0x80001e48 <.LBB3_17>

80001e0c <.LBB3_12>:
80001e0c: 57 02 01 2e  	vxor.vv	v4, v0, v2
80001e10: d7 82 11 2e  	vxor.vv	v5, v1, v3
80001e14: 57 82 42 2a  	vor.vv	v4, v4, v5
80001e18: 57 32 40 66  	vmsne.vi	v4, v4, 0

80001e1c <.Lpcrel_hi31>:
80001e1c: 17 03 00 00  	auipc	t1, 0
80001e20: 5b 30 03 02  	setrpc	zero, t1, 32
80001e24: 5b 8a 11 00  	vbeq	v1, v3, 0x80001e38 <.LBB3_15>
80001e28: 57 80 30 6e  	vmslt.vv	v0, v3, v1
80001e2c: 6f 00 00 01  	j	0x80001e3c <.LBB3_16>

80001e30 <.LBB3_14>:
80001e30: 57 00 01 6a  	vmsltu.vv	v0, v0, v2
80001e34: 6f 00 80 00  	j	0x80001e3c <.LBB3_16>

80001e38 <.LBB3_15>:
80001e38: 57 00 20 6a  	vmsltu.vv	v0, v2, v0

80001e3c <.LBB3_16>:
80001e3c: 5b 20 00 00  	join	zero, zero, 0
80001e40: d7 30 00 0e  	vrsub.vi	v1, v0, 0
80001e44: 57 00 12 2a  	vor.vv	v0, v1, v4

80001e48 <.LBB3_17>:
80001e48: 5b 20 00 00  	join	zero, zero, 0
80001e4c: 83 20 c1 ff  	lw	ra, -4(sp)
80001e50: 0b c0 00 04  	barrier	x0, x0, 1
80001e54: 13 01 c1 ff  	addi	sp, sp, -4
80001e58: 67 80 00 00  	ret

80001e5c <__gedf2>:
80001e5c: 13 01 41 00  	addi	sp, sp, 4
80001e60: 23 2e 11 fe  	sw	ra, -4(sp)
80001e64: b7 02 00 80  	lui	t0, 524288
80001e68: 93 82 f2 ff  	addi	t0, t0, -1
80001e6c: 57 c3 12 26  	vand.vx	v6, v1, t0
80001e70: 57 c2 02 5e  	<unknown>
80001e74: b7 02 f0 7f  	lui	t0, 524032
80001e78: d7 c2 02 5e  	<unknown>
80001e7c: d7 03 32 26  	vand.vv	v7, v3, v4

80001e80 <.Lpcrel_hi32>:
80001e80: 17 03 00 00  	auipc	t1, 0
80001e84: 5b 30 83 04  	setrpc	zero, t1, 72
80001e88: 5b 82 62 02  	vbeq	v6, v5, 0x80001eac <.LBB4_3>
80001e8c: 57 c2 02 5e  	<unknown>
80001e90: 57 02 43 6a  	vmsltu.vv	v4, v4, v6
80001e94: d7 c2 02 5e  	<unknown>

80001e98 <.Lpcrel_hi33>:
80001e98: 17 03 00 00  	auipc	t1, 0
80001e9c: 5b 30 03 03  	setrpc	zero, t1, 48
80001ea0: 5b 90 72 02  	vbne	v7, v5, 0x80001ec0 <.LBB4_4>

80001ea4 <.LBB4_2>:
80001ea4: d7 32 20 66  	vmsne.vi	v5, v2, 0
80001ea8: 6f 00 00 02  	j	0x80001ec8 <.LBB4_5>

80001eac <.LBB4_3>:
80001eac: 57 32 00 66  	vmsne.vi	v4, v0, 0
80001eb0: d7 c2 02 5e  	<unknown>

80001eb4 <.Lpcrel_hi34>:
80001eb4: 17 03 00 00  	auipc	t1, 0
80001eb8: 5b 30 43 01  	setrpc	zero, t1, 20
80001ebc: db 84 72 fe  	vbeq	v7, v5, 0x80001ea4 <.LBB4_2>

80001ec0 <.LBB4_4>:
80001ec0: d7 c2 02 5e  	<unknown>
80001ec4: d7 82 53 6a  	vmsltu.vv	v5, v5, v7

80001ec8 <.LBB4_5>:
80001ec8: 5b 20 00 00  	join	zero, zero, 0
80001ecc: 57 44 00 5e  	<unknown>
80001ed0: d7 84 42 2a  	vor.vv	v9, v4, v5
80001ed4: 93 02 f0 ff  	li	t0, -1
80001ed8: 57 c2 02 5e  	<unknown>
80001edc: d7 c2 02 5e  	<unknown>

80001ee0 <.Lpcrel_hi35>:
80001ee0: 17 03 00 00  	auipc	t1, 0
80001ee4: 5b 30 83 0a  	setrpc	zero, t1, 168
80001ee8: 5b 10 94 0a  	vbne	v9, v8, 0x80001f88 <.LBB4_16>
80001eec: 57 42 00 5e  	<unknown>
80001ef0: d7 02 20 2a  	vor.vv	v5, v2, v0
80001ef4: 57 03 73 2a  	vor.vv	v6, v7, v6
80001ef8: d7 02 53 2a  	vor.vv	v5, v5, v6

80001efc <.Lpcrel_hi36>:
80001efc: 17 03 00 00  	auipc	t1, 0
80001f00: 5b 30 c3 08  	setrpc	zero, t1, 140
80001f04: 5b 0e 52 02  	vbeq	v5, v4, 0x80001f40 <.LBB4_10>
80001f08: 57 42 00 5e  	<unknown>
80001f0c: d7 82 30 26  	vand.vv	v5, v3, v1

80001f10 <.Lpcrel_hi37>:
80001f10: 17 03 00 00  	auipc	t1, 0
80001f14: 5b 30 c3 06  	setrpc	zero, t1, 108
80001f18: 5b 4a 52 02  	vblt	v5, v4, 0x80001f4c <.LBB4_11>
80001f1c: 57 02 01 2e  	vxor.vv	v4, v0, v2
80001f20: d7 82 11 2e  	vxor.vv	v5, v1, v3
80001f24: 57 82 42 2a  	vor.vv	v4, v4, v5
80001f28: d7 32 40 66  	vmsne.vi	v5, v4, 0

80001f2c <.Lpcrel_hi38>:
80001f2c: 17 03 00 00  	auipc	t1, 0
80001f30: 5b 30 03 05  	setrpc	zero, t1, 80
80001f34: 5b 8e 11 02  	vbeq	v1, v3, 0x80001f70 <.LBB4_13>
80001f38: 57 80 11 6e  	vmslt.vv	v0, v1, v3
80001f3c: 6f 00 00 04  	j	0x80001f7c <.LBB4_15>

80001f40 <.LBB4_10>:
80001f40: d7 42 00 5e  	<unknown>
80001f44: 57 42 00 5e  	<unknown>
80001f48: 6f 00 00 04  	j	0x80001f88 <.LBB4_16>

80001f4c <.LBB4_11>:
80001f4c: 57 02 01 2e  	vxor.vv	v4, v0, v2
80001f50: d7 82 11 2e  	vxor.vv	v5, v1, v3
80001f54: 57 82 42 2a  	vor.vv	v4, v4, v5
80001f58: d7 32 40 66  	vmsne.vi	v5, v4, 0

80001f5c <.Lpcrel_hi39>:
80001f5c: 17 03 00 00  	auipc	t1, 0
80001f60: 5b 30 03 02  	setrpc	zero, t1, 32
80001f64: 5b 8a 11 00  	vbeq	v1, v3, 0x80001f78 <.LBB4_14>
80001f68: 57 80 30 6e  	vmslt.vv	v0, v3, v1
80001f6c: 6f 00 00 01  	j	0x80001f7c <.LBB4_15>

80001f70 <.LBB4_13>:
80001f70: 57 00 01 6a  	vmsltu.vv	v0, v0, v2
80001f74: 6f 00 80 00  	j	0x80001f7c <.LBB4_15>

80001f78 <.LBB4_14>:
80001f78: 57 00 20 6a  	vmsltu.vv	v0, v2, v0

80001f7c <.LBB4_15>:
80001f7c: 5b 20 00 00  	join	zero, zero, 0
80001f80: 57 32 00 0e  	vrsub.vi	v4, v0, 0
80001f84: d7 82 42 2a  	vor.vv	v5, v4, v5

80001f88 <.LBB4_16>:
80001f88: 5b 20 00 00  	join	zero, zero, 0
80001f8c: 57 40 50 02  	vadd.vx	v0, v5, zero
80001f90: d7 40 40 02  	vadd.vx	v1, v4, zero
80001f94: 83 20 c1 ff  	lw	ra, -4(sp)
80001f98: 0b c0 00 04  	barrier	x0, x0, 1
80001f9c: 13 01 c1 ff  	addi	sp, sp, -4
80001fa0: 67 80 00 00  	ret

80001fa4 <__gtdf2>:
80001fa4: 13 01 41 00  	addi	sp, sp, 4
80001fa8: 23 2e 11 fe  	sw	ra, -4(sp)
80001fac: b7 02 00 80  	lui	t0, 524288
80001fb0: 93 82 f2 ff  	addi	t0, t0, -1
80001fb4: 57 c3 12 26  	vand.vx	v6, v1, t0
80001fb8: 57 c2 02 5e  	<unknown>
80001fbc: b7 02 f0 7f  	lui	t0, 524032
80001fc0: d7 c2 02 5e  	<unknown>
80001fc4: d7 03 32 26  	vand.vv	v7, v3, v4

80001fc8 <.Lpcrel_hi40>:
80001fc8: 17 03 00 00  	auipc	t1, 0
80001fcc: 5b 30 83 04  	setrpc	zero, t1, 72
80001fd0: 5b 82 62 02  	vbeq	v6, v5, 0x80001ff4 <.LBB5_3>
80001fd4: 57 c2 02 5e  	<unknown>
80001fd8: 57 02 43 6a  	vmsltu.vv	v4, v4, v6
80001fdc: d7 c2 02 5e  	<unknown>

80001fe0 <.Lpcrel_hi41>:
80001fe0: 17 03 00 00  	auipc	t1, 0
80001fe4: 5b 30 03 03  	setrpc	zero, t1, 48
80001fe8: 5b 90 72 02  	vbne	v7, v5, 0x80002008 <.LBB5_4>

80001fec <.LBB5_2>:
80001fec: d7 32 20 66  	vmsne.vi	v5, v2, 0
80001ff0: 6f 00 00 02  	j	0x80002010 <.LBB5_5>

80001ff4 <.LBB5_3>:
80001ff4: 57 32 00 66  	vmsne.vi	v4, v0, 0
80001ff8: d7 c2 02 5e  	<unknown>

80001ffc <.Lpcrel_hi42>:
80001ffc: 17 03 00 00  	auipc	t1, 0
80002000: 5b 30 43 01  	setrpc	zero, t1, 20
80002004: db 84 72 fe  	vbeq	v7, v5, 0x80001fec <.LBB5_2>

80002008 <.LBB5_4>:
80002008: d7 c2 02 5e  	<unknown>
8000200c: d7 82 53 6a  	vmsltu.vv	v5, v5, v7

80002010 <.LBB5_5>:
80002010: 5b 20 00 00  	join	zero, zero, 0
80002014: 57 44 00 5e  	<unknown>
80002018: d7 84 42 2a  	vor.vv	v9, v4, v5
8000201c: 93 02 f0 ff  	li	t0, -1
80002020: 57 c2 02 5e  	<unknown>
80002024: d7 c2 02 5e  	<unknown>

80002028 <.Lpcrel_hi43>:
80002028: 17 03 00 00  	auipc	t1, 0
8000202c: 5b 30 83 0a  	setrpc	zero, t1, 168
80002030: 5b 10 94 0a  	vbne	v9, v8, 0x800020d0 <.LBB5_16>
80002034: 57 42 00 5e  	<unknown>
80002038: d7 02 20 2a  	vor.vv	v5, v2, v0
8000203c: 57 03 73 2a  	vor.vv	v6, v7, v6
80002040: d7 02 53 2a  	vor.vv	v5, v5, v6

80002044 <.Lpcrel_hi44>:
80002044: 17 03 00 00  	auipc	t1, 0
80002048: 5b 30 c3 08  	setrpc	zero, t1, 140
8000204c: 5b 0e 52 02  	vbeq	v5, v4, 0x80002088 <.LBB5_10>
80002050: 57 42 00 5e  	<unknown>
80002054: d7 82 30 26  	vand.vv	v5, v3, v1

80002058 <.Lpcrel_hi45>:
80002058: 17 03 00 00  	auipc	t1, 0
8000205c: 5b 30 c3 06  	setrpc	zero, t1, 108
80002060: 5b 4a 52 02  	vblt	v5, v4, 0x80002094 <.LBB5_11>
80002064: 57 02 01 2e  	vxor.vv	v4, v0, v2
80002068: d7 82 11 2e  	vxor.vv	v5, v1, v3
8000206c: 57 82 42 2a  	vor.vv	v4, v4, v5
80002070: d7 32 40 66  	vmsne.vi	v5, v4, 0

80002074 <.Lpcrel_hi46>:
80002074: 17 03 00 00  	auipc	t1, 0
80002078: 5b 30 03 05  	setrpc	zero, t1, 80
8000207c: 5b 8e 11 02  	vbeq	v1, v3, 0x800020b8 <.LBB5_13>
80002080: 57 80 11 6e  	vmslt.vv	v0, v1, v3
80002084: 6f 00 00 04  	j	0x800020c4 <.LBB5_15>

80002088 <.LBB5_10>:
80002088: d7 42 00 5e  	<unknown>
8000208c: 57 42 00 5e  	<unknown>
80002090: 6f 00 00 04  	j	0x800020d0 <.LBB5_16>

80002094 <.LBB5_11>:
80002094: 57 02 01 2e  	vxor.vv	v4, v0, v2
80002098: d7 82 11 2e  	vxor.vv	v5, v1, v3
8000209c: 57 82 42 2a  	vor.vv	v4, v4, v5
800020a0: d7 32 40 66  	vmsne.vi	v5, v4, 0

800020a4 <.Lpcrel_hi47>:
800020a4: 17 03 00 00  	auipc	t1, 0
800020a8: 5b 30 03 02  	setrpc	zero, t1, 32
800020ac: 5b 8a 11 00  	vbeq	v1, v3, 0x800020c0 <.LBB5_14>
800020b0: 57 80 30 6e  	vmslt.vv	v0, v3, v1
800020b4: 6f 00 00 01  	j	0x800020c4 <.LBB5_15>

800020b8 <.LBB5_13>:
800020b8: 57 00 01 6a  	vmsltu.vv	v0, v0, v2
800020bc: 6f 00 80 00  	j	0x800020c4 <.LBB5_15>

800020c0 <.LBB5_14>:
800020c0: 57 00 20 6a  	vmsltu.vv	v0, v2, v0

800020c4 <.LBB5_15>:
800020c4: 5b 20 00 00  	join	zero, zero, 0
800020c8: 57 32 00 0e  	vrsub.vi	v4, v0, 0
800020cc: d7 82 42 2a  	vor.vv	v5, v4, v5

800020d0 <.LBB5_16>:
800020d0: 5b 20 00 00  	join	zero, zero, 0
800020d4: 57 40 50 02  	vadd.vx	v0, v5, zero
800020d8: d7 40 40 02  	vadd.vx	v1, v4, zero
800020dc: 83 20 c1 ff  	lw	ra, -4(sp)
800020e0: 0b c0 00 04  	barrier	x0, x0, 1
800020e4: 13 01 c1 ff  	addi	sp, sp, -4
800020e8: 67 80 00 00  	ret

800020ec <__floatsidf>:
800020ec: 13 01 41 00  	addi	sp, sp, 4
800020f0: 23 2e 11 fe  	sw	ra, -4(sp)
800020f4: d7 40 00 5e  	<unknown>

800020f8 <.Lpcrel_hi0>:
800020f8: 17 03 00 00  	auipc	t1, 0
800020fc: 5b 30 c3 10  	setrpc	zero, t1, 268
80002100: 5b 8c 00 0a  	vbeq	v0, v1, 0x800021b8 <.LBB0_3>
80002104: 57 43 00 5e  	<unknown>
80002108: b7 02 00 80  	lui	t0, 524288
8000210c: d7 c0 02 26  	vand.vx	v1, v0, t0
80002110: 57 b1 0f a6  	vsra.vi	v2, v0, 31
80002114: 57 00 01 2e  	vxor.vv	v0, v0, v2
80002118: 57 00 01 0a  	vsub.vv	v0, v0, v2
8000211c: 57 b1 00 a2  	vsrl.vi	v2, v0, 1
80002120: d7 01 01 2a  	vor.vv	v3, v0, v2
80002124: 57 32 31 a2  	vsrl.vi	v4, v3, 2
80002128: d7 01 32 2a  	vor.vv	v3, v3, v4
8000212c: 57 32 32 a2  	vsrl.vi	v4, v3, 4
80002130: d7 01 32 2a  	vor.vv	v3, v3, v4
80002134: 57 32 34 a2  	vsrl.vi	v4, v3, 8
80002138: d7 01 32 2a  	vor.vv	v3, v3, v4
8000213c: 57 32 38 a2  	vsrl.vi	v4, v3, 16
80002140: d7 01 32 2a  	vor.vv	v3, v3, v4
80002144: d7 b1 3f 2e  	vnot.v	v3, v3
80002148: 57 b2 30 a2  	vsrl.vi	v4, v3, 1
8000214c: b7 52 55 55  	lui	t0, 349525
80002150: 93 82 52 55  	addi	t0, t0, 1365
80002154: 57 c2 42 26  	vand.vx	v4, v4, t0
80002158: d7 01 32 0a  	vsub.vv	v3, v3, v4
8000215c: b7 32 33 33  	lui	t0, 209715
80002160: 93 82 32 33  	addi	t0, t0, 819
80002164: 57 c2 32 26  	vand.vx	v4, v3, t0
80002168: d7 c2 02 5e  	<unknown>
8000216c: d7 31 31 a2  	vsrl.vi	v3, v3, 2
80002170: d7 81 32 26  	vand.vv	v3, v3, v5
80002174: d7 81 41 02  	vadd.vv	v3, v4, v3
80002178: 57 32 32 a2  	vsrl.vi	v4, v3, 4
8000217c: d7 01 32 02  	vadd.vv	v3, v3, v4
80002180: b7 12 0f 0f  	lui	t0, 61681
80002184: 93 82 f2 f0  	addi	t0, t0, -241
80002188: d7 c1 32 26  	vand.vx	v3, v3, t0
8000218c: b7 02 01 01  	lui	t0, 4112
80002190: 93 82 12 10  	addi	t0, t0, 257
80002194: d7 e1 32 96  	vmul.vx	v3, v3, t0
80002198: d7 31 3c a2  	vsrl.vi	v3, v3, 24
8000219c: 57 b2 3a 02  	vadd.vi	v4, v3, -11
800021a0: 8b 82 51 01  	vadd12.vi	v5, v3, 21

800021a4 <.Lpcrel_hi1>:
800021a4: 17 03 00 00  	auipc	t1, 0
800021a8: 5b 30 c3 02  	setrpc	zero, t1, 44
800021ac: 5b 4c 43 00  	vblt	v4, v6, 0x800021c4 <.LBB0_4>
800021b0: 57 01 02 96  	vsll.vv	v2, v0, v4
800021b4: 6f 00 c0 01  	j	0x800021d0 <.LBB0_5>

800021b8 <.LBB0_3>:
800021b8: 57 40 00 5e  	<unknown>
800021bc: d7 40 00 5e  	<unknown>
800021c0: 6f 00 40 04  	j	0x80002204 <.LBB0_6>

800021c4 <.LBB0_4>:
800021c4: 93 02 f0 01  	li	t0, 31
800021c8: 57 c3 52 2e  	vxor.vx	v6, v5, t0
800021cc: 57 01 23 a2  	vsrl.vv	v2, v2, v6

800021d0 <.LBB0_5>:
800021d0: 5b 20 00 00  	join	zero, zero, 0
800021d4: 57 80 02 96  	vsll.vv	v0, v0, v5
800021d8: 57 b2 4f 76  	vmsle.vi	v4, v4, -1
800021dc: 57 32 40 0e  	vrsub.vi	v4, v4, 0
800021e0: 57 00 40 26  	vand.vv	v0, v4, v0
800021e4: b7 02 10 00  	lui	t0, 256
800021e8: 57 c1 22 2e  	vxor.vx	v2, v2, t0
800021ec: 93 02 e0 41  	li	t0, 1054
800021f0: 57 c2 02 5e  	<unknown>
800021f4: d7 81 41 0a  	vsub.vv	v3, v4, v3
800021f8: d7 31 3a 96  	vsll.vi	v3, v3, 20
800021fc: 57 81 21 02  	vadd.vv	v2, v2, v3
80002200: d7 80 20 2a  	vor.vv	v1, v2, v1

80002204 <.LBB0_6>:
80002204: 5b 20 00 00  	join	zero, zero, 0
80002208: 83 20 c1 ff  	lw	ra, -4(sp)
8000220c: 0b c0 00 04  	barrier	x0, x0, 1
80002210: 13 01 c1 ff  	addi	sp, sp, -4
80002214: 67 80 00 00  	ret

80002218 <__adddf3>:
80002218: 13 01 41 00  	addi	sp, sp, 4
8000221c: 23 2e 11 fe  	sw	ra, -4(sp)
80002220: 57 43 00 5e  	<unknown>
80002224: b7 02 00 80  	lui	t0, 524288
80002228: 93 82 f2 ff  	addi	t0, t0, -1
8000222c: 57 c2 02 5e  	<unknown>
80002230: d7 c2 12 26  	vand.vx	v5, v1, t0
80002234: 57 02 32 26  	vand.vv	v4, v3, v4
80002238: b7 03 10 80  	lui	t2, 524544

8000223c <.Lpcrel_hi0>:
8000223c: 17 03 00 00  	auipc	t1, 0
80002240: 5b 30 03 05  	setrpc	zero, t1, 80
80002244: 5b 04 53 02  	vbeq	v5, v6, 0x8000226c <.LBB0_3>
80002248: 57 c3 03 5e  	<unknown>
8000224c: d7 c3 53 02  	vadd.vx	v7, v5, t2
80002250: 57 03 73 6a  	vmsltu.vv	v6, v7, v6
80002254: d7 43 00 5e  	<unknown>

80002258 <.Lpcrel_hi1>:
80002258: 17 03 00 00  	auipc	t1, 0
8000225c: 5b 30 43 03  	setrpc	zero, t1, 52
80002260: 5b 90 43 02  	vbne	v4, v7, 0x80002280 <.LBB0_4>

80002264 <.LBB0_2>:
80002264: d7 33 20 62  	vmseq.vi	v7, v2, 0
80002268: 6f 00 40 02  	j	0x8000228c <.LBB0_5>

8000226c <.LBB0_3>:
8000226c: 57 33 00 62  	vmseq.vi	v6, v0, 0
80002270: d7 43 00 5e  	<unknown>

80002274 <.Lpcrel_hi2>:
80002274: 17 03 00 00  	auipc	t1, 0
80002278: 5b 30 83 01  	setrpc	zero, t1, 24
8000227c: db 84 43 fe  	vbeq	v4, v7, 0x80002264 <.LBB0_2>

80002280 <.LBB0_4>:
80002280: d7 c3 03 5e  	<unknown>
80002284: 57 c4 43 02  	vadd.vx	v8, v4, t2
80002288: d7 83 83 6a  	vmsltu.vv	v7, v8, v7

8000228c <.LBB0_5>:
8000228c: 5b 20 00 00  	join	zero, zero, 0
80002290: 57 44 00 5e  	<unknown>
80002294: 57 83 63 2a  	vor.vv	v6, v6, v7

80002298 <.Lpcrel_hi3>:
80002298: 17 13 00 00  	auipc	t1, 1
8000229c: 5b 30 c3 8a  	setrpc	zero, t1, -1876
800022a0: 5b 04 64 14  	vbeq	v6, v8, 0x800023e8 <.Lpcrel_hi15>
800022a4: 37 03 f0 7f  	lui	t1, 524032
800022a8: 57 43 03 5e  	<unknown>

800022ac <.Lpcrel_hi4>:
800022ac: 17 13 00 00  	auipc	t1, 1
800022b0: 5b 30 83 89  	setrpc	zero, t1, -1896
800022b4: 5b 08 53 0a  	vbeq	v5, v6, 0x80002364 <.LBB0_14>
800022b8: 57 33 5a a2  	vsrl.vi	v6, v5, 20
800022bc: 13 03 f0 7f  	li	t1, 2047
800022c0: 57 43 63 6a  	vmsltu.vx	v6, v6, t1
800022c4: d7 43 00 5e  	<unknown>

800022c8 <.Lpcrel_hi5>:
800022c8: 17 13 00 00  	auipc	t1, 1
800022cc: 5b 30 c3 87  	setrpc	zero, t1, -1924
800022d0: 5b 84 63 0a  	vbeq	v6, v7, 0x80002378 <.LBB0_15>

800022d4 <.LBB0_8>:
800022d4: 37 03 f0 7f  	lui	t1, 524032
800022d8: 57 43 03 5e  	<unknown>

800022dc <.Lpcrel_hi6>:
800022dc: 17 13 00 00  	auipc	t1, 1
800022e0: 5b 30 83 86  	setrpc	zero, t1, -1944
800022e4: 5b 02 43 0a  	vbeq	v4, v6, 0x80002388 <.LBB0_16>
800022e8: 57 33 4a a2  	vsrl.vi	v6, v4, 20
800022ec: 13 03 f0 7f  	li	t1, 2047
800022f0: 57 43 63 6a  	vmsltu.vx	v6, v6, t1
800022f4: d7 43 00 5e  	<unknown>

800022f8 <.Lpcrel_hi7>:
800022f8: 17 13 00 00  	auipc	t1, 1
800022fc: 5b 30 c3 84  	setrpc	zero, t1, -1972
80002300: 5b 8e 63 08  	vbeq	v6, v7, 0x8000239c <.LBB0_17>

80002304 <.LBB0_10>:
80002304: 57 43 00 5e  	<unknown>
80002308: 37 03 f0 7f  	lui	t1, 524032
8000230c: d7 43 53 2e  	vxor.vx	v7, v5, t1
80002310: d7 83 03 2a  	vor.vv	v7, v0, v7

80002314 <.Lpcrel_hi8>:
80002314: 17 13 00 00  	auipc	t1, 1
80002318: 5b 30 03 83  	setrpc	zero, t1, -2000
8000231c: 5b 14 73 08  	vbne	v7, v6, 0x800023a4 <.LBB0_18>
80002320: 57 42 00 5e  	<unknown>
80002324: 57 01 20 2e  	vxor.vv	v2, v2, v0
80002328: d7 81 30 2e  	vxor.vv	v3, v3, v1
8000232c: b7 02 00 80  	lui	t0, 524288
80002330: d7 c1 32 2e  	vxor.vx	v3, v3, t0
80002334: d7 81 21 2a  	vor.vv	v3, v2, v3
80002338: 57 31 30 62  	vmseq.vi	v2, v3, 0

8000233c <.Lpcrel_hi9>:
8000233c: 17 03 00 00  	auipc	t1, 0
80002340: 5b 30 43 01  	setrpc	zero, t1, 20
80002344: 5b 16 32 00  	vbne	v3, v4, 0x80002350 <.LBB0_13>
80002348: b7 02 f8 7f  	lui	t0, 524160
8000234c: d7 c0 02 5e  	<unknown>

80002350 <.LBB0_13>:
80002350: 5b 20 00 00  	join	zero, zero, 0
80002354: 57 b1 2f 02  	vadd.vi	v2, v2, -1
80002358: 57 01 20 26  	vand.vv	v2, v2, v0
8000235c: d7 41 10 02  	vadd.vx	v3, v1, zero
80002360: 6f 00 40 7e  	j	0x80002b44 <.LBB0_82>

80002364 <.LBB0_14>:
80002364: 57 33 00 62  	vmseq.vi	v6, v0, 0
80002368: d7 43 00 5e  	<unknown>

8000236c <.Lpcrel_hi10>:
8000236c: 17 03 00 00  	auipc	t1, 0
80002370: 5b 30 83 7d  	setrpc	zero, t1, 2008
80002374: db 90 63 f6  	vbne	v6, v7, 0x800022d4 <.LBB0_8>

80002378 <.LBB0_15>:
80002378: b7 02 08 00  	lui	t0, 128
8000237c: d7 c1 12 2a  	vor.vx	v3, v1, t0
80002380: 57 41 00 02  	vadd.vx	v2, v0, zero
80002384: 6f 00 00 7c  	j	0x80002b44 <.LBB0_82>

80002388 <.LBB0_16>:
80002388: 57 33 20 62  	vmseq.vi	v6, v2, 0
8000238c: d7 43 00 5e  	<unknown>

80002390 <.Lpcrel_hi11>:
80002390: 17 03 00 00  	auipc	t1, 0
80002394: 5b 30 43 7b  	setrpc	zero, t1, 1972
80002398: db 96 63 f6  	vbne	v6, v7, 0x80002304 <.LBB0_10>

8000239c <.LBB0_17>:
8000239c: b7 02 08 00  	lui	t0, 128
800023a0: 6f 00 40 59  	j	0x80002934 <.LBB0_67>

800023a4 <.LBB0_18>:
800023a4: 57 43 00 5e  	<unknown>
800023a8: 37 03 f0 7f  	lui	t1, 524032
800023ac: d7 43 43 2e  	vxor.vx	v7, v4, t1
800023b0: d7 83 23 2a  	vor.vv	v7, v2, v7

800023b4 <.Lpcrel_hi12>:
800023b4: 17 03 00 00  	auipc	t1, 0
800023b8: 5b 30 03 79  	setrpc	zero, t1, 1936
800023bc: 5b 04 73 78  	vbeq	v7, v6, 0x80002b44 <.LBB0_82>
800023c0: 57 43 00 5e  	<unknown>
800023c4: d7 83 02 2a  	vor.vv	v7, v0, v5

800023c8 <.Lpcrel_hi13>:
800023c8: 17 03 00 00  	auipc	t1, 0
800023cc: 5b 30 c3 77  	setrpc	zero, t1, 1916
800023d0: db 08 73 04  	vbeq	v7, v6, 0x80002c20 <.LBB0_88>
800023d4: 57 43 00 5e  	<unknown>
800023d8: d7 03 22 2a  	vor.vv	v7, v2, v4

800023dc <.Lpcrel_hi14>:
800023dc: 17 03 00 00  	auipc	t1, 0
800023e0: 5b 30 83 76  	setrpc	zero, t1, 1896
800023e4: db 08 73 06  	vbeq	v7, v6, 0x80002c54 <.LBB0_92>

800023e8 <.Lpcrel_hi15>:
800023e8: 17 03 00 00  	auipc	t1, 0
800023ec: 5b 30 83 01  	setrpc	zero, t1, 24
800023f0: 5b 86 42 00  	vbeq	v4, v5, 0x800023fc <.LBB0_23>
800023f4: 57 03 52 6a  	vmsltu.vv	v6, v5, v4
800023f8: 6f 00 80 00  	j	0x80002400 <.LBB0_24>

800023fc <.LBB0_23>:
800023fc: 57 03 01 6a  	vmsltu.vv	v6, v0, v2

80002400 <.LBB0_24>:
80002400: 5b 20 00 00  	join	zero, zero, 0
80002404: d7 42 00 5e  	<unknown>
80002408: 57 42 00 02  	vadd.vx	v4, v0, zero

8000240c <.Lpcrel_hi16>:
8000240c: 17 03 00 00  	auipc	t1, 0
80002410: 5b 30 03 01  	setrpc	zero, t1, 16
80002414: 5b 94 62 00  	vbne	v6, v5, 0x8000241c <.LBB0_26>
80002418: 57 42 20 02  	vadd.vx	v4, v2, zero

8000241c <.LBB0_26>:
8000241c: 5b 20 00 00  	join	zero, zero, 0
80002420: d7 43 00 5e  	<unknown>
80002424: d7 42 10 02  	vadd.vx	v5, v1, zero

80002428 <.Lpcrel_hi17>:
80002428: 17 03 00 00  	auipc	t1, 0
8000242c: 5b 30 03 01  	setrpc	zero, t1, 16
80002430: 5b 94 63 00  	vbne	v6, v7, 0x80002438 <.LBB0_28>
80002434: d7 42 30 02  	vadd.vx	v5, v3, zero

80002438 <.LBB0_28>:
80002438: 5b 20 00 00  	join	zero, zero, 0
8000243c: d7 43 00 5e  	<unknown>
80002440: b7 03 10 00  	lui	t2, 256

80002444 <.Lpcrel_hi18>:
80002444: 17 03 00 00  	auipc	t1, 0
80002448: 5b 30 03 01  	setrpc	zero, t1, 16
8000244c: 5b 94 63 00  	vbne	v6, v7, 0x80002454 <.LBB0_30>
80002450: 57 41 00 02  	vadd.vx	v2, v0, zero

80002454 <.LBB0_30>:
80002454: 5b 20 00 00  	join	zero, zero, 0
80002458: 57 40 00 5e  	<unknown>
8000245c: 93 83 f3 ff  	addi	t2, t2, -1

80002460 <.Lpcrel_hi19>:
80002460: 17 03 00 00  	auipc	t1, 0
80002464: 5b 30 03 01  	setrpc	zero, t1, 16
80002468: 5b 14 60 00  	vbne	v6, v0, 0x80002470 <.LBB0_32>
8000246c: d7 41 10 02  	vadd.vx	v3, v1, zero

80002470 <.LBB0_32>:
80002470: 5b 20 00 00  	join	zero, zero, 0
80002474: 57 43 00 5e  	<unknown>
80002478: 57 30 3a a2  	vsrl.vi	v0, v3, 20
8000247c: 13 03 f0 7f  	li	t1, 2047
80002480: 57 40 03 26  	vand.vx	v0, v0, t1
80002484: d7 40 03 5e  	<unknown>
80002488: d7 33 5a a2  	vsrl.vi	v7, v5, 20
8000248c: d7 83 70 26  	vand.vv	v7, v7, v1
80002490: 57 c4 03 5e  	<unknown>
80002494: d7 c0 33 26  	vand.vx	v1, v3, t2

80002498 <.Lpcrel_hi20>:
80002498: 17 03 00 00  	auipc	t1, 0
8000249c: 5b 30 83 16  	setrpc	zero, t1, 360
800024a0: 5b 06 03 00  	vbeq	v0, v6, 0x800024ac <.LBB0_34>
800024a4: 57 43 20 02  	vadd.vx	v6, v2, zero
800024a8: 6f 00 80 15  	j	0x80002600 <.LBB0_41>

800024ac <.LBB0_34>:
800024ac: 57 43 00 5e  	<unknown>
800024b0: 57 b0 20 a2  	vsrl.vi	v0, v2, 1
800024b4: 37 53 55 55  	lui	t1, 349525
800024b8: 13 06 53 55  	addi	a2, t1, 1365
800024bc: 37 33 33 33  	lui	t1, 209715
800024c0: 93 05 33 33  	addi	a1, t1, 819
800024c4: 37 13 0f 0f  	lui	t1, 61681
800024c8: 13 05 f3 f0  	addi	a0, t1, -241
800024cc: 37 03 01 01  	lui	t1, 4112
800024d0: 93 04 13 10  	addi	s1, t1, 257

800024d4 <.Lpcrel_hi21>:
800024d4: 17 03 00 00  	auipc	t1, 0
800024d8: 5b 30 03 0d  	setrpc	zero, t1, 208
800024dc: 5b 14 13 06  	vbne	v1, v6, 0x80002544 <.LBB0_36>
800024e0: 57 03 20 2a  	vor.vv	v6, v2, v0
800024e4: d7 34 61 a2  	vsrl.vi	v9, v6, 2
800024e8: 57 83 64 2a  	vor.vv	v6, v6, v9
800024ec: d7 34 62 a2  	vsrl.vi	v9, v6, 4
800024f0: 57 83 64 2a  	vor.vv	v6, v6, v9
800024f4: d7 34 64 a2  	vsrl.vi	v9, v6, 8
800024f8: 57 83 64 2a  	vor.vv	v6, v6, v9
800024fc: d7 34 68 a2  	vsrl.vi	v9, v6, 16
80002500: 57 83 64 2a  	vor.vv	v6, v6, v9
80002504: 57 b3 6f 2e  	vnot.v	v6, v6
80002508: d7 b4 60 a2  	vsrl.vi	v9, v6, 1
8000250c: d7 44 96 26  	vand.vx	v9, v9, a2
80002510: 57 83 64 0a  	vsub.vv	v6, v6, v9
80002514: d7 c4 05 5e  	<unknown>
80002518: 57 c5 65 26  	vand.vx	v10, v6, a1
8000251c: 57 33 61 a2  	vsrl.vi	v6, v6, 2
80002520: 57 83 64 26  	vand.vv	v6, v6, v9
80002524: 57 03 a3 02  	vadd.vv	v6, v10, v6
80002528: d7 34 62 a2  	vsrl.vi	v9, v6, 4
8000252c: 57 83 64 02  	vadd.vv	v6, v6, v9
80002530: 57 43 65 26  	vand.vx	v6, v6, a0
80002534: 57 e3 64 96  	vmul.vx	v6, v6, s1
80002538: 57 33 6c a2  	vsrl.vi	v6, v6, 24
8000253c: 8b 04 03 02  	vadd12.vi	v9, v6, 32
80002540: 6f 00 40 06  	j	0x800025a4 <.LBB0_37>

80002544 <.LBB0_36>:
80002544: 57 b3 10 a2  	vsrl.vi	v6, v1, 1
80002548: 57 03 13 2a  	vor.vv	v6, v1, v6
8000254c: d7 34 61 a2  	vsrl.vi	v9, v6, 2
80002550: 57 83 64 2a  	vor.vv	v6, v6, v9
80002554: d7 34 62 a2  	vsrl.vi	v9, v6, 4
80002558: 57 83 64 2a  	vor.vv	v6, v6, v9
8000255c: d7 34 64 a2  	vsrl.vi	v9, v6, 8
80002560: 57 83 64 2a  	vor.vv	v6, v6, v9
80002564: d7 34 68 a2  	vsrl.vi	v9, v6, 16
80002568: 57 83 64 2a  	vor.vv	v6, v6, v9
8000256c: 57 b3 6f 2e  	vnot.v	v6, v6
80002570: d7 b4 60 a2  	vsrl.vi	v9, v6, 1
80002574: d7 44 96 26  	vand.vx	v9, v9, a2
80002578: 57 83 64 0a  	vsub.vv	v6, v6, v9
8000257c: d7 c4 05 5e  	<unknown>
80002580: 57 c5 65 26  	vand.vx	v10, v6, a1
80002584: 57 33 61 a2  	vsrl.vi	v6, v6, 2
80002588: 57 83 64 26  	vand.vv	v6, v6, v9
8000258c: 57 03 a3 02  	vadd.vv	v6, v10, v6
80002590: d7 34 62 a2  	vsrl.vi	v9, v6, 4
80002594: 57 83 64 02  	vadd.vv	v6, v6, v9
80002598: 57 43 65 26  	vand.vx	v6, v6, a0
8000259c: 57 e3 64 96  	vmul.vx	v6, v6, s1
800025a0: d7 34 6c a2  	vsrl.vi	v9, v6, 24

800025a4 <.LBB0_37>:
800025a4: 5b 20 00 00  	join	zero, zero, 0
800025a8: d7 45 00 5e  	<unknown>
800025ac: 0b 83 54 03  	vadd12.vi	v6, v9, 53
800025b0: 13 03 f0 03  	li	t1, 63
800025b4: 57 43 63 26  	vand.vx	v6, v6, t1
800025b8: 13 03 00 fe  	li	t1, -32
800025bc: 57 45 63 02  	vadd.vx	v10, v6, t1

800025c0 <.Lpcrel_hi22>:
800025c0: 17 03 00 00  	auipc	t1, 0
800025c4: 5b 30 83 02  	setrpc	zero, t1, 40
800025c8: 5b c6 a5 00  	vblt	v10, v11, 0x800025d4 <.LBB0_39>
800025cc: d7 00 25 96  	vsll.vv	v1, v2, v10
800025d0: 6f 00 80 01  	j	0x800025e8 <.LBB0_40>

800025d4 <.LBB0_39>:
800025d4: d7 00 13 96  	vsll.vv	v1, v1, v6
800025d8: 13 03 f0 01  	li	t1, 31
800025dc: d7 45 63 2e  	vxor.vx	v11, v6, t1
800025e0: 57 80 05 a2  	vsrl.vv	v0, v0, v11
800025e4: d7 00 10 2a  	vor.vv	v1, v1, v0

800025e8 <.LBB0_40>:
800025e8: 5b 20 00 00  	join	zero, zero, 0
800025ec: 57 00 23 96  	vsll.vv	v0, v2, v6
800025f0: 57 b3 af 76  	vmsle.vi	v6, v10, -1
800025f4: 57 33 60 0e  	vrsub.vi	v6, v6, 0
800025f8: 57 03 60 26  	vand.vv	v6, v6, v0
800025fc: 57 30 96 0e  	vrsub.vi	v0, v9, 12

80002600 <.LBB0_41>:
80002600: 5b 20 00 00  	join	zero, zero, 0
80002604: d7 44 00 5e  	<unknown>
80002608: 57 04 54 26  	vand.vv	v8, v5, v8

8000260c <.Lpcrel_hi23>:
8000260c: 17 03 00 00  	auipc	t1, 0
80002610: 5b 30 03 16  	setrpc	zero, t1, 352
80002614: 5b 9c 74 14  	vbne	v7, v9, 0x8000276c <.LBB0_49>
80002618: d7 44 00 5e  	<unknown>
8000261c: d7 b3 40 a2  	vsrl.vi	v7, v4, 1
80002620: 37 53 55 55  	lui	t1, 349525
80002624: 13 06 53 55  	addi	a2, t1, 1365
80002628: 37 33 33 33  	lui	t1, 209715
8000262c: 93 05 33 33  	addi	a1, t1, 819
80002630: 37 13 0f 0f  	lui	t1, 61681
80002634: 13 05 f3 f0  	addi	a0, t1, -241
80002638: 37 03 01 01  	lui	t1, 4112
8000263c: 93 04 13 10  	addi	s1, t1, 257

80002640 <.Lpcrel_hi24>:
80002640: 17 03 00 00  	auipc	t1, 0
80002644: 5b 30 03 0d  	setrpc	zero, t1, 208
80002648: 5b 94 84 06  	vbne	v8, v9, 0x800026b0 <.LBB0_44>
8000264c: d7 84 43 2a  	vor.vv	v9, v4, v7
80002650: 57 35 91 a2  	vsrl.vi	v10, v9, 2
80002654: d7 04 95 2a  	vor.vv	v9, v9, v10
80002658: 57 35 92 a2  	vsrl.vi	v10, v9, 4
8000265c: d7 04 95 2a  	vor.vv	v9, v9, v10
80002660: 57 35 94 a2  	vsrl.vi	v10, v9, 8
80002664: d7 04 95 2a  	vor.vv	v9, v9, v10
80002668: 57 35 98 a2  	vsrl.vi	v10, v9, 16
8000266c: d7 04 95 2a  	vor.vv	v9, v9, v10
80002670: d7 b4 9f 2e  	vnot.v	v9, v9
80002674: 57 b5 90 a2  	vsrl.vi	v10, v9, 1
80002678: 57 45 a6 26  	vand.vx	v10, v10, a2
8000267c: d7 04 95 0a  	vsub.vv	v9, v9, v10
80002680: 57 c5 05 5e  	<unknown>
80002684: d7 c5 95 26  	vand.vx	v11, v9, a1
80002688: d7 34 91 a2  	vsrl.vi	v9, v9, 2
8000268c: d7 04 95 26  	vand.vv	v9, v9, v10
80002690: d7 84 b4 02  	vadd.vv	v9, v11, v9
80002694: 57 35 92 a2  	vsrl.vi	v10, v9, 4
80002698: d7 04 95 02  	vadd.vv	v9, v9, v10
8000269c: d7 44 95 26  	vand.vx	v9, v9, a0
800026a0: d7 e4 94 96  	vmul.vx	v9, v9, s1
800026a4: d7 34 9c a2  	vsrl.vi	v9, v9, 24
800026a8: 8b 84 04 02  	vadd12.vi	v9, v9, 32
800026ac: 6f 00 40 06  	j	0x80002710 <.LBB0_45>

800026b0 <.LBB0_44>:
800026b0: d7 b4 80 a2  	vsrl.vi	v9, v8, 1
800026b4: d7 84 84 2a  	vor.vv	v9, v8, v9
800026b8: 57 35 91 a2  	vsrl.vi	v10, v9, 2
800026bc: d7 04 95 2a  	vor.vv	v9, v9, v10
800026c0: 57 35 92 a2  	vsrl.vi	v10, v9, 4
800026c4: d7 04 95 2a  	vor.vv	v9, v9, v10
800026c8: 57 35 94 a2  	vsrl.vi	v10, v9, 8
800026cc: d7 04 95 2a  	vor.vv	v9, v9, v10
800026d0: 57 35 98 a2  	vsrl.vi	v10, v9, 16
800026d4: d7 04 95 2a  	vor.vv	v9, v9, v10
800026d8: d7 b4 9f 2e  	vnot.v	v9, v9
800026dc: 57 b5 90 a2  	vsrl.vi	v10, v9, 1
800026e0: 57 45 a6 26  	vand.vx	v10, v10, a2
800026e4: d7 04 95 0a  	vsub.vv	v9, v9, v10
800026e8: 57 c5 05 5e  	<unknown>
800026ec: d7 c5 95 26  	vand.vx	v11, v9, a1
800026f0: d7 34 91 a2  	vsrl.vi	v9, v9, 2
800026f4: d7 04 95 26  	vand.vv	v9, v9, v10
800026f8: d7 84 b4 02  	vadd.vv	v9, v11, v9
800026fc: 57 35 92 a2  	vsrl.vi	v10, v9, 4
80002700: d7 04 95 02  	vadd.vv	v9, v9, v10
80002704: d7 44 95 26  	vand.vx	v9, v9, a0
80002708: d7 e4 94 96  	vmul.vx	v9, v9, s1
8000270c: d7 34 9c a2  	vsrl.vi	v9, v9, 24

80002710 <.LBB0_45>:
80002710: 5b 20 00 00  	join	zero, zero, 0
80002714: 57 46 00 5e  	<unknown>
80002718: 0b 85 54 03  	vadd12.vi	v10, v9, 53
8000271c: 13 03 f0 03  	li	t1, 63
80002720: 57 45 a3 26  	vand.vx	v10, v10, t1
80002724: 13 03 00 fe  	li	t1, -32
80002728: d7 45 a3 02  	vadd.vx	v11, v10, t1

8000272c <.Lpcrel_hi25>:
8000272c: 17 03 00 00  	auipc	t1, 0
80002730: 5b 30 83 02  	setrpc	zero, t1, 40
80002734: 5b 46 b6 00  	vblt	v11, v12, 0x80002740 <.LBB0_47>
80002738: 57 84 45 96  	vsll.vv	v8, v4, v11
8000273c: 6f 00 80 01  	j	0x80002754 <.LBB0_48>

80002740 <.LBB0_47>:
80002740: 57 04 85 96  	vsll.vv	v8, v8, v10
80002744: 13 03 f0 01  	li	t1, 31
80002748: 57 46 a3 2e  	vxor.vx	v12, v10, t1
8000274c: d7 03 76 a2  	vsrl.vv	v7, v7, v12
80002750: 57 84 83 2a  	vor.vv	v8, v8, v7

80002754 <.LBB0_48>:
80002754: 5b 20 00 00  	join	zero, zero, 0
80002758: 57 02 45 96  	vsll.vv	v4, v4, v10
8000275c: d7 b3 bf 76  	vmsle.vi	v7, v11, -1
80002760: d7 33 70 0e  	vrsub.vi	v7, v7, 0
80002764: 57 02 72 26  	vand.vv	v4, v7, v4
80002768: d7 33 96 0e  	vrsub.vi	v7, v9, 12

8000276c <.LBB0_49>:
8000276c: 5b 20 00 00  	join	zero, zero, 0
80002770: d7 84 32 2e  	vxor.vv	v9, v3, v5
80002774: d7 b2 6e a2  	vsrl.vi	v5, v6, 29
80002778: d7 b0 11 96  	vsll.vi	v1, v1, 3
8000277c: 57 85 12 2a  	vor.vv	v10, v1, v5
80002780: 37 03 80 00  	lui	t1, 2048
80002784: d7 45 03 5e  	<unknown>
80002788: d7 b0 4e a2  	vsrl.vi	v1, v4, 29
8000278c: d7 b2 81 96  	vsll.vi	v5, v8, 3
80002790: d7 80 50 2a  	vor.vv	v1, v5, v1
80002794: d7 b2 41 96  	vsll.vi	v5, v4, 3
80002798: d7 80 15 2a  	vor.vv	v1, v1, v11

8000279c <.Lpcrel_hi26>:
8000279c: 17 03 00 00  	auipc	t1, 0
800027a0: 5b 30 c3 0d  	setrpc	zero, t1, 220
800027a4: 5b 8a 03 0c  	vbeq	v0, v7, 0x80002878 <.LBB0_59>
800027a8: 57 82 03 0a  	vsub.vv	v4, v0, v7
800027ac: 13 03 f0 03  	li	t1, 63
800027b0: d7 43 03 5e  	<unknown>

800027b4 <.Lpcrel_hi27>:
800027b4: 17 03 00 00  	auipc	t1, 0
800027b8: 5b 30 43 0c  	setrpc	zero, t1, 196
800027bc: 5b 6a 72 02  	vbltu	v7, v4, 0x800027f0 <.LBB0_53>
800027c0: 57 46 00 5e  	<unknown>
800027c4: d7 33 40 0e  	vrsub.vi	v7, v4, 0
800027c8: 13 03 f0 03  	li	t1, 63
800027cc: d7 43 73 26  	vand.vx	v7, v7, t1
800027d0: 93 04 f0 01  	li	s1, 31
800027d4: 13 05 00 fe  	li	a0, -32
800027d8: 57 44 75 02  	vadd.vx	v8, v7, a0

800027dc <.Lpcrel_hi28>:
800027dc: 17 03 00 00  	auipc	t1, 0
800027e0: 5b 30 83 03  	setrpc	zero, t1, 56
800027e4: 5b 4e 86 00  	vblt	v8, v12, 0x80002800 <.LBB0_54>
800027e8: 57 06 54 96  	vsll.vv	v12, v5, v8
800027ec: 6f 00 80 02  	j	0x80002814 <.LBB0_55>

800027f0 <.LBB0_53>:
800027f0: d7 40 00 5e  	<unknown>
800027f4: 13 03 10 00  	li	t1, 1
800027f8: d7 42 03 5e  	<unknown>
800027fc: 6f 00 c0 07  	j	0x80002878 <.LBB0_59>

80002800 <.LBB0_54>:
80002800: 57 86 13 96  	vsll.vv	v12, v1, v7
80002804: d7 c6 74 2e  	vxor.vx	v13, v7, s1
80002808: 57 b7 50 a2  	vsrl.vi	v14, v5, 1
8000280c: d7 86 e6 a2  	vsrl.vv	v13, v14, v13
80002810: 57 86 c6 2a  	vor.vv	v12, v12, v13

80002814 <.LBB0_55>:
80002814: 5b 20 00 00  	join	zero, zero, 0
80002818: 57 47 00 5e  	<unknown>
8000281c: d7 83 53 96  	vsll.vv	v7, v5, v7
80002820: 57 b4 8f 76  	vmsle.vi	v8, v8, -1
80002824: 57 34 80 0e  	vrsub.vi	v8, v8, 0
80002828: d7 83 83 26  	vand.vv	v7, v8, v7
8000282c: d7 03 76 2a  	vor.vv	v7, v7, v12
80002830: d7 33 70 66  	vmsne.vi	v7, v7, 0
80002834: 57 04 12 a2  	vsrl.vv	v8, v1, v4
80002838: d7 46 45 02  	vadd.vx	v13, v4, a0
8000283c: 57 b6 df 76  	vmsle.vi	v12, v13, -1
80002840: 57 36 c0 0e  	vrsub.vi	v12, v12, 0

80002844 <.Lpcrel_hi29>:
80002844: 17 03 00 00  	auipc	t1, 0
80002848: 5b 30 83 02  	setrpc	zero, t1, 40
8000284c: 5b 46 d7 00  	vblt	v13, v14, 0x80002858 <.LBB0_57>
80002850: 57 82 16 a2  	vsrl.vv	v4, v1, v13
80002854: 6f 00 80 01  	j	0x8000286c <.LBB0_58>

80002858 <.LBB0_57>:
80002858: d7 02 52 a2  	vsrl.vv	v5, v5, v4
8000285c: 57 c2 44 2e  	vxor.vx	v4, v4, s1
80002860: d7 b0 10 96  	vsll.vi	v1, v1, 1
80002864: d7 00 12 96  	vsll.vv	v1, v1, v4
80002868: 57 82 50 2a  	vor.vv	v4, v5, v1

8000286c <.LBB0_58>:
8000286c: 5b 20 00 00  	join	zero, zero, 0
80002870: d7 00 c4 26  	vand.vv	v1, v12, v8
80002874: d7 82 43 2a  	vor.vv	v5, v4, v7

80002878 <.LBB0_59>:
80002878: 5b 20 00 00  	join	zero, zero, 0
8000287c: d7 43 00 5e  	<unknown>
80002880: 57 b2 61 96  	vsll.vi	v4, v6, 3
80002884: 57 83 a5 2a  	vor.vv	v6, v10, v11

80002888 <.Lpcrel_hi30>:
80002888: 17 03 00 00  	auipc	t1, 0
8000288c: 5b 30 c3 2b  	setrpc	zero, t1, 700
80002890: 5b ca 93 0e  	vblt	v9, v7, 0x80002984 <.LBB0_71>
80002894: d7 44 00 5e  	<unknown>
80002898: 57 02 52 02  	vadd.vv	v4, v5, v4
8000289c: d7 83 42 6a  	vmsltu.vv	v7, v4, v5
800028a0: d7 00 13 02  	vadd.vv	v1, v1, v6
800028a4: d7 83 13 02  	vadd.vv	v7, v1, v7
800028a8: 37 03 00 01  	lui	t1, 4096
800028ac: 57 44 73 26  	vand.vx	v8, v7, t1
800028b0: d7 40 70 02  	vadd.vx	v1, v7, zero

800028b4 <.Lpcrel_hi31>:
800028b4: 17 03 00 00  	auipc	t1, 0
800028b8: 5b 30 03 01  	setrpc	zero, t1, 16
800028bc: 5b 84 84 00  	vbeq	v8, v9, 0x800028c4 <.LBB0_62>
800028c0: d7 b0 70 a2  	vsrl.vi	v1, v7, 1

800028c4 <.LBB0_62>:
800028c4: 5b 20 00 00  	join	zero, zero, 0
800028c8: d7 44 00 5e  	<unknown>
800028cc: 57 33 8c a2  	vsrl.vi	v6, v8, 24

800028d0 <.Lpcrel_hi32>:
800028d0: 17 03 00 00  	auipc	t1, 0
800028d4: 5b 30 03 02  	setrpc	zero, t1, 32
800028d8: 5b 8c 84 00  	vbeq	v8, v9, 0x800028f0 <.LBB0_64>
800028dc: d7 b3 7f 96  	vsll.vi	v7, v7, 31
800028e0: 57 b2 40 a2  	vsrl.vi	v4, v4, 1
800028e4: d7 b2 50 26  	vand.vi	v5, v5, 1
800028e8: 57 82 43 2a  	vor.vv	v4, v4, v7
800028ec: 57 82 42 2a  	vor.vv	v4, v4, v5

800028f0 <.LBB0_64>:
800028f0: 5b 20 00 00  	join	zero, zero, 0
800028f4: 57 00 03 02  	vadd.vv	v0, v0, v6

800028f8 <.LBB0_65>:
800028f8: 5b 20 00 00  	join	zero, zero, 0
800028fc: 13 03 f0 ff  	li	t1, -1
80002900: 93 04 13 00  	addi	s1, t1, 1
80002904: 33 b3 64 00  	sltu	t1, s1, t1
80002908: b3 82 62 00  	add	t0, t0, t1
8000290c: d7 c2 04 5e  	<unknown>
80002910: 57 c3 02 5e  	<unknown>
80002914: 57 81 22 26  	vand.vv	v2, v2, v5
80002918: 93 02 f0 7f  	li	t0, 2047
8000291c: d7 c2 02 5e  	<unknown>
80002920: d7 01 33 26  	vand.vv	v3, v3, v6

80002924 <.Lpcrel_hi33>:
80002924: 17 03 00 00  	auipc	t1, 0
80002928: 5b 30 03 22  	setrpc	zero, t1, 544
8000292c: 5b c8 02 00  	vblt	v0, v5, 0x8000293c <.LBB0_68>
80002930: b7 02 f0 7f  	lui	t0, 524032

80002934 <.LBB0_67>:
80002934: d7 c1 32 2a  	vor.vx	v3, v3, t0
80002938: 6f 00 c0 20  	j	0x80002b44 <.LBB0_82>

8000293c <.LBB0_68>:
8000293c: d7 42 00 5e  	<unknown>
80002940: 93 02 f0 ff  	li	t0, -1

80002944 <.Lpcrel_hi34>:
80002944: 17 03 00 00  	auipc	t1, 0
80002948: 5b 30 43 1a  	setrpc	zero, t1, 420
8000294c: 5b 4e 50 18  	vblt	v5, v0, 0x80002ae8 <.LBB0_81>
80002950: d7 43 00 5e  	<unknown>
80002954: d7 b2 00 0e  	vrsub.vi	v5, v0, 1
80002958: 57 b0 0f 02  	vadd.vi	v0, v0, -1
8000295c: 13 05 f0 03  	li	a0, 63
80002960: 57 40 05 26  	vand.vx	v0, v0, a0
80002964: 93 04 f0 01  	li	s1, 31
80002968: 93 05 00 fe  	li	a1, -32
8000296c: 57 c3 05 02  	vadd.vx	v6, v0, a1

80002970 <.Lpcrel_hi35>:
80002970: 17 03 00 00  	auipc	t1, 0
80002974: 5b 30 c3 10  	setrpc	zero, t1, 268
80002978: 5b c8 63 0e  	vblt	v6, v7, 0x80002a68 <.LBB0_76>
8000297c: d7 03 43 96  	vsll.vv	v7, v4, v6
80002980: 6f 00 c0 0f  	j	0x80002a7c <.LBB0_77>

80002984 <.LBB0_71>:
80002984: d7 43 00 5e  	<unknown>
80002988: 57 84 42 2e  	vxor.vv	v8, v4, v5
8000298c: d7 84 60 2e  	vxor.vv	v9, v6, v1
80002990: 57 84 84 2a  	vor.vv	v8, v8, v9

80002994 <.Lpcrel_hi36>:
80002994: 17 03 00 00  	auipc	t1, 0
80002998: 5b 30 03 1b  	setrpc	zero, t1, 432
8000299c: 5b 98 83 00  	vbne	v8, v7, 0x800029ac <.LBB0_73>
800029a0: 57 41 00 5e  	<unknown>
800029a4: d7 41 00 5e  	<unknown>
800029a8: 6f 00 c0 19  	j	0x80002b44 <.LBB0_82>

800029ac <.LBB0_73>:
800029ac: d7 43 00 5e  	<unknown>
800029b0: 57 84 42 6a  	vmsltu.vv	v8, v4, v5
800029b4: d7 80 60 0a  	vsub.vv	v1, v6, v1
800029b8: d7 00 14 0a  	vsub.vv	v1, v1, v8
800029bc: 57 b3 1b a2  	vsrl.vi	v6, v1, 23
800029c0: 57 82 42 0a  	vsub.vv	v4, v4, v5

800029c4 <.Lpcrel_hi37>:
800029c4: 17 03 00 00  	auipc	t1, 0
800029c8: 5b 30 43 f3  	setrpc	zero, t1, -204
800029cc: db 96 63 f2  	vbne	v6, v7, 0x800028f8 <.LBB0_65>
800029d0: 57 43 00 5e  	<unknown>
800029d4: d7 b2 40 a2  	vsrl.vi	v5, v4, 1
800029d8: 37 53 55 55  	lui	t1, 349525
800029dc: 13 06 53 55  	addi	a2, t1, 1365
800029e0: 37 33 33 33  	lui	t1, 209715
800029e4: 93 05 33 33  	addi	a1, t1, 819
800029e8: 37 13 0f 0f  	lui	t1, 61681
800029ec: 13 05 f3 f0  	addi	a0, t1, -241
800029f0: 37 03 01 01  	lui	t1, 4112
800029f4: 93 04 13 10  	addi	s1, t1, 257

800029f8 <.Lpcrel_hi38>:
800029f8: 17 03 00 00  	auipc	t1, 0
800029fc: 5b 30 83 1c  	setrpc	zero, t1, 456
80002a00: 5b 10 13 16  	vbne	v1, v6, 0x80002b60 <.LBB0_83>
80002a04: 57 83 42 2a  	vor.vv	v6, v4, v5
80002a08: d7 33 61 a2  	vsrl.vi	v7, v6, 2
80002a0c: 57 83 63 2a  	vor.vv	v6, v6, v7
80002a10: d7 33 62 a2  	vsrl.vi	v7, v6, 4
80002a14: 57 83 63 2a  	vor.vv	v6, v6, v7
80002a18: d7 33 64 a2  	vsrl.vi	v7, v6, 8
80002a1c: 57 83 63 2a  	vor.vv	v6, v6, v7
80002a20: d7 33 68 a2  	vsrl.vi	v7, v6, 16
80002a24: 57 83 63 2a  	vor.vv	v6, v6, v7
80002a28: 57 b3 6f 2e  	vnot.v	v6, v6
80002a2c: d7 b3 60 a2  	vsrl.vi	v7, v6, 1
80002a30: d7 43 76 26  	vand.vx	v7, v7, a2
80002a34: 57 83 63 0a  	vsub.vv	v6, v6, v7
80002a38: d7 c3 05 5e  	<unknown>
80002a3c: 57 c4 65 26  	vand.vx	v8, v6, a1
80002a40: 57 33 61 a2  	vsrl.vi	v6, v6, 2
80002a44: 57 83 63 26  	vand.vv	v6, v6, v7
80002a48: 57 03 83 02  	vadd.vv	v6, v8, v6
80002a4c: d7 33 62 a2  	vsrl.vi	v7, v6, 4
80002a50: 57 83 63 02  	vadd.vv	v6, v6, v7
80002a54: 57 43 65 26  	vand.vx	v6, v6, a0
80002a58: 57 e3 64 96  	vmul.vx	v6, v6, s1
80002a5c: 57 33 6c a2  	vsrl.vi	v6, v6, 24
80002a60: 0b 03 03 02  	vadd12.vi	v6, v6, 32
80002a64: 6f 00 c0 15  	j	0x80002bc0 <.LBB0_84>

80002a68 <.LBB0_76>:
80002a68: d7 03 10 96  	vsll.vv	v7, v1, v0
80002a6c: 57 c4 04 2e  	vxor.vx	v8, v0, s1
80002a70: d7 b4 40 a2  	vsrl.vi	v9, v4, 1
80002a74: 57 04 94 a2  	vsrl.vv	v8, v9, v8
80002a78: d7 03 74 2a  	vor.vv	v7, v7, v8

80002a7c <.LBB0_77>:
80002a7c: 5b 20 00 00  	join	zero, zero, 0
80002a80: d7 44 00 5e  	<unknown>
80002a84: 57 00 40 96  	vsll.vv	v0, v4, v0
80002a88: 57 b3 6f 76  	vmsle.vi	v6, v6, -1
80002a8c: 57 33 60 0e  	vrsub.vi	v6, v6, 0
80002a90: 57 00 60 26  	vand.vv	v0, v6, v0
80002a94: 57 80 03 2a  	vor.vv	v0, v0, v7
80002a98: 57 33 00 66  	vmsne.vi	v6, v0, 0
80002a9c: 57 40 55 26  	vand.vx	v0, v5, a0
80002aa0: d7 02 10 a2  	vsrl.vv	v5, v1, v0
80002aa4: 57 c4 05 02  	vadd.vx	v8, v0, a1
80002aa8: d7 b3 8f 76  	vmsle.vi	v7, v8, -1
80002aac: d7 33 70 0e  	vrsub.vi	v7, v7, 0

80002ab0 <.Lpcrel_hi39>:
80002ab0: 17 03 00 00  	auipc	t1, 0
80002ab4: 5b 30 83 02  	setrpc	zero, t1, 40
80002ab8: 5b c6 84 00  	vblt	v8, v9, 0x80002ac4 <.LBB0_79>
80002abc: 57 02 14 a2  	vsrl.vv	v4, v1, v8
80002ac0: 6f 00 80 01  	j	0x80002ad8 <.LBB0_80>

80002ac4 <.LBB0_79>:
80002ac4: 57 02 40 a2  	vsrl.vv	v4, v4, v0
80002ac8: 57 c0 04 2e  	vxor.vx	v0, v0, s1
80002acc: d7 b0 10 96  	vsll.vi	v1, v1, 1
80002ad0: 57 00 10 96  	vsll.vv	v0, v1, v0
80002ad4: 57 02 40 2a  	vor.vv	v4, v4, v0

80002ad8 <.LBB0_80>:
80002ad8: 5b 20 00 00  	join	zero, zero, 0
80002adc: 57 40 00 5e  	<unknown>
80002ae0: d7 80 72 26  	vand.vv	v1, v7, v5
80002ae4: 57 02 43 2a  	vor.vv	v4, v4, v6

80002ae8 <.LBB0_81>:
80002ae8: 5b 20 00 00  	join	zero, zero, 0
80002aec: d7 b2 43 26  	vand.vi	v5, v4, 7
80002af0: 57 b2 41 a2  	vsrl.vi	v4, v4, 3
80002af4: 57 b3 1e 96  	vsll.vi	v6, v1, 29
80002af8: 57 02 43 2a  	vor.vv	v4, v4, v6
80002afc: d7 b0 11 a2  	vsrl.vi	v1, v1, 3
80002b00: 57 c2 42 26  	vand.vx	v4, v4, t0
80002b04: d7 c0 13 26  	vand.vx	v1, v1, t2
80002b08: 57 30 0a 96  	vsll.vi	v0, v0, 20
80002b0c: 57 b3 52 7a  	vmsgtu.vi	v6, v5, 5
80002b10: 57 00 10 2a  	vor.vv	v0, v1, v0
80002b14: 57 80 01 2a  	vor.vv	v0, v0, v3
80002b18: d7 00 41 2a  	vor.vv	v1, v4, v2
80002b1c: 57 01 13 02  	vadd.vv	v2, v1, v6
80002b20: d7 80 20 6a  	vmsltu.vv	v1, v2, v1
80002b24: 57 80 00 02  	vadd.vv	v0, v0, v1
80002b28: d7 30 52 66  	vmsne.vi	v1, v5, 4
80002b2c: d7 b0 1f 02  	vadd.vi	v1, v1, -1
80002b30: d7 80 20 26  	vand.vv	v1, v2, v1
80002b34: d7 b0 10 26  	vand.vi	v1, v1, 1
80002b38: 57 01 11 02  	vadd.vv	v2, v1, v2
80002b3c: d7 80 20 6a  	vmsltu.vv	v1, v2, v1
80002b40: d7 81 00 02  	vadd.vv	v3, v0, v1

80002b44 <.LBB0_82>:
80002b44: 5b 20 00 00  	join	zero, zero, 0
80002b48: 57 40 20 02  	vadd.vx	v0, v2, zero
80002b4c: d7 40 30 02  	vadd.vx	v1, v3, zero
80002b50: 83 20 c1 ff  	lw	ra, -4(sp)
80002b54: 0b c0 00 04  	barrier	x0, x0, 1
80002b58: 13 01 c1 ff  	addi	sp, sp, -4
80002b5c: 67 80 00 00  	ret

80002b60 <.LBB0_83>:
80002b60: 57 b3 10 a2  	vsrl.vi	v6, v1, 1
80002b64: 57 03 13 2a  	vor.vv	v6, v1, v6
80002b68: d7 33 61 a2  	vsrl.vi	v7, v6, 2
80002b6c: 57 83 63 2a  	vor.vv	v6, v6, v7
80002b70: d7 33 62 a2  	vsrl.vi	v7, v6, 4
80002b74: 57 83 63 2a  	vor.vv	v6, v6, v7
80002b78: d7 33 64 a2  	vsrl.vi	v7, v6, 8
80002b7c: 57 83 63 2a  	vor.vv	v6, v6, v7
80002b80: d7 33 68 a2  	vsrl.vi	v7, v6, 16
80002b84: 57 83 63 2a  	vor.vv	v6, v6, v7
80002b88: 57 b3 6f 2e  	vnot.v	v6, v6
80002b8c: d7 b3 60 a2  	vsrl.vi	v7, v6, 1
80002b90: d7 43 76 26  	vand.vx	v7, v7, a2
80002b94: 57 83 63 0a  	vsub.vv	v6, v6, v7
80002b98: d7 c3 05 5e  	<unknown>
80002b9c: 57 c4 65 26  	vand.vx	v8, v6, a1
80002ba0: 57 33 61 a2  	vsrl.vi	v6, v6, 2
80002ba4: 57 83 63 26  	vand.vv	v6, v6, v7
80002ba8: 57 03 83 02  	vadd.vv	v6, v8, v6
80002bac: d7 33 62 a2  	vsrl.vi	v7, v6, 4
80002bb0: 57 83 63 02  	vadd.vv	v6, v6, v7
80002bb4: 57 43 65 26  	vand.vx	v6, v6, a0
80002bb8: 57 e3 64 96  	vmul.vx	v6, v6, s1
80002bbc: 57 33 6c a2  	vsrl.vi	v6, v6, 24

80002bc0 <.LBB0_84>:
80002bc0: 5b 20 00 00  	join	zero, zero, 0
80002bc4: d7 44 00 5e  	<unknown>
80002bc8: 57 33 6c 02  	vadd.vi	v6, v6, -8
80002bcc: 13 03 f0 03  	li	t1, 63
80002bd0: d7 43 63 26  	vand.vx	v7, v6, t1
80002bd4: 13 03 00 fe  	li	t1, -32
80002bd8: 57 44 73 02  	vadd.vx	v8, v7, t1

80002bdc <.Lpcrel_hi40>:
80002bdc: 17 03 00 00  	auipc	t1, 0
80002be0: 5b 30 83 02  	setrpc	zero, t1, 40
80002be4: 5b c6 84 00  	vblt	v8, v9, 0x80002bf0 <.LBB0_86>
80002be8: d7 00 44 96  	vsll.vv	v1, v4, v8
80002bec: 6f 00 80 01  	j	0x80002c04 <.LBB0_87>

80002bf0 <.LBB0_86>:
80002bf0: d7 80 13 96  	vsll.vv	v1, v1, v7
80002bf4: 13 03 f0 01  	li	t1, 31
80002bf8: d7 44 73 2e  	vxor.vx	v9, v7, t1
80002bfc: d7 82 54 a2  	vsrl.vv	v5, v5, v9
80002c00: d7 80 12 2a  	vor.vv	v1, v1, v5

80002c04 <.LBB0_87>:
80002c04: 5b 20 00 00  	join	zero, zero, 0
80002c08: 57 82 43 96  	vsll.vv	v4, v4, v7
80002c0c: d7 b2 8f 76  	vmsle.vi	v5, v8, -1
80002c10: d7 32 50 0e  	vrsub.vi	v5, v5, 0
80002c14: 57 02 52 26  	vand.vv	v4, v5, v4
80002c18: 57 00 03 0a  	vsub.vv	v0, v0, v6
80002c1c: 6f f0 df cd  	j	0x800028f8 <.LBB0_65>

80002c20 <.LBB0_88>:
80002c20: d7 42 00 5e  	<unknown>
80002c24: 57 02 22 2a  	vor.vv	v4, v2, v4

80002c28 <.Lpcrel_hi41>:
80002c28: 17 03 00 00  	auipc	t1, 0
80002c2c: 5b 30 03 01  	setrpc	zero, t1, 16
80002c30: 5b 94 42 00  	vbne	v4, v5, 0x80002c38 <.LBB0_90>
80002c34: d7 81 30 26  	vand.vv	v3, v3, v1

80002c38 <.LBB0_90>:
80002c38: 5b 20 00 00  	join	zero, zero, 0
80002c3c: d7 40 00 5e  	<unknown>

80002c40 <.Lpcrel_hi42>:
80002c40: 17 03 00 00  	auipc	t1, 0
80002c44: 5b 30 43 f0  	setrpc	zero, t1, -252
80002c48: db 9e 40 ee  	vbne	v4, v1, 0x80002b44 <.LBB0_82>
80002c4c: 57 01 20 26  	vand.vv	v2, v2, v0
80002c50: 6f f0 5f ef  	j	0x80002b44 <.LBB0_82>

80002c54 <.LBB0_92>:
80002c54: 57 41 00 02  	vadd.vx	v2, v0, zero
80002c58: d7 41 10 02  	vadd.vx	v3, v1, zero
80002c5c: 6f f0 9f ee  	j	0x80002b44 <.LBB0_82>

80002c60 <__subdf3>:
80002c60: 13 01 41 00  	addi	sp, sp, 4
80002c64: 23 2e 11 fe  	sw	ra, -4(sp)
80002c68: b7 02 00 80  	lui	t0, 524288
80002c6c: d7 c1 32 2e  	vxor.vx	v3, v3, t0
80002c70: ef f0 8f da  	jal	0x80002218 <__adddf3>
80002c74: 83 20 c1 ff  	lw	ra, -4(sp)
80002c78: 0b c0 00 04  	barrier	x0, x0, 1
80002c7c: 13 01 c1 ff  	addi	sp, sp, -4
80002c80: 67 80 00 00  	ret

80002c84 <_Z13get_global_idj>:
80002c84: 13 01 41 00  	addi	sp, sp, 4
80002c88: 23 2e 11 fe  	sw	ra, -4(sp)
80002c8c: 93 02 20 00  	li	t0, 2
80002c90: d7 c0 02 5e  	<unknown>

80002c94 <.Lpcrel_hi0>:
80002c94: 17 03 00 00  	auipc	t1, 0
80002c98: 5b 30 c3 04  	setrpc	zero, t1, 76
80002c9c: 5b 88 00 02  	vbeq	v0, v1, 0x80002ccc <.LBB0_4>
80002ca0: 93 02 10 00  	li	t0, 1
80002ca4: d7 c0 02 5e  	<unknown>

80002ca8 <.Lpcrel_hi1>:
80002ca8: 17 03 00 00  	auipc	t1, 0
80002cac: 5b 30 83 03  	setrpc	zero, t1, 56
80002cb0: 5b 82 00 02  	vbeq	v0, v1, 0x80002cd4 <.LBB0_5>
80002cb4: d7 40 00 5e  	<unknown>

80002cb8 <.Lpcrel_hi2>:
80002cb8: 17 03 00 00  	auipc	t1, 0
80002cbc: 5b 30 83 02  	setrpc	zero, t1, 40
80002cc0: 5b 9e 00 00  	vbne	v0, v1, 0x80002cdc <.LBB0_6>
80002cc4: ef 00 80 16  	jal	0x80002e2c <__builtin_riscv_global_id_x>
80002cc8: 6f 00 80 01  	j	0x80002ce0 <.LBB0_7>

80002ccc <.LBB0_4>:
80002ccc: ef 00 c0 1b  	jal	0x80002e88 <__builtin_riscv_global_id_z>
80002cd0: 6f 00 00 01  	j	0x80002ce0 <.LBB0_7>

80002cd4 <.LBB0_5>:
80002cd4: ef 00 80 18  	jal	0x80002e5c <__builtin_riscv_global_id_y>
80002cd8: 6f 00 80 00  	j	0x80002ce0 <.LBB0_7>

80002cdc <.LBB0_6>:
80002cdc: 57 40 00 5e  	<unknown>

80002ce0 <.LBB0_7>:
80002ce0: 5b 20 00 00  	join	zero, zero, 0
80002ce4: 83 20 c1 ff  	lw	ra, -4(sp)
80002ce8: 0b c0 00 04  	barrier	x0, x0, 1
80002cec: 13 01 c1 ff  	addi	sp, sp, -4
80002cf0: 67 80 00 00  	ret

80002cf4 <__builtin_riscv_workitem_linear_id>:
80002cf4: 73 25 30 80  	csrr	a0, 2051
80002cf8: 73 23 00 80  	csrr	t1, 2048
80002cfc: 57 a1 08 52  	vid.v	v2
80002d00: 57 40 23 02  	vadd.vx	v0, v2, t1
80002d04: 67 80 00 00  	ret

80002d08 <__builtin_riscv_global_linear_id>:
80002d08: 13 01 41 00  	addi	sp, sp, 4
80002d0c: 23 2e 11 fe  	sw	ra, -4(sp)
80002d10: f3 26 30 80  	csrr	a3, 2051
80002d14: 83 a2 86 00  	lw	t0, 8(a3)
80002d18: ef 00 40 11  	jal	0x80002e2c <__builtin_riscv_global_id_x>
80002d1c: 83 ae 46 02  	lw	t4, 36(a3)
80002d20: d7 c2 0e 0a  	vsub.vx	v5, v0, t4
80002d24: 13 0f 10 00  	li	t5, 1
80002d28: 63 82 e2 05  	beq	t0, t5, 0x80002d6c <.GLR>

80002d2c <.GL_2DIM>:
80002d2c: ef 00 00 13  	jal	0x80002e5c <__builtin_riscv_global_id_y>
80002d30: 83 af c6 00  	lw	t6, 12(a3)
80002d34: 03 af 06 01  	lw	t5, 16(a3)
80002d38: 57 43 0f 0a  	vsub.vx	v6, v0, t5
80002d3c: 57 e3 6f 96  	vmul.vx	v6, v6, t6
80002d40: d7 02 53 02  	vadd.vv	v5, v5, v6
80002d44: 13 0f 20 00  	li	t5, 2
80002d48: 63 82 e2 03  	beq	t0, t5, 0x80002d6c <.GLR>

80002d4c <.GL_3DIM>:
80002d4c: ef 00 c0 13  	jal	0x80002e88 <__builtin_riscv_global_id_z>
80002d50: 83 af c6 00  	lw	t6, 12(a3)
80002d54: 03 a3 06 01  	lw	t1, 16(a3)
80002d58: 03 af c6 02  	lw	t5, 44(a3)
80002d5c: 57 43 0f 0a  	vsub.vx	v6, v0, t5
80002d60: 57 e3 6f 96  	vmul.vx	v6, v6, t6
80002d64: 57 63 63 96  	vmul.vx	v6, v6, t1
80002d68: d7 02 53 02  	vadd.vv	v5, v5, v6

80002d6c <.GLR>:
80002d6c: 57 40 50 02  	vadd.vx	v0, v5, zero
80002d70: 83 20 c1 ff  	lw	ra, -4(sp)
80002d74: 0b c0 00 04  	barrier	x0, x0, 1
80002d78: 13 01 c1 ff  	addi	sp, sp, -4
80002d7c: 67 80 00 00  	ret

80002d80 <__builtin_riscv_workgroup_id_x>:
80002d80: 73 25 80 80  	csrr	a0, 2056
80002d84: 57 40 05 5e  	<unknown>
80002d88: 67 80 00 00  	ret

80002d8c <__builtin_riscv_workgroup_id_y>:
80002d8c: 73 25 90 80  	csrr	a0, 2057
80002d90: 57 40 05 5e  	<unknown>
80002d94: 67 80 00 00  	ret

80002d98 <__builtin_riscv_workgroup_id_z>:
80002d98: 73 25 a0 80  	csrr	a0, 2058
80002d9c: 57 40 05 5e  	<unknown>
80002da0: 67 80 00 00  	ret

80002da4 <__builtin_riscv_workitem_id_x>:
80002da4: 73 25 30 80  	csrr	a0, 2051
80002da8: 83 22 85 00  	lw	t0, 8(a0)
80002dac: 73 23 00 80  	csrr	t1, 2048
80002db0: 57 a1 08 52  	vid.v	v2
80002db4: 57 40 23 02  	vadd.vx	v0, v2, t1
80002db8: 93 03 10 00  	li	t2, 1
80002dbc: 63 86 72 00  	beq	t0, t2, 0x80002dc8 <.WIXR>
80002dc0: 03 2e 85 01  	lw	t3, 24(a0)
80002dc4: 57 60 0e 8a  	vremu.vx	v0, v0, t3

80002dc8 <.WIXR>:
80002dc8: 67 80 00 00  	ret

80002dcc <__builtin_riscv_workitem_id_y>:
80002dcc: 73 25 30 80  	csrr	a0, 2051
80002dd0: 83 22 85 00  	lw	t0, 8(a0)
80002dd4: 73 23 00 80  	csrr	t1, 2048
80002dd8: 57 a1 08 52  	vid.v	v2
80002ddc: 57 40 23 02  	vadd.vx	v0, v2, t1
80002de0: 03 2e 85 01  	lw	t3, 24(a0)
80002de4: 93 03 30 00  	li	t2, 3
80002de8: 63 86 72 00  	beq	t0, t2, 0x80002df4 <.WIY3>

80002dec <.WIY2>:
80002dec: 57 60 0e 82  	vdivu.vx	v0, v0, t3
80002df0: 67 80 00 00  	ret

80002df4 <.WIY3>:
80002df4: 83 2e c5 01  	lw	t4, 28(a0)
80002df8: b3 8e ce 03  	mul	t4, t4, t3
80002dfc: 57 e0 0e 8a  	vremu.vx	v0, v0, t4
80002e00: 57 60 0e 82  	vdivu.vx	v0, v0, t3
80002e04: 67 80 00 00  	ret

80002e08 <__builtin_riscv_workitem_id_z>:
80002e08: 73 25 30 80  	csrr	a0, 2051
80002e0c: 73 23 00 80  	csrr	t1, 2048
80002e10: 57 a1 08 52  	vid.v	v2
80002e14: 57 40 23 02  	vadd.vx	v0, v2, t1
80002e18: 03 2e 85 01  	lw	t3, 24(a0)
80002e1c: 83 2e c5 01  	lw	t4, 28(a0)
80002e20: b3 8e ce 03  	mul	t4, t4, t3
80002e24: 57 e0 0e 82  	vdivu.vx	v0, v0, t4
80002e28: 67 80 00 00  	ret

80002e2c <__builtin_riscv_global_id_x>:
80002e2c: 13 01 41 00  	addi	sp, sp, 4
80002e30: 23 2e 11 fe  	sw	ra, -4(sp)
80002e34: ef f0 1f f7  	jal	0x80002da4 <__builtin_riscv_workitem_id_x>
80002e38: 73 25 30 80  	csrr	a0, 2051
80002e3c: 73 23 80 80  	csrr	t1, 2056
80002e40: 03 2e 85 01  	lw	t3, 24(a0)
80002e44: b3 0f c3 03  	mul	t6, t1, t3
80002e48: 57 c0 0f 02  	vadd.vx	v0, v0, t6
80002e4c: 83 20 c1 ff  	lw	ra, -4(sp)
80002e50: 0b c0 00 04  	barrier	x0, x0, 1
80002e54: 13 01 c1 ff  	addi	sp, sp, -4
80002e58: 67 80 00 00  	ret

80002e5c <__builtin_riscv_global_id_y>:
80002e5c: 13 01 41 00  	addi	sp, sp, 4
80002e60: 23 2e 11 fe  	sw	ra, -4(sp)
80002e64: ef f0 9f f6  	jal	0x80002dcc <__builtin_riscv_workitem_id_y>
80002e68: 73 23 90 80  	csrr	t1, 2057
80002e6c: 83 23 c5 01  	lw	t2, 28(a0)
80002e70: 33 0e 73 02  	mul	t3, t1, t2
80002e74: 57 40 0e 02  	vadd.vx	v0, v0, t3
80002e78: 83 20 c1 ff  	lw	ra, -4(sp)
80002e7c: 0b c0 00 04  	barrier	x0, x0, 1
80002e80: 13 01 c1 ff  	addi	sp, sp, -4
80002e84: 67 80 00 00  	ret

80002e88 <__builtin_riscv_global_id_z>:
80002e88: 13 01 41 00  	addi	sp, sp, 4
80002e8c: 23 2e 11 fe  	sw	ra, -4(sp)
80002e90: ef f0 9f f7  	jal	0x80002e08 <__builtin_riscv_workitem_id_z>
80002e94: 73 25 30 80  	csrr	a0, 2051
80002e98: 73 23 a0 80  	csrr	t1, 2058
80002e9c: 83 23 05 02  	lw	t2, 32(a0)
80002ea0: b3 83 63 02  	mul	t2, t2, t1
80002ea4: 57 c0 03 02  	vadd.vx	v0, v0, t2
80002ea8: 83 20 c1 ff  	lw	ra, -4(sp)
80002eac: 0b c0 00 04  	barrier	x0, x0, 1
80002eb0: 13 01 c1 ff  	addi	sp, sp, -4
80002eb4: 67 80 00 00  	ret

80002eb8 <__builtin_riscv_local_size_x>:
80002eb8: 73 25 30 80  	csrr	a0, 2051
80002ebc: 83 22 85 01  	lw	t0, 24(a0)
80002ec0: 57 c0 02 5e  	<unknown>
80002ec4: 67 80 00 00  	ret

80002ec8 <__builtin_riscv_local_size_y>:
80002ec8: 73 25 30 80  	csrr	a0, 2051
80002ecc: 83 22 c5 01  	lw	t0, 28(a0)
80002ed0: 57 c0 02 5e  	<unknown>
80002ed4: 67 80 00 00  	ret

80002ed8 <__builtin_riscv_local_size_z>:
80002ed8: 73 25 30 80  	csrr	a0, 2051
80002edc: 83 22 05 02  	lw	t0, 32(a0)
80002ee0: 57 c0 02 5e  	<unknown>
80002ee4: 67 80 00 00  	ret

80002ee8 <__builtin_riscv_global_size_x>:
80002ee8: 73 25 30 80  	csrr	a0, 2051
80002eec: 83 22 c5 00  	lw	t0, 12(a0)
80002ef0: 57 c0 02 5e  	<unknown>
80002ef4: 67 80 00 00  	ret

80002ef8 <__builtin_riscv_global_size_y>:
80002ef8: 73 25 30 80  	csrr	a0, 2051
80002efc: 83 22 05 01  	lw	t0, 16(a0)
80002f00: 57 c0 02 5e  	<unknown>
80002f04: 67 80 00 00  	ret

80002f08 <__builtin_riscv_global_size_z>:
80002f08: 73 25 30 80  	csrr	a0, 2051
80002f0c: 83 22 45 01  	lw	t0, 20(a0)
80002f10: 57 c0 02 5e  	<unknown>
80002f14: 67 80 00 00  	ret

80002f18 <__builtin_riscv_global_offset_x>:
80002f18: 73 25 30 80  	csrr	a0, 2051
80002f1c: 83 22 45 02  	lw	t0, 36(a0)
80002f20: 57 c0 02 5e  	<unknown>
80002f24: 67 80 00 00  	ret

80002f28 <__builtin_riscv_global_offset_y>:
80002f28: 73 25 30 80  	csrr	a0, 2051
80002f2c: 83 22 85 02  	lw	t0, 40(a0)
80002f30: 57 c0 02 5e  	<unknown>
80002f34: 67 80 00 00  	ret

80002f38 <__builtin_riscv_global_offset_z>:
80002f38: 73 25 30 80  	csrr	a0, 2051
80002f3c: 83 22 c5 02  	lw	t0, 44(a0)
80002f40: 57 c0 02 5e  	<unknown>
80002f44: 67 80 00 00  	ret

80002f48 <__builtin_riscv_num_groups_x>:
80002f48: 73 25 30 80  	csrr	a0, 2051
80002f4c: 03 23 c5 00  	lw	t1, 12(a0)
80002f50: 83 22 85 01  	lw	t0, 24(a0)
80002f54: 33 53 53 02  	divu	t1, t1, t0
80002f58: 57 40 03 5e  	<unknown>
80002f5c: 67 80 00 00  	ret

80002f60 <__builtin_riscv_num_groups_y>:
80002f60: 73 25 30 80  	csrr	a0, 2051
80002f64: 03 23 05 01  	lw	t1, 16(a0)
80002f68: 83 22 c5 01  	lw	t0, 28(a0)
80002f6c: 33 53 53 02  	divu	t1, t1, t0
80002f70: 57 40 03 5e  	<unknown>
80002f74: 67 80 00 00  	ret

80002f78 <__builtin_riscv_num_groups_z>:
80002f78: 73 25 30 80  	csrr	a0, 2051
80002f7c: 03 23 45 01  	lw	t1, 20(a0)
80002f80: 83 23 05 02  	lw	t2, 32(a0)
80002f84: 33 53 73 02  	divu	t1, t1, t2
80002f88: 57 40 03 5e  	<unknown>
80002f8c: 67 80 00 00  	ret

80002f90 <__builtin_riscv_work_dim>:
80002f90: 73 25 30 80  	csrr	a0, 2051
80002f94: 83 22 85 00  	lw	t0, 8(a0)
80002f98: 57 c0 02 5e  	<unknown>
80002f9c: 67 80 00 00  	ret

80002fa0 <print_ints_uchar>:
80002fa0: 13 01 41 00  	addi	sp, sp, 4
80002fa4: 13 02 c2 01  	addi	tp, tp, 28
80002fa8: 0b 20 10 00  	regext	zero, zero, 1
80002fac: 57 40 02 5e  	<unknown>
80002fb0: 23 2e 11 fe  	sw	ra, -4(sp)
80002fb4: 0b 20 80 00  	regext	zero, zero, 8
80002fb8: 7b 62 00 fe  	vsw12.v	v0, -28(v0)
80002fbc: 0b 20 80 00  	regext	zero, zero, 8
80002fc0: 7b 64 10 fe  	vsw12.v	v1, -24(v0)
80002fc4: 0b 20 80 00  	regext	zero, zero, 8
80002fc8: 7b 66 20 fe  	vsw12.v	v2, -20(v0)
80002fcc: 0b 20 80 00  	regext	zero, zero, 8
80002fd0: 7b 68 30 fe  	vsw12.v	v3, -16(v0)
80002fd4: 83 22 42 fe  	lw	t0, -28(tp)
80002fd8: 57 c0 02 5e  	<unknown>
80002fdc: 2b 00 c0 01  	vlb.v	v0, 28(v0)
80002fe0: 7b 7c 02 fe  	vsb12.v	v0, -8(v4)
80002fe4: 93 02 00 00  	li	t0, 0
80002fe8: 23 2e 52 fe  	sw	t0, -4(tp)
80002fec: 6f 00 40 00  	j	0x80002ff0 <.LBB0_1>

80002ff0 <.LBB0_1>:
80002ff0: 83 22 c2 ff  	lw	t0, -4(tp)
80002ff4: 03 23 c2 fe  	lw	t1, -20(tp)
80002ff8: 63 d4 62 0a  	bge	t0, t1, 0x800030a0 <.LBB0_9>
80002ffc: 6f 00 40 00  	j	0x80003000 <.LBB0_2>

80003000 <.LBB0_2>:
80003000: 83 22 42 fe  	lw	t0, -28(tp)
80003004: 03 03 82 ff  	lb	t1, -8(tp)
80003008: 57 40 03 5e  	<unknown>
8000300c: d7 c0 02 5e  	<unknown>
80003010: 2b 8e 00 80  	vsb.v	v0, 28(v1)
80003014: 83 22 c2 ff  	lw	t0, -4(tp)
80003018: 63 80 02 02  	beqz	t0, 0x80003038 <.LBB0_4>
8000301c: 6f 00 40 00  	j	0x80003020 <.LBB0_3>

80003020 <.LBB0_3>:
80003020: 03 23 42 fe  	lw	t1, -28(tp)
80003024: 93 02 c0 02  	li	t0, 44
80003028: 57 40 03 5e  	<unknown>
8000302c: d7 c0 02 5e  	<unknown>
80003030: ef 20 c0 2b  	jal	0x800052ec <printf_putcf>
80003034: 6f 00 40 00  	j	0x80003038 <.LBB0_4>

80003038 <.LBB0_4>:
80003038: 83 22 02 ff  	lw	t0, -16(tp)
8000303c: 63 86 02 02  	beqz	t0, 0x80003068 <.LBB0_6>
80003040: 6f 00 40 00  	j	0x80003044 <.LBB0_5>

80003044 <.LBB0_5>:
80003044: 03 23 42 fe  	lw	t1, -28(tp)
80003048: 83 22 82 fe  	lw	t0, -24(tp)
8000304c: 83 23 c2 ff  	lw	t2, -4(tp)
80003050: b3 82 72 00  	add	t0, t0, t2
80003054: 83 c2 02 00  	lbu	t0, 0(t0)
80003058: 57 40 03 5e  	<unknown>
8000305c: d7 c0 02 5e  	<unknown>
80003060: ef 40 80 10  	jal	0x80007168 <printf_ulong>
80003064: 6f 00 80 02  	j	0x8000308c <.LBB0_7>

80003068 <.LBB0_6>:
80003068: 03 23 42 fe  	lw	t1, -28(tp)
8000306c: 83 22 82 fe  	lw	t0, -24(tp)
80003070: 83 23 c2 ff  	lw	t2, -4(tp)
80003074: b3 82 72 00  	add	t0, t0, t2
80003078: 83 82 02 00  	lb	t0, 0(t0)
8000307c: 57 40 03 5e  	<unknown>
80003080: d7 c0 02 5e  	<unknown>
80003084: ef 40 c0 18  	jal	0x80007210 <printf_long>
80003088: 6f 00 40 00  	j	0x8000308c <.LBB0_7>

8000308c <.LBB0_7>:
8000308c: 6f 00 40 00  	j	0x80003090 <.LBB0_8>

80003090 <.LBB0_8>:
80003090: 83 22 c2 ff  	lw	t0, -4(tp)
80003094: 93 82 12 00  	addi	t0, t0, 1
80003098: 23 2e 52 fe  	sw	t0, -4(tp)
8000309c: 6f f0 5f f5  	j	0x80002ff0 <.LBB0_1>

800030a0 <.LBB0_9>:
800030a0: 83 20 c1 ff  	lw	ra, -4(sp)
800030a4: 0b c0 00 04  	barrier	x0, x0, 1
800030a8: 13 01 c1 ff  	addi	sp, sp, -4
800030ac: 13 02 42 fe  	addi	tp, tp, -28
800030b0: 67 80 00 00  	ret

800030b4 <print_ints_ushort>:
800030b4: 13 01 41 00  	addi	sp, sp, 4
800030b8: 13 02 c2 01  	addi	tp, tp, 28
800030bc: 0b 20 10 00  	regext	zero, zero, 1
800030c0: 57 40 02 5e  	<unknown>
800030c4: 23 2e 11 fe  	sw	ra, -4(sp)
800030c8: 0b 20 80 00  	regext	zero, zero, 8
800030cc: 7b 62 00 fe  	vsw12.v	v0, -28(v0)
800030d0: 0b 20 80 00  	regext	zero, zero, 8
800030d4: 7b 64 10 fe  	vsw12.v	v1, -24(v0)
800030d8: 0b 20 80 00  	regext	zero, zero, 8
800030dc: 7b 66 20 fe  	vsw12.v	v2, -20(v0)
800030e0: 0b 20 80 00  	regext	zero, zero, 8
800030e4: 7b 68 30 fe  	vsw12.v	v3, -16(v0)
800030e8: 83 22 42 fe  	lw	t0, -28(tp)
800030ec: 57 c0 02 5e  	<unknown>
800030f0: 2b 00 c0 01  	vlb.v	v0, 28(v0)
800030f4: 7b 7c 02 fe  	vsb12.v	v0, -8(v4)
800030f8: 93 02 00 00  	li	t0, 0
800030fc: 23 2e 52 fe  	sw	t0, -4(tp)
80003100: 6f 00 40 00  	j	0x80003104 <.LBB1_1>

80003104 <.LBB1_1>:
80003104: 83 22 c2 ff  	lw	t0, -4(tp)
80003108: 03 23 c2 fe  	lw	t1, -20(tp)
8000310c: 63 d8 62 0a  	bge	t0, t1, 0x800031bc <.LBB1_9>
80003110: 6f 00 40 00  	j	0x80003114 <.LBB1_2>

80003114 <.LBB1_2>:
80003114: 83 22 42 fe  	lw	t0, -28(tp)
80003118: 03 03 82 ff  	lb	t1, -8(tp)
8000311c: 57 40 03 5e  	<unknown>
80003120: d7 c0 02 5e  	<unknown>
80003124: 2b 8e 00 80  	vsb.v	v0, 28(v1)
80003128: 83 22 c2 ff  	lw	t0, -4(tp)
8000312c: 63 80 02 02  	beqz	t0, 0x8000314c <.LBB1_4>
80003130: 6f 00 40 00  	j	0x80003134 <.LBB1_3>

80003134 <.LBB1_3>:
80003134: 03 23 42 fe  	lw	t1, -28(tp)
80003138: 93 02 c0 02  	li	t0, 44
8000313c: 57 40 03 5e  	<unknown>
80003140: d7 c0 02 5e  	<unknown>
80003144: ef 20 80 1a  	jal	0x800052ec <printf_putcf>
80003148: 6f 00 40 00  	j	0x8000314c <.LBB1_4>

8000314c <.LBB1_4>:
8000314c: 83 22 02 ff  	lw	t0, -16(tp)
80003150: 63 88 02 02  	beqz	t0, 0x80003180 <.LBB1_6>
80003154: 6f 00 40 00  	j	0x80003158 <.LBB1_5>

80003158 <.LBB1_5>:
80003158: 03 23 42 fe  	lw	t1, -28(tp)
8000315c: 83 22 82 fe  	lw	t0, -24(tp)
80003160: 83 23 c2 ff  	lw	t2, -4(tp)
80003164: 93 93 13 00  	slli	t2, t2, 1
80003168: b3 82 72 00  	add	t0, t0, t2
8000316c: 83 d2 02 00  	lhu	t0, 0(t0)
80003170: 57 40 03 5e  	<unknown>
80003174: d7 c0 02 5e  	<unknown>
80003178: ef 30 10 7f  	jal	0x80007168 <printf_ulong>
8000317c: 6f 00 c0 02  	j	0x800031a8 <.LBB1_7>

80003180 <.LBB1_6>:
80003180: 03 23 42 fe  	lw	t1, -28(tp)
80003184: 83 22 82 fe  	lw	t0, -24(tp)
80003188: 83 23 c2 ff  	lw	t2, -4(tp)
8000318c: 93 93 13 00  	slli	t2, t2, 1
80003190: b3 82 72 00  	add	t0, t0, t2
80003194: 83 92 02 00  	lh	t0, 0(t0)
80003198: 57 40 03 5e  	<unknown>
8000319c: d7 c0 02 5e  	<unknown>
800031a0: ef 40 00 07  	jal	0x80007210 <printf_long>
800031a4: 6f 00 40 00  	j	0x800031a8 <.LBB1_7>

800031a8 <.LBB1_7>:
800031a8: 6f 00 40 00  	j	0x800031ac <.LBB1_8>

800031ac <.LBB1_8>:
800031ac: 83 22 c2 ff  	lw	t0, -4(tp)
800031b0: 93 82 12 00  	addi	t0, t0, 1
800031b4: 23 2e 52 fe  	sw	t0, -4(tp)
800031b8: 6f f0 df f4  	j	0x80003104 <.LBB1_1>

800031bc <.LBB1_9>:
800031bc: 83 20 c1 ff  	lw	ra, -4(sp)
800031c0: 0b c0 00 04  	barrier	x0, x0, 1
800031c4: 13 01 c1 ff  	addi	sp, sp, -4
800031c8: 13 02 42 fe  	addi	tp, tp, -28
800031cc: 67 80 00 00  	ret

800031d0 <print_ints_uint>:
800031d0: 13 01 41 00  	addi	sp, sp, 4
800031d4: 13 02 c2 01  	addi	tp, tp, 28
800031d8: 0b 20 10 00  	regext	zero, zero, 1
800031dc: 57 40 02 5e  	<unknown>
800031e0: 23 2e 11 fe  	sw	ra, -4(sp)
800031e4: 0b 20 80 00  	regext	zero, zero, 8
800031e8: 7b 62 00 fe  	vsw12.v	v0, -28(v0)
800031ec: 0b 20 80 00  	regext	zero, zero, 8
800031f0: 7b 64 10 fe  	vsw12.v	v1, -24(v0)
800031f4: 0b 20 80 00  	regext	zero, zero, 8
800031f8: 7b 66 20 fe  	vsw12.v	v2, -20(v0)
800031fc: 0b 20 80 00  	regext	zero, zero, 8
80003200: 7b 68 30 fe  	vsw12.v	v3, -16(v0)
80003204: 83 22 42 fe  	lw	t0, -28(tp)
80003208: 57 c0 02 5e  	<unknown>
8000320c: 2b 00 c0 01  	vlb.v	v0, 28(v0)
80003210: 7b 7c 02 fe  	vsb12.v	v0, -8(v4)
80003214: 93 02 00 00  	li	t0, 0
80003218: 23 2e 52 fe  	sw	t0, -4(tp)
8000321c: 6f 00 40 00  	j	0x80003220 <.LBB2_1>

80003220 <.LBB2_1>:
80003220: 83 22 c2 ff  	lw	t0, -4(tp)
80003224: 03 23 c2 fe  	lw	t1, -20(tp)
80003228: 63 d8 62 0a  	bge	t0, t1, 0x800032d8 <.LBB2_9>
8000322c: 6f 00 40 00  	j	0x80003230 <.LBB2_2>

80003230 <.LBB2_2>:
80003230: 83 22 42 fe  	lw	t0, -28(tp)
80003234: 03 03 82 ff  	lb	t1, -8(tp)
80003238: 57 40 03 5e  	<unknown>
8000323c: d7 c0 02 5e  	<unknown>
80003240: 2b 8e 00 80  	vsb.v	v0, 28(v1)
80003244: 83 22 c2 ff  	lw	t0, -4(tp)
80003248: 63 80 02 02  	beqz	t0, 0x80003268 <.LBB2_4>
8000324c: 6f 00 40 00  	j	0x80003250 <.LBB2_3>

80003250 <.LBB2_3>:
80003250: 03 23 42 fe  	lw	t1, -28(tp)
80003254: 93 02 c0 02  	li	t0, 44
80003258: 57 40 03 5e  	<unknown>
8000325c: d7 c0 02 5e  	<unknown>
80003260: ef 20 c0 08  	jal	0x800052ec <printf_putcf>
80003264: 6f 00 40 00  	j	0x80003268 <.LBB2_4>

80003268 <.LBB2_4>:
80003268: 83 22 02 ff  	lw	t0, -16(tp)
8000326c: 63 88 02 02  	beqz	t0, 0x8000329c <.LBB2_6>
80003270: 6f 00 40 00  	j	0x80003274 <.LBB2_5>

80003274 <.LBB2_5>:
80003274: 03 23 42 fe  	lw	t1, -28(tp)
80003278: 83 22 82 fe  	lw	t0, -24(tp)
8000327c: 83 23 c2 ff  	lw	t2, -4(tp)
80003280: 93 93 23 00  	slli	t2, t2, 2
80003284: b3 82 72 00  	add	t0, t0, t2
80003288: 83 a2 02 00  	lw	t0, 0(t0)
8000328c: 57 40 03 5e  	<unknown>
80003290: d7 c0 02 5e  	<unknown>
80003294: ef 30 50 6d  	jal	0x80007168 <printf_ulong>
80003298: 6f 00 c0 02  	j	0x800032c4 <.LBB2_7>

8000329c <.LBB2_6>:
8000329c: 03 23 42 fe  	lw	t1, -28(tp)
800032a0: 83 22 82 fe  	lw	t0, -24(tp)
800032a4: 83 23 c2 ff  	lw	t2, -4(tp)
800032a8: 93 93 23 00  	slli	t2, t2, 2
800032ac: b3 82 72 00  	add	t0, t0, t2
800032b0: 83 a2 02 00  	lw	t0, 0(t0)
800032b4: 57 40 03 5e  	<unknown>
800032b8: d7 c0 02 5e  	<unknown>
800032bc: ef 30 50 75  	jal	0x80007210 <printf_long>
800032c0: 6f 00 40 00  	j	0x800032c4 <.LBB2_7>

800032c4 <.LBB2_7>:
800032c4: 6f 00 40 00  	j	0x800032c8 <.LBB2_8>

800032c8 <.LBB2_8>:
800032c8: 83 22 c2 ff  	lw	t0, -4(tp)
800032cc: 93 82 12 00  	addi	t0, t0, 1
800032d0: 23 2e 52 fe  	sw	t0, -4(tp)
800032d4: 6f f0 df f4  	j	0x80003220 <.LBB2_1>

800032d8 <.LBB2_9>:
800032d8: 83 20 c1 ff  	lw	ra, -4(sp)
800032dc: 0b c0 00 04  	barrier	x0, x0, 1
800032e0: 13 01 c1 ff  	addi	sp, sp, -4
800032e4: 13 02 42 fe  	addi	tp, tp, -28
800032e8: 67 80 00 00  	ret

800032ec <print_floats_float>:
800032ec: 13 01 41 00  	addi	sp, sp, 4
800032f0: 13 02 02 03  	addi	tp, tp, 48
800032f4: 0b 20 10 00  	regext	zero, zero, 1
800032f8: 57 40 02 5e  	<unknown>
800032fc: 23 2e 11 fe  	sw	ra, -4(sp)
80003300: 0b 20 80 00  	regext	zero, zero, 8
80003304: 7b 68 00 fc  	vsw12.v	v0, -48(v0)
80003308: 0b 20 80 00  	regext	zero, zero, 8
8000330c: 7b 6a 10 fc  	vsw12.v	v1, -44(v0)
80003310: 0b 20 80 00  	regext	zero, zero, 8
80003314: 7b 6c 20 fc  	vsw12.v	v2, -40(v0)
80003318: b7 f2 00 80  	lui	t0, 524303
8000331c: 13 83 42 05  	addi	t1, t0, 84
80003320: 03 23 43 00  	lw	t1, 4(t1)
80003324: 23 20 62 fe  	sw	t1, -32(tp)
80003328: 83 a2 42 05  	lw	t0, 84(t0)
8000332c: 23 2e 52 fc  	sw	t0, -36(tp)
80003330: b7 f2 00 80  	lui	t0, 524303
80003334: 13 83 c2 05  	addi	t1, t0, 92
80003338: 03 23 43 00  	lw	t1, 4(t1)
8000333c: 23 24 62 fe  	sw	t1, -24(tp)
80003340: 83 a2 c2 05  	lw	t0, 92(t0)
80003344: 23 22 52 fe  	sw	t0, -28(tp)
80003348: 83 22 02 fd  	lw	t0, -48(tp)
8000334c: 57 c0 02 5e  	<unknown>
80003350: 2b 00 c0 01  	vlb.v	v0, 28(v0)
80003354: 7b 76 02 fe  	vsb12.v	v0, -20(v4)
80003358: 93 02 00 00  	li	t0, 0
8000335c: 23 28 52 fe  	sw	t0, -16(tp)
80003360: 6f 00 40 00  	j	0x80003364 <.LBB3_1>

80003364 <.LBB3_1>:
80003364: 83 22 02 ff  	lw	t0, -16(tp)
80003368: 03 23 82 fd  	lw	t1, -40(tp)
8000336c: 63 dc 62 18  	bge	t0, t1, 0x80003504 <.LBB3_15>
80003370: 6f 00 40 00  	j	0x80003374 <.LBB3_2>

80003374 <.LBB3_2>:
80003374: 83 22 02 fd  	lw	t0, -48(tp)
80003378: 03 03 c2 fe  	lb	t1, -20(tp)
8000337c: 57 40 03 5e  	<unknown>
80003380: d7 c0 02 5e  	<unknown>
80003384: 2b 8e 00 80  	vsb.v	v0, 28(v1)
80003388: 83 22 02 ff  	lw	t0, -16(tp)
8000338c: 63 80 02 02  	beqz	t0, 0x800033ac <.LBB3_4>
80003390: 6f 00 40 00  	j	0x80003394 <.LBB3_3>

80003394 <.LBB3_3>:
80003394: 03 23 02 fd  	lw	t1, -48(tp)
80003398: 93 02 c0 02  	li	t0, 44
8000339c: 57 40 03 5e  	<unknown>
800033a0: d7 c0 02 5e  	<unknown>
800033a4: ef 10 90 74  	jal	0x800052ec <printf_putcf>
800033a8: 6f 00 40 00  	j	0x800033ac <.LBB3_4>

800033ac <.LBB3_4>:
800033ac: 83 22 42 fd  	lw	t0, -44(tp)
800033b0: 03 23 02 ff  	lw	t1, -16(tp)
800033b4: 13 13 23 00  	slli	t1, t1, 2
800033b8: b3 82 62 00  	add	t0, t0, t1
800033bc: 83 a2 02 00  	lw	t0, 0(t0)
800033c0: 23 2a 52 fe  	sw	t0, -12(tp)
800033c4: 93 02 00 00  	li	t0, 0
800033c8: 23 2c 52 fe  	sw	t0, -8(tp)
800033cc: 83 22 42 ff  	lw	t0, -12(tp)
800033d0: d3 a2 52 a0  	feq.s	t0, t0, t0
800033d4: 63 94 02 04  	bnez	t0, 0x8000341c <.LBB3_6>
800033d8: 6f 00 40 00  	j	0x800033dc <.LBB3_5>

800033dc <.LBB3_5>:
800033dc: 83 22 02 fd  	lw	t0, -48(tp)
800033e0: 57 c0 02 5e  	<unknown>
800033e4: 2b 00 c0 01  	vlb.v	v0, 28(v0)
800033e8: 57 30 0e 96  	vsll.vi	v0, v0, 28
800033ec: 57 30 0c a6  	vsra.vi	v0, v0, 24
800033f0: 57 b0 03 a2  	vsrl.vi	v0, v0, 7
800033f4: 93 02 f0 0f  	li	t0, 255
800033f8: 57 c0 02 26  	vand.vx	v0, v0, t0
800033fc: 57 30 00 66  	vmsne.vi	v0, v0, 0
80003400: 57 30 01 96  	vsll.vi	v0, v0, 2
80003404: 93 02 c2 fd  	addi	t0, tp, -36
80003408: 57 c0 02 02  	vadd.vx	v0, v0, t0
8000340c: 7b 20 00 00  	vlw12.v	v0, 0(v0)
80003410: 0b 20 80 00  	regext	zero, zero, 8
80003414: 7b 6c 00 fe  	vsw12.v	v0, -8(v0)
80003418: 6f 00 40 00  	j	0x8000341c <.LBB3_6>

8000341c <.LBB3_6>:
8000341c: 83 22 42 ff  	lw	t0, -12(tp)
80003420: 37 83 01 80  	lui	t1, 524312
80003424: 03 23 03 24  	lw	t1, 576(t1)
80003428: d3 a2 62 a0  	feq.s	t0, t0, t1
8000342c: 63 88 02 02  	beqz	t0, 0x8000345c <.LBB3_8>
80003430: 6f 00 40 00  	j	0x80003434 <.LBB3_7>

80003434 <.LBB3_7>:
80003434: b7 02 80 7f  	lui	t0, 522240
80003438: 23 2a 52 fe  	sw	t0, -12(tp)
8000343c: 83 22 02 fd  	lw	t0, -48(tp)
80003440: 57 c0 02 5e  	<unknown>
80003444: 2b 00 c0 01  	vlb.v	v0, 28(v0)
80003448: 13 03 00 02  	li	t1, 32
8000344c: 57 40 03 2a  	vor.vx	v0, v0, t1
80003450: d7 c0 02 5e  	<unknown>
80003454: 2b 8e 00 80  	vsb.v	v0, 28(v1)
80003458: 6f 00 40 00  	j	0x8000345c <.LBB3_8>

8000345c <.LBB3_8>:
8000345c: 83 22 42 ff  	lw	t0, -12(tp)
80003460: 37 83 01 80  	lui	t1, 524312
80003464: 03 23 43 24  	lw	t1, 580(t1)
80003468: d3 a2 62 a0  	feq.s	t0, t0, t1
8000346c: 63 84 02 04  	beqz	t0, 0x800034b4 <.LBB3_10>
80003470: 6f 00 40 00  	j	0x80003474 <.LBB3_9>

80003474 <.LBB3_9>:
80003474: 83 22 02 fd  	lw	t0, -48(tp)
80003478: 57 c0 02 5e  	<unknown>
8000347c: 2b 00 c0 01  	vlb.v	v0, 28(v0)
80003480: 57 30 0e 96  	vsll.vi	v0, v0, 28
80003484: 57 30 0c a6  	vsra.vi	v0, v0, 24
80003488: 57 b0 03 a2  	vsrl.vi	v0, v0, 7
8000348c: 93 02 f0 0f  	li	t0, 255
80003490: 57 c0 02 26  	vand.vx	v0, v0, t0
80003494: 57 30 00 66  	vmsne.vi	v0, v0, 0
80003498: 57 30 01 96  	vsll.vi	v0, v0, 2
8000349c: 93 02 42 fe  	addi	t0, tp, -28
800034a0: 57 c0 02 02  	vadd.vx	v0, v0, t0
800034a4: 7b 20 00 00  	vlw12.v	v0, 0(v0)
800034a8: 0b 20 80 00  	regext	zero, zero, 8
800034ac: 7b 6c 00 fe  	vsw12.v	v0, -8(v0)
800034b0: 6f 00 40 00  	j	0x800034b4 <.LBB3_10>

800034b4 <.LBB3_10>:
800034b4: 83 22 82 ff  	lw	t0, -8(tp)
800034b8: 63 80 02 02  	beqz	t0, 0x800034d8 <.LBB3_12>
800034bc: 6f 00 40 00  	j	0x800034c0 <.LBB3_11>

800034c0 <.LBB3_11>:
800034c0: 03 23 02 fd  	lw	t1, -48(tp)
800034c4: 83 22 82 ff  	lw	t0, -8(tp)
800034c8: 57 40 03 5e  	<unknown>
800034cc: d7 c0 02 5e  	<unknown>
800034d0: ef 30 50 3f  	jal	0x800070c4 <printf_nonfinite>
800034d4: 6f 00 c0 01  	j	0x800034f0 <.LBB3_13>

800034d8 <.LBB3_12>:
800034d8: 03 23 02 fd  	lw	t1, -48(tp)
800034dc: 83 22 42 ff  	lw	t0, -12(tp)
800034e0: 57 40 03 5e  	<unknown>
800034e4: d7 c0 02 5e  	<unknown>
800034e8: ef 30 10 58  	jal	0x80007268 <printf_float>
800034ec: 6f 00 40 00  	j	0x800034f0 <.LBB3_13>

800034f0 <.LBB3_13>:
800034f0: 6f 00 40 00  	j	0x800034f4 <.LBB3_14>

800034f4 <.LBB3_14>:
800034f4: 83 22 02 ff  	lw	t0, -16(tp)
800034f8: 93 82 12 00  	addi	t0, t0, 1
800034fc: 23 28 52 fe  	sw	t0, -16(tp)
80003500: 6f f0 5f e6  	j	0x80003364 <.LBB3_1>

80003504 <.LBB3_15>:
80003504: 83 20 c1 ff  	lw	ra, -4(sp)
80003508: 0b c0 00 04  	barrier	x0, x0, 1
8000350c: 13 01 c1 ff  	addi	sp, sp, -4
80003510: 13 02 02 fd  	addi	tp, tp, -48
80003514: 67 80 00 00  	ret

80003518 <printf_format_full>:
80003518: 13 01 01 05  	addi	sp, sp, 80
8000351c: 13 02 02 7f  	addi	tp, tp, 2032
80003520: 13 02 c2 64  	addi	tp, tp, 1612
80003524: 0b 20 10 00  	regext	zero, zero, 1
80003528: 57 40 02 5e  	<unknown>
8000352c: 23 28 11 fa  	sw	ra, -80(sp)
80003530: 0b 20 80 00  	regext	zero, zero, 8
80003534: 7b 6e 00 16  	vsw12.v	v0, 380(v0)
80003538: 0b 20 80 00  	regext	zero, zero, 8
8000353c: 7b 60 10 18  	vsw12.v	v1, 384(v0)
80003540: 0b 20 80 00  	regext	zero, zero, 8
80003544: 7b 62 20 18  	vsw12.v	v2, 388(v0)
80003548: 83 22 02 18  	lw	t0, 384(tp)
8000354c: 13 03 02 00  	mv	t1, tp
80003550: 57 40 03 5e  	<unknown>
80003554: d7 c0 02 5e  	<unknown>
80003558: 2b a0 00 80  	vsw.v	v0, 0(v1)
8000355c: 6f 00 40 00  	j	0x80003560 <.LBB4_1>

80003560 <.LBB4_1>:
80003560: 83 22 c2 17  	lw	t0, 380(tp)
80003564: 13 83 12 00  	addi	t1, t0, 1
80003568: 23 2e 62 16  	sw	t1, 380(tp)
8000356c: 83 c2 02 00  	lbu	t0, 0(t0)
80003570: 37 83 01 80  	lui	t1, 524312
80003574: 23 0e 53 24  	sb	t0, 604(t1)
80003578: 63 94 02 00  	bnez	t0, 0x80003580 <.LBB4_2>
8000357c: 6f 10 d0 31  	j	0x80005098 <.LBB4_218>

80003580 <.LBB4_2>:
80003580: b7 82 01 80  	lui	t0, 524312
80003584: 83 82 c2 25  	lb	t0, 604(t0)
80003588: 13 03 50 02  	li	t1, 37
8000358c: 63 84 62 00  	beq	t0, t1, 0x80003594 <.LBB4_3>
80003590: 6f 10 90 2e  	j	0x80005078 <.LBB4_216>

80003594 <.LBB4_3>:
80003594: 83 22 c2 17  	lw	t0, 380(tp)
80003598: 13 83 12 00  	addi	t1, t0, 1
8000359c: 23 2e 62 16  	sw	t1, 380(tp)
800035a0: 03 83 02 00  	lb	t1, 0(t0)
800035a4: b7 82 01 80  	lui	t0, 524312
800035a8: 23 8e 62 24  	sb	t1, 604(t0)
800035ac: 83 82 c2 25  	lb	t0, 604(t0)
800035b0: 63 9a 02 00  	bnez	t0, 0x800035c4 <.LBB4_5>
800035b4: 6f 00 40 00  	j	0x800035b8 <.LBB4_4>

800035b8 <.LBB4_4>:
800035b8: 93 02 10 01  	li	t0, 17
800035bc: 23 2c 52 e2  	sw	t0, -456(tp)
800035c0: 6f 10 50 2e  	j	0x800050a4 <.LBB4_219>

800035c4 <.LBB4_5>:
800035c4: b7 82 01 80  	lui	t0, 524312
800035c8: 83 82 c2 25  	lb	t0, 604(t0)
800035cc: 13 03 50 02  	li	t1, 37
800035d0: 63 90 62 02  	bne	t0, t1, 0x800035f0 <.LBB4_7>
800035d4: 6f 00 40 00  	j	0x800035d8 <.LBB4_6>

800035d8 <.LBB4_6>:
800035d8: 03 23 02 18  	lw	t1, 384(tp)
800035dc: 93 02 50 02  	li	t0, 37
800035e0: 57 40 03 5e  	<unknown>
800035e4: d7 c0 02 5e  	<unknown>
800035e8: ef 10 50 50  	jal	0x800052ec <printf_putcf>
800035ec: 6f 10 90 28  	j	0x80005074 <.LBB4_215>

800035f0 <.LBB4_7>:
800035f0: 83 42 c2 e3  	lbu	t0, -452(tp)
800035f4: 93 f2 b2 0f  	andi	t0, t0, 251
800035f8: 23 0e 52 e2  	sb	t0, -452(tp)
800035fc: 83 42 c2 e3  	lbu	t0, -452(tp)
80003600: 93 f2 f2 0d  	andi	t0, t0, 223
80003604: 23 0e 52 e2  	sb	t0, -452(tp)
80003608: 83 42 c2 e3  	lbu	t0, -452(tp)
8000360c: 93 f2 f2 0b  	andi	t0, t0, 191
80003610: 23 0e 52 e2  	sb	t0, -452(tp)
80003614: 83 42 c2 e3  	lbu	t0, -452(tp)
80003618: 93 f2 d2 0f  	andi	t0, t0, 253
8000361c: 23 0e 52 e2  	sb	t0, -452(tp)
80003620: 83 42 c2 e3  	lbu	t0, -452(tp)
80003624: 93 f2 e2 0f  	andi	t0, t0, 254
80003628: 23 0e 52 e2  	sb	t0, -452(tp)
8000362c: 83 42 c2 e3  	lbu	t0, -452(tp)
80003630: 93 f2 72 0f  	andi	t0, t0, 247
80003634: 23 0e 52 e2  	sb	t0, -452(tp)
80003638: 83 42 c2 e3  	lbu	t0, -452(tp)
8000363c: 93 f2 f2 0e  	andi	t0, t0, 239
80003640: 23 0e 52 e2  	sb	t0, -452(tp)
80003644: 6f 00 40 00  	j	0x80003648 <.LBB4_8>

80003648 <.LBB4_8>:
80003648: b7 82 01 80  	lui	t0, 524312
8000364c: 83 82 c2 25  	lb	t0, 604(t0)
80003650: 23 22 51 d8  	sw	t0, -636(sp)
80003654: 13 03 00 02  	li	t1, 32
80003658: 63 84 62 0a  	beq	t0, t1, 0x80003700 <.LBB4_19>
8000365c: 6f 00 40 00  	j	0x80003660 <.LBB4_9>

80003660 <.LBB4_9>:
80003660: 83 22 41 d8  	lw	t0, -636(sp)
80003664: 13 03 30 02  	li	t1, 35
80003668: 63 84 62 0c  	beq	t0, t1, 0x80003730 <.LBB4_22>
8000366c: 6f 00 40 00  	j	0x80003670 <.LBB4_10>

80003670 <.LBB4_10>:
80003670: 83 22 41 d8  	lw	t0, -636(sp)
80003674: 13 03 b0 02  	li	t1, 43
80003678: 63 8c 62 04  	beq	t0, t1, 0x800036d0 <.LBB4_16>
8000367c: 6f 00 40 00  	j	0x80003680 <.LBB4_11>

80003680 <.LBB4_11>:
80003680: 83 22 41 d8  	lw	t0, -636(sp)
80003684: 13 03 d0 02  	li	t1, 45
80003688: 63 8c 62 00  	beq	t0, t1, 0x800036a0 <.LBB4_13>
8000368c: 6f 00 40 00  	j	0x80003690 <.LBB4_12>

80003690 <.LBB4_12>:
80003690: 83 22 41 d8  	lw	t0, -636(sp)
80003694: 13 03 00 03  	li	t1, 48
80003698: 63 84 62 0c  	beq	t0, t1, 0x80003760 <.LBB4_25>
8000369c: 6f 00 00 11  	j	0x800037ac <.LBB4_30>

800036a0 <.LBB4_13>:
800036a0: 83 02 c2 e3  	lb	t0, -452(tp)
800036a4: 93 92 d2 01  	slli	t0, t0, 29
800036a8: 93 d2 f2 41  	srai	t0, t0, 31
800036ac: 63 8a 02 00  	beqz	t0, 0x800036c0 <.LBB4_15>
800036b0: 6f 00 40 00  	j	0x800036b4 <.LBB4_14>

800036b4 <.LBB4_14>:
800036b4: 93 02 20 01  	li	t0, 18
800036b8: 23 2c 52 e2  	sw	t0, -456(tp)
800036bc: 6f 10 90 1e  	j	0x800050a4 <.LBB4_219>

800036c0 <.LBB4_15>:
800036c0: 83 02 c2 e3  	lb	t0, -452(tp)
800036c4: 93 e2 42 00  	ori	t0, t0, 4
800036c8: 23 0e 52 e2  	sb	t0, -452(tp)
800036cc: 6f 00 40 0e  	j	0x800037b0 <.LBB4_31>

800036d0 <.LBB4_16>:
800036d0: 83 02 c2 e3  	lb	t0, -452(tp)
800036d4: 93 92 b2 01  	slli	t0, t0, 27
800036d8: 93 d2 f2 41  	srai	t0, t0, 31
800036dc: 63 8a 02 00  	beqz	t0, 0x800036f0 <.LBB4_18>
800036e0: 6f 00 40 00  	j	0x800036e4 <.LBB4_17>

800036e4 <.LBB4_17>:
800036e4: 93 02 30 01  	li	t0, 19
800036e8: 23 2c 52 e2  	sw	t0, -456(tp)
800036ec: 6f 10 90 1b  	j	0x800050a4 <.LBB4_219>

800036f0 <.LBB4_18>:
800036f0: 83 02 c2 e3  	lb	t0, -452(tp)
800036f4: 93 e2 02 01  	ori	t0, t0, 16
800036f8: 23 0e 52 e2  	sb	t0, -452(tp)
800036fc: 6f 00 40 0b  	j	0x800037b0 <.LBB4_31>

80003700 <.LBB4_19>:
80003700: 83 02 c2 e3  	lb	t0, -452(tp)
80003704: 93 92 92 01  	slli	t0, t0, 25
80003708: 93 d2 f2 41  	srai	t0, t0, 31
8000370c: 63 8a 02 00  	beqz	t0, 0x80003720 <.LBB4_21>
80003710: 6f 00 40 00  	j	0x80003714 <.LBB4_20>

80003714 <.LBB4_20>:
80003714: 93 02 40 01  	li	t0, 20
80003718: 23 2c 52 e2  	sw	t0, -456(tp)
8000371c: 6f 10 90 18  	j	0x800050a4 <.LBB4_219>

80003720 <.LBB4_21>:
80003720: 83 02 c2 e3  	lb	t0, -452(tp)
80003724: 93 e2 02 04  	ori	t0, t0, 64
80003728: 23 0e 52 e2  	sb	t0, -452(tp)
8000372c: 6f 00 40 08  	j	0x800037b0 <.LBB4_31>

80003730 <.LBB4_22>:
80003730: 83 02 c2 e3  	lb	t0, -452(tp)
80003734: 93 92 e2 01  	slli	t0, t0, 30
80003738: 93 d2 f2 41  	srai	t0, t0, 31
8000373c: 63 8a 02 00  	beqz	t0, 0x80003750 <.LBB4_24>
80003740: 6f 00 40 00  	j	0x80003744 <.LBB4_23>

80003744 <.LBB4_23>:
80003744: 93 02 50 01  	li	t0, 21
80003748: 23 2c 52 e2  	sw	t0, -456(tp)
8000374c: 6f 10 90 15  	j	0x800050a4 <.LBB4_219>

80003750 <.LBB4_24>:
80003750: 83 02 c2 e3  	lb	t0, -452(tp)
80003754: 93 e2 22 00  	ori	t0, t0, 2
80003758: 23 0e 52 e2  	sb	t0, -452(tp)
8000375c: 6f 00 40 05  	j	0x800037b0 <.LBB4_31>

80003760 <.LBB4_25>:
80003760: 83 42 c2 e3  	lbu	t0, -452(tp)
80003764: 93 f2 12 00  	andi	t0, t0, 1
80003768: 63 8a 02 00  	beqz	t0, 0x8000377c <.LBB4_27>
8000376c: 6f 00 40 00  	j	0x80003770 <.LBB4_26>

80003770 <.LBB4_26>:
80003770: 93 02 60 01  	li	t0, 22
80003774: 23 2c 52 e2  	sw	t0, -456(tp)
80003778: 6f 10 d0 12  	j	0x800050a4 <.LBB4_219>

8000377c <.LBB4_27>:
8000377c: 83 02 c2 e3  	lb	t0, -452(tp)
80003780: 93 92 d2 01  	slli	t0, t0, 29
80003784: 93 d2 82 41  	srai	t0, t0, 24
80003788: 93 d2 72 00  	srli	t0, t0, 7
8000378c: 93 f2 f2 0f  	andi	t0, t0, 255
80003790: 63 9c 02 00  	bnez	t0, 0x800037a8 <.LBB4_29>
80003794: 6f 00 40 00  	j	0x80003798 <.LBB4_28>

80003798 <.LBB4_28>:
80003798: 83 02 c2 e3  	lb	t0, -452(tp)
8000379c: 93 e2 12 00  	ori	t0, t0, 1
800037a0: 23 0e 52 e2  	sb	t0, -452(tp)
800037a4: 6f 00 40 00  	j	0x800037a8 <.LBB4_29>

800037a8 <.LBB4_29>:
800037a8: 6f 00 80 00  	j	0x800037b0 <.LBB4_31>

800037ac <.LBB4_30>:
800037ac: 6f 00 00 02  	j	0x800037cc <.LBB4_32>

800037b0 <.LBB4_31>:
800037b0: 83 22 c2 17  	lw	t0, 380(tp)
800037b4: 13 83 12 00  	addi	t1, t0, 1
800037b8: 23 2e 62 16  	sw	t1, 380(tp)
800037bc: 83 82 02 00  	lb	t0, 0(t0)
800037c0: 37 83 01 80  	lui	t1, 524312
800037c4: 23 0e 53 24  	sb	t0, 604(t1)
800037c8: 6f f0 1f e8  	j	0x80003648 <.LBB4_8>

800037cc <.LBB4_32>:
800037cc: 93 02 00 00  	li	t0, 0
800037d0: 23 20 52 e4  	sw	t0, -448(tp)
800037d4: 6f 00 40 00  	j	0x800037d8 <.LBB4_33>

800037d8 <.LBB4_33>:
800037d8: b7 82 01 80  	lui	t0, 524312
800037dc: 83 82 c2 25  	lb	t0, 604(t0)
800037e0: 93 03 00 00  	li	t2, 0
800037e4: 13 03 00 03  	li	t1, 48
800037e8: 23 24 71 d8  	sw	t2, -632(sp)
800037ec: 63 ce 62 00  	blt	t0, t1, 0x80003808 <.LBB4_35>
800037f0: 6f 00 40 00  	j	0x800037f4 <.LBB4_34>

800037f4 <.LBB4_34>:
800037f4: b7 82 01 80  	lui	t0, 524312
800037f8: 83 82 c2 25  	lb	t0, 604(t0)
800037fc: 93 a2 a2 03  	slti	t0, t0, 58
80003800: 23 24 51 d8  	sw	t0, -632(sp)
80003804: 6f 00 40 00  	j	0x80003808 <.LBB4_35>

80003808 <.LBB4_35>:
80003808: 83 22 81 d8  	lw	t0, -632(sp)
8000380c: 93 f2 12 00  	andi	t0, t0, 1
80003810: 63 88 02 08  	beqz	t0, 0x800038a0 <.LBB4_42>
80003814: 6f 00 40 00  	j	0x80003818 <.LBB4_36>

80003818 <.LBB4_36>:
80003818: b7 82 01 80  	lui	t0, 524312
8000381c: 83 82 c2 25  	lb	t0, 604(t0)
80003820: 13 03 00 03  	li	t1, 48
80003824: 63 90 62 02  	bne	t0, t1, 0x80003844 <.LBB4_39>
80003828: 6f 00 40 00  	j	0x8000382c <.LBB4_37>

8000382c <.LBB4_37>:
8000382c: 83 22 02 e4  	lw	t0, -448(tp)
80003830: 63 9a 02 00  	bnez	t0, 0x80003844 <.LBB4_39>
80003834: 6f 00 40 00  	j	0x80003838 <.LBB4_38>

80003838 <.LBB4_38>:
80003838: 93 02 70 01  	li	t0, 23
8000383c: 23 2c 52 e2  	sw	t0, -456(tp)
80003840: 6f 10 50 06  	j	0x800050a4 <.LBB4_219>

80003844 <.LBB4_39>:
80003844: 83 22 02 e4  	lw	t0, -448(tp)
80003848: 37 d3 cc 0c  	lui	t1, 52429
8000384c: 13 03 c3 cc  	addi	t1, t1, -820
80003850: 63 ca 62 00  	blt	t0, t1, 0x80003864 <.LBB4_41>
80003854: 6f 00 40 00  	j	0x80003858 <.LBB4_40>

80003858 <.LBB4_40>:
80003858: 93 02 80 01  	li	t0, 24
8000385c: 23 2c 52 e2  	sw	t0, -456(tp)
80003860: 6f 10 50 04  	j	0x800050a4 <.LBB4_219>

80003864 <.LBB4_41>:
80003864: 83 22 02 e4  	lw	t0, -448(tp)
80003868: 13 03 a0 00  	li	t1, 10
8000386c: b3 83 62 02  	mul	t2, t0, t1
80003870: 37 83 01 80  	lui	t1, 524312
80003874: 83 02 c3 25  	lb	t0, 604(t1)
80003878: b3 82 72 00  	add	t0, t0, t2
8000387c: 93 03 00 03  	li	t2, 48
80003880: b3 82 72 40  	sub	t0, t0, t2
80003884: 23 20 52 e4  	sw	t0, -448(tp)
80003888: 83 22 c2 17  	lw	t0, 380(tp)
8000388c: 93 83 12 00  	addi	t2, t0, 1
80003890: 23 2e 72 16  	sw	t2, 380(tp)
80003894: 83 82 02 00  	lb	t0, 0(t0)
80003898: 23 0e 53 24  	sb	t0, 604(t1)
8000389c: 6f f0 df f3  	j	0x800037d8 <.LBB4_33>

800038a0 <.LBB4_42>:
800038a0: 93 02 f0 ff  	li	t0, -1
800038a4: 23 22 52 e4  	sw	t0, -444(tp)
800038a8: b7 82 01 80  	lui	t0, 524312
800038ac: 83 82 c2 25  	lb	t0, 604(t0)
800038b0: 13 03 e0 02  	li	t1, 46
800038b4: 63 96 62 0c  	bne	t0, t1, 0x80003980 <.LBB4_51>
800038b8: 6f 00 40 00  	j	0x800038bc <.LBB4_43>

800038bc <.LBB4_43>:
800038bc: 93 02 00 00  	li	t0, 0
800038c0: 23 22 52 e4  	sw	t0, -444(tp)
800038c4: 83 22 c2 17  	lw	t0, 380(tp)
800038c8: 13 83 12 00  	addi	t1, t0, 1
800038cc: 23 2e 62 16  	sw	t1, 380(tp)
800038d0: 83 82 02 00  	lb	t0, 0(t0)
800038d4: 37 83 01 80  	lui	t1, 524312
800038d8: 23 0e 53 24  	sb	t0, 604(t1)
800038dc: 6f 00 40 00  	j	0x800038e0 <.LBB4_44>

800038e0 <.LBB4_44>:
800038e0: b7 82 01 80  	lui	t0, 524312
800038e4: 83 82 c2 25  	lb	t0, 604(t0)
800038e8: 93 03 00 00  	li	t2, 0
800038ec: 13 03 00 03  	li	t1, 48
800038f0: 23 26 71 d8  	sw	t2, -628(sp)
800038f4: 63 ce 62 00  	blt	t0, t1, 0x80003910 <.LBB4_46>
800038f8: 6f 00 40 00  	j	0x800038fc <.LBB4_45>

800038fc <.LBB4_45>:
800038fc: b7 82 01 80  	lui	t0, 524312
80003900: 83 82 c2 25  	lb	t0, 604(t0)
80003904: 93 a2 a2 03  	slti	t0, t0, 58
80003908: 23 26 51 d8  	sw	t0, -628(sp)
8000390c: 6f 00 40 00  	j	0x80003910 <.LBB4_46>

80003910 <.LBB4_46>:
80003910: 83 22 c1 d8  	lw	t0, -628(sp)
80003914: 93 f2 12 00  	andi	t0, t0, 1
80003918: 63 82 02 06  	beqz	t0, 0x8000397c <.LBB4_50>
8000391c: 6f 00 40 00  	j	0x80003920 <.LBB4_47>

80003920 <.LBB4_47>:
80003920: 83 22 42 e4  	lw	t0, -444(tp)
80003924: 37 d3 cc 0c  	lui	t1, 52429
80003928: 13 03 c3 cc  	addi	t1, t1, -820
8000392c: 63 ca 62 00  	blt	t0, t1, 0x80003940 <.LBB4_49>
80003930: 6f 00 40 00  	j	0x80003934 <.LBB4_48>

80003934 <.LBB4_48>:
80003934: 93 02 90 01  	li	t0, 25
80003938: 23 2c 52 e2  	sw	t0, -456(tp)
8000393c: 6f 10 80 76  	j	0x800050a4 <.LBB4_219>

80003940 <.LBB4_49>:
80003940: 83 22 42 e4  	lw	t0, -444(tp)
80003944: 13 03 a0 00  	li	t1, 10
80003948: b3 83 62 02  	mul	t2, t0, t1
8000394c: 37 83 01 80  	lui	t1, 524312
80003950: 83 02 c3 25  	lb	t0, 604(t1)
80003954: b3 82 72 00  	add	t0, t0, t2
80003958: 93 03 00 03  	li	t2, 48
8000395c: b3 82 72 40  	sub	t0, t0, t2
80003960: 23 22 52 e4  	sw	t0, -444(tp)
80003964: 83 22 c2 17  	lw	t0, 380(tp)
80003968: 93 83 12 00  	addi	t2, t0, 1
8000396c: 23 2e 72 16  	sw	t2, 380(tp)
80003970: 83 82 02 00  	lb	t0, 0(t0)
80003974: 23 0e 53 24  	sb	t0, 604(t1)
80003978: 6f f0 9f f6  	j	0x800038e0 <.LBB4_44>

8000397c <.LBB4_50>:
8000397c: 6f 00 40 00  	j	0x80003980 <.LBB4_51>

80003980 <.LBB4_51>:
80003980: 93 02 00 00  	li	t0, 0
80003984: 23 24 52 e4  	sw	t0, -440(tp)
80003988: b7 82 01 80  	lui	t0, 524312
8000398c: 83 82 c2 25  	lb	t0, 604(t0)
80003990: 13 03 60 07  	li	t1, 118
80003994: 63 96 62 14  	bne	t0, t1, 0x80003ae0 <.LBB4_69>
80003998: 6f 00 40 00  	j	0x8000399c <.LBB4_52>

8000399c <.LBB4_52>:
8000399c: 83 22 c2 17  	lw	t0, 380(tp)
800039a0: 13 83 12 00  	addi	t1, t0, 1
800039a4: 23 2e 62 16  	sw	t1, 380(tp)
800039a8: 83 82 02 00  	lb	t0, 0(t0)
800039ac: 37 83 01 80  	lui	t1, 524312
800039b0: 23 0e 53 24  	sb	t0, 604(t1)
800039b4: 6f 00 40 00  	j	0x800039b8 <.LBB4_53>

800039b8 <.LBB4_53>:
800039b8: b7 82 01 80  	lui	t0, 524312
800039bc: 83 82 c2 25  	lb	t0, 604(t0)
800039c0: 93 03 00 00  	li	t2, 0
800039c4: 13 03 00 03  	li	t1, 48
800039c8: 23 28 71 d8  	sw	t2, -624(sp)
800039cc: 63 ce 62 00  	blt	t0, t1, 0x800039e8 <.LBB4_55>
800039d0: 6f 00 40 00  	j	0x800039d4 <.LBB4_54>

800039d4 <.LBB4_54>:
800039d4: b7 82 01 80  	lui	t0, 524312
800039d8: 83 82 c2 25  	lb	t0, 604(t0)
800039dc: 93 a2 a2 03  	slti	t0, t0, 58
800039e0: 23 28 51 d8  	sw	t0, -624(sp)
800039e4: 6f 00 40 00  	j	0x800039e8 <.LBB4_55>

800039e8 <.LBB4_55>:
800039e8: 83 22 01 d9  	lw	t0, -624(sp)
800039ec: 93 f2 12 00  	andi	t0, t0, 1
800039f0: 63 88 02 08  	beqz	t0, 0x80003a80 <.LBB4_62>
800039f4: 6f 00 40 00  	j	0x800039f8 <.LBB4_56>

800039f8 <.LBB4_56>:
800039f8: b7 82 01 80  	lui	t0, 524312
800039fc: 83 82 c2 25  	lb	t0, 604(t0)
80003a00: 13 03 00 03  	li	t1, 48
80003a04: 63 90 62 02  	bne	t0, t1, 0x80003a24 <.LBB4_59>
80003a08: 6f 00 40 00  	j	0x80003a0c <.LBB4_57>

80003a0c <.LBB4_57>:
80003a0c: 83 22 82 e4  	lw	t0, -440(tp)
80003a10: 63 9a 02 00  	bnez	t0, 0x80003a24 <.LBB4_59>
80003a14: 6f 00 40 00  	j	0x80003a18 <.LBB4_58>

80003a18 <.LBB4_58>:
80003a18: 93 02 00 02  	li	t0, 32
80003a1c: 23 2c 52 e2  	sw	t0, -456(tp)
80003a20: 6f 10 40 68  	j	0x800050a4 <.LBB4_219>

80003a24 <.LBB4_59>:
80003a24: 83 22 82 e4  	lw	t0, -440(tp)
80003a28: 37 d3 cc 0c  	lui	t1, 52429
80003a2c: 13 03 c3 cc  	addi	t1, t1, -820
80003a30: 63 ca 62 00  	blt	t0, t1, 0x80003a44 <.LBB4_61>
80003a34: 6f 00 40 00  	j	0x80003a38 <.LBB4_60>

80003a38 <.LBB4_60>:
80003a38: 93 02 10 02  	li	t0, 33
80003a3c: 23 2c 52 e2  	sw	t0, -456(tp)
80003a40: 6f 10 40 66  	j	0x800050a4 <.LBB4_219>

80003a44 <.LBB4_61>:
80003a44: 83 22 82 e4  	lw	t0, -440(tp)
80003a48: 13 03 a0 00  	li	t1, 10
80003a4c: b3 83 62 02  	mul	t2, t0, t1
80003a50: 37 83 01 80  	lui	t1, 524312
80003a54: 83 02 c3 25  	lb	t0, 604(t1)
80003a58: b3 82 72 00  	add	t0, t0, t2
80003a5c: 93 03 00 03  	li	t2, 48
80003a60: b3 82 72 40  	sub	t0, t0, t2
80003a64: 23 24 52 e4  	sw	t0, -440(tp)
80003a68: 83 22 c2 17  	lw	t0, 380(tp)
80003a6c: 93 83 12 00  	addi	t2, t0, 1
80003a70: 23 2e 72 16  	sw	t2, 380(tp)
80003a74: 83 82 02 00  	lb	t0, 0(t0)
80003a78: 23 0e 53 24  	sb	t0, 604(t1)
80003a7c: 6f f0 df f3  	j	0x800039b8 <.LBB4_53>

80003a80 <.LBB4_62>:
80003a80: 83 22 82 e4  	lw	t0, -440(tp)
80003a84: 13 03 20 00  	li	t1, 2
80003a88: 63 8a 62 04  	beq	t0, t1, 0x80003adc <.LBB4_68>
80003a8c: 6f 00 40 00  	j	0x80003a90 <.LBB4_63>

80003a90 <.LBB4_63>:
80003a90: 83 22 82 e4  	lw	t0, -440(tp)
80003a94: 13 03 30 00  	li	t1, 3
80003a98: 63 82 62 04  	beq	t0, t1, 0x80003adc <.LBB4_68>
80003a9c: 6f 00 40 00  	j	0x80003aa0 <.LBB4_64>

80003aa0 <.LBB4_64>:
80003aa0: 83 22 82 e4  	lw	t0, -440(tp)
80003aa4: 13 03 40 00  	li	t1, 4
80003aa8: 63 8a 62 02  	beq	t0, t1, 0x80003adc <.LBB4_68>
80003aac: 6f 00 40 00  	j	0x80003ab0 <.LBB4_65>

80003ab0 <.LBB4_65>:
80003ab0: 83 22 82 e4  	lw	t0, -440(tp)
80003ab4: 13 03 80 00  	li	t1, 8
80003ab8: 63 82 62 02  	beq	t0, t1, 0x80003adc <.LBB4_68>
80003abc: 6f 00 40 00  	j	0x80003ac0 <.LBB4_66>

80003ac0 <.LBB4_66>:
80003ac0: 83 22 82 e4  	lw	t0, -440(tp)
80003ac4: 13 03 00 01  	li	t1, 16
80003ac8: 63 8a 62 00  	beq	t0, t1, 0x80003adc <.LBB4_68>
80003acc: 6f 00 40 00  	j	0x80003ad0 <.LBB4_67>

80003ad0 <.LBB4_67>:
80003ad0: 93 02 20 02  	li	t0, 34
80003ad4: 23 2c 52 e2  	sw	t0, -456(tp)
80003ad8: 6f 10 c0 5c  	j	0x800050a4 <.LBB4_219>

80003adc <.LBB4_68>:
80003adc: 6f 00 40 00  	j	0x80003ae0 <.LBB4_69>

80003ae0 <.LBB4_69>:
80003ae0: 93 02 00 00  	li	t0, 0
80003ae4: 23 26 52 e4  	sw	t0, -436(tp)
80003ae8: b7 82 01 80  	lui	t0, 524312
80003aec: 83 82 c2 25  	lb	t0, 604(t0)
80003af0: 13 03 80 06  	li	t1, 104
80003af4: 63 90 62 0a  	bne	t0, t1, 0x80003b94 <.LBB4_77>
80003af8: 6f 00 40 00  	j	0x80003afc <.LBB4_70>

80003afc <.LBB4_70>:
80003afc: 83 22 c2 17  	lw	t0, 380(tp)
80003b00: 13 83 12 00  	addi	t1, t0, 1
80003b04: 23 2e 62 16  	sw	t1, 380(tp)
80003b08: 03 83 02 00  	lb	t1, 0(t0)
80003b0c: b7 82 01 80  	lui	t0, 524312
80003b10: 23 8e 62 24  	sb	t1, 604(t0)
80003b14: 83 82 c2 25  	lb	t0, 604(t0)
80003b18: 13 03 80 06  	li	t1, 104
80003b1c: 63 96 62 02  	bne	t0, t1, 0x80003b48 <.LBB4_72>
80003b20: 6f 00 40 00  	j	0x80003b24 <.LBB4_71>

80003b24 <.LBB4_71>:
80003b24: 83 22 c2 17  	lw	t0, 380(tp)
80003b28: 13 83 12 00  	addi	t1, t0, 1
80003b2c: 23 2e 62 16  	sw	t1, 380(tp)
80003b30: 83 82 02 00  	lb	t0, 0(t0)
80003b34: 37 83 01 80  	lui	t1, 524312
80003b38: 23 0e 53 24  	sb	t0, 604(t1)
80003b3c: 93 02 10 00  	li	t0, 1
80003b40: 23 26 52 e4  	sw	t0, -436(tp)
80003b44: 6f 00 c0 04  	j	0x80003b90 <.LBB4_76>

80003b48 <.LBB4_72>:
80003b48: b7 82 01 80  	lui	t0, 524312
80003b4c: 83 82 c2 25  	lb	t0, 604(t0)
80003b50: 13 03 c0 06  	li	t1, 108
80003b54: 63 96 62 02  	bne	t0, t1, 0x80003b80 <.LBB4_74>
80003b58: 6f 00 40 00  	j	0x80003b5c <.LBB4_73>

80003b5c <.LBB4_73>:
80003b5c: 83 22 c2 17  	lw	t0, 380(tp)
80003b60: 13 83 12 00  	addi	t1, t0, 1
80003b64: 23 2e 62 16  	sw	t1, 380(tp)
80003b68: 83 82 02 00  	lb	t0, 0(t0)
80003b6c: 37 83 01 80  	lui	t1, 524312
80003b70: 23 0e 53 24  	sb	t0, 604(t1)
80003b74: 93 02 40 00  	li	t0, 4
80003b78: 23 26 52 e4  	sw	t0, -436(tp)
80003b7c: 6f 00 00 01  	j	0x80003b8c <.LBB4_75>

80003b80 <.LBB4_74>:
80003b80: 93 02 20 00  	li	t0, 2
80003b84: 23 26 52 e4  	sw	t0, -436(tp)
80003b88: 6f 00 40 00  	j	0x80003b8c <.LBB4_75>

80003b8c <.LBB4_75>:
80003b8c: 6f 00 40 00  	j	0x80003b90 <.LBB4_76>

80003b90 <.LBB4_76>:
80003b90: 6f 00 00 04  	j	0x80003bd0 <.LBB4_80>

80003b94 <.LBB4_77>:
80003b94: b7 82 01 80  	lui	t0, 524312
80003b98: 83 82 c2 25  	lb	t0, 604(t0)
80003b9c: 13 03 c0 06  	li	t1, 108
80003ba0: 63 96 62 02  	bne	t0, t1, 0x80003bcc <.LBB4_79>
80003ba4: 6f 00 40 00  	j	0x80003ba8 <.LBB4_78>

80003ba8 <.LBB4_78>:
80003ba8: 83 22 c2 17  	lw	t0, 380(tp)
80003bac: 13 83 12 00  	addi	t1, t0, 1
80003bb0: 23 2e 62 16  	sw	t1, 380(tp)
80003bb4: 83 82 02 00  	lb	t0, 0(t0)
80003bb8: 37 83 01 80  	lui	t1, 524312
80003bbc: 23 0e 53 24  	sb	t0, 604(t1)
80003bc0: 93 02 80 00  	li	t0, 8
80003bc4: 23 26 52 e4  	sw	t0, -436(tp)
80003bc8: 6f 00 40 00  	j	0x80003bcc <.LBB4_79>

80003bcc <.LBB4_79>:
80003bcc: 6f 00 40 00  	j	0x80003bd0 <.LBB4_80>

80003bd0 <.LBB4_80>:
80003bd0: 03 23 82 e4  	lw	t1, -440(tp)
80003bd4: 93 02 00 00  	li	t0, 0
80003bd8: 63 d0 62 02  	bge	t0, t1, 0x80003bf8 <.LBB4_83>
80003bdc: 6f 00 40 00  	j	0x80003be0 <.LBB4_81>

80003be0 <.LBB4_81>:
80003be0: 83 22 c2 e4  	lw	t0, -436(tp)
80003be4: 63 9a 02 00  	bnez	t0, 0x80003bf8 <.LBB4_83>
80003be8: 6f 00 40 00  	j	0x80003bec <.LBB4_82>

80003bec <.LBB4_82>:
80003bec: 93 02 30 02  	li	t0, 35
80003bf0: 23 2c 52 e2  	sw	t0, -456(tp)
80003bf4: 6f 10 00 4b  	j	0x800050a4 <.LBB4_219>

80003bf8 <.LBB4_83>:
80003bf8: 83 22 82 e4  	lw	t0, -440(tp)
80003bfc: 63 92 02 02  	bnez	t0, 0x80003c20 <.LBB4_86>
80003c00: 6f 00 40 00  	j	0x80003c04 <.LBB4_84>

80003c04 <.LBB4_84>:
80003c04: 83 22 c2 e4  	lw	t0, -436(tp)
80003c08: 13 03 40 00  	li	t1, 4
80003c0c: 63 9a 62 00  	bne	t0, t1, 0x80003c20 <.LBB4_86>
80003c10: 6f 00 40 00  	j	0x80003c14 <.LBB4_85>

80003c14 <.LBB4_85>:
80003c14: 93 02 40 02  	li	t0, 36
80003c18: 23 2c 52 e2  	sw	t0, -456(tp)
80003c1c: 6f 10 80 48  	j	0x800050a4 <.LBB4_219>

80003c20 <.LBB4_86>:
80003c20: 83 22 82 e4  	lw	t0, -440(tp)
80003c24: 63 9a 02 00  	bnez	t0, 0x80003c38 <.LBB4_88>
80003c28: 6f 00 40 00  	j	0x80003c2c <.LBB4_87>

80003c2c <.LBB4_87>:
80003c2c: 93 02 10 00  	li	t0, 1
80003c30: 23 24 52 e4  	sw	t0, -440(tp)
80003c34: 6f 00 40 00  	j	0x80003c38 <.LBB4_88>

80003c38 <.LBB4_88>:
80003c38: 83 22 02 18  	lw	t0, 384(tp)
80003c3c: 03 03 c2 e3  	lb	t1, -452(tp)
80003c40: 57 40 03 5e  	<unknown>
80003c44: d7 c0 02 5e  	<unknown>
80003c48: 2b 8e 00 80  	vsb.v	v0, 28(v1)
80003c4c: b7 82 01 80  	lui	t0, 524312
80003c50: 83 83 c2 25  	lb	t2, 604(t0)
80003c54: 03 23 02 18  	lw	t1, 384(tp)
80003c58: 57 c0 03 5e  	<unknown>
80003c5c: d7 40 03 5e  	<unknown>
80003c60: ab 8e 00 80  	vsb.v	v0, 29(v1)
80003c64: 83 23 02 e4  	lw	t2, -448(tp)
80003c68: 03 23 02 18  	lw	t1, 384(tp)
80003c6c: 57 c0 03 5e  	<unknown>
80003c70: d7 40 03 5e  	<unknown>
80003c74: 2b aa 00 80  	vsw.v	v0, 20(v1)
80003c78: 83 23 42 e4  	lw	t2, -444(tp)
80003c7c: 03 23 02 18  	lw	t1, 384(tp)
80003c80: 57 c0 03 5e  	<unknown>
80003c84: d7 40 03 5e  	<unknown>
80003c88: 2b a8 00 80  	vsw.v	v0, 16(v1)
80003c8c: 83 82 c2 25  	lb	t0, 604(t0)
80003c90: 23 2a 51 d8  	sw	t0, -620(sp)
80003c94: 13 03 10 04  	li	t1, 65
80003c98: e3 8e 62 46  	beq	t0, t1, 0x80004914 <.LBB4_156>
80003c9c: 6f 00 40 00  	j	0x80003ca0 <.LBB4_89>

80003ca0 <.LBB4_89>:
80003ca0: 83 22 41 d9  	lw	t0, -620(sp)
80003ca4: 13 03 50 04  	li	t1, 69
80003ca8: b3 82 62 40  	sub	t0, t0, t1
80003cac: 13 03 30 00  	li	t1, 3
80003cb0: e3 e2 62 46  	bltu	t0, t1, 0x80004914 <.LBB4_156>
80003cb4: 6f 00 40 00  	j	0x80003cb8 <.LBB4_90>

80003cb8 <.LBB4_90>:
80003cb8: 83 22 41 d9  	lw	t0, -620(sp)
80003cbc: 13 03 80 05  	li	t1, 88
80003cc0: 63 88 62 0a  	beq	t0, t1, 0x80003d70 <.LBB4_101>
80003cc4: 6f 00 40 00  	j	0x80003cc8 <.LBB4_91>

80003cc8 <.LBB4_91>:
80003cc8: 83 22 41 d9  	lw	t0, -620(sp)
80003ccc: 13 03 10 06  	li	t1, 97
80003cd0: e3 82 62 44  	beq	t0, t1, 0x80004914 <.LBB4_156>
80003cd4: 6f 00 40 00  	j	0x80003cd8 <.LBB4_92>

80003cd8 <.LBB4_92>:
80003cd8: 83 22 41 d9  	lw	t0, -620(sp)
80003cdc: 13 03 30 06  	li	t1, 99
80003ce0: 63 94 62 00  	bne	t0, t1, 0x80003ce8 <.LBB4_93>
80003ce4: 6f 10 c0 01  	j	0x80004d00 <.LBB4_173>

80003ce8 <.LBB4_93>:
80003ce8: 83 22 41 d9  	lw	t0, -620(sp)
80003cec: 13 03 40 06  	li	t1, 100
80003cf0: 63 80 62 08  	beq	t0, t1, 0x80003d70 <.LBB4_101>
80003cf4: 6f 00 40 00  	j	0x80003cf8 <.LBB4_94>

80003cf8 <.LBB4_94>:
80003cf8: 83 22 41 d9  	lw	t0, -620(sp)
80003cfc: 13 03 50 06  	li	t1, 101
80003d00: b3 82 62 40  	sub	t0, t0, t1
80003d04: 13 03 30 00  	li	t1, 3
80003d08: e3 e6 62 40  	bltu	t0, t1, 0x80004914 <.LBB4_156>
80003d0c: 6f 00 40 00  	j	0x80003d10 <.LBB4_95>

80003d10 <.LBB4_95>:
80003d10: 83 22 41 d9  	lw	t0, -620(sp)
80003d14: 13 03 90 06  	li	t1, 105
80003d18: 63 8c 62 04  	beq	t0, t1, 0x80003d70 <.LBB4_101>
80003d1c: 6f 00 40 00  	j	0x80003d20 <.LBB4_96>

80003d20 <.LBB4_96>:
80003d20: 83 22 41 d9  	lw	t0, -620(sp)
80003d24: 13 03 f0 06  	li	t1, 111
80003d28: 63 84 62 04  	beq	t0, t1, 0x80003d70 <.LBB4_101>
80003d2c: 6f 00 40 00  	j	0x80003d30 <.LBB4_97>

80003d30 <.LBB4_97>:
80003d30: 83 22 41 d9  	lw	t0, -620(sp)
80003d34: 13 03 00 07  	li	t1, 112
80003d38: 63 94 62 00  	bne	t0, t1, 0x80003d40 <.LBB4_98>
80003d3c: 6f 10 00 23  	j	0x80004f6c <.LBB4_201>

80003d40 <.LBB4_98>:
80003d40: 83 22 41 d9  	lw	t0, -620(sp)
80003d44: 13 03 30 07  	li	t1, 115
80003d48: 63 94 62 00  	bne	t0, t1, 0x80003d50 <.LBB4_99>
80003d4c: 6f 10 40 0b  	j	0x80004e00 <.LBB4_185>

80003d50 <.LBB4_99>:
80003d50: 83 22 41 d9  	lw	t0, -620(sp)
80003d54: 13 03 50 07  	li	t1, 117
80003d58: 63 8c 62 00  	beq	t0, t1, 0x80003d70 <.LBB4_101>
80003d5c: 6f 00 40 00  	j	0x80003d60 <.LBB4_100>

80003d60 <.LBB4_100>:
80003d60: 83 22 41 d9  	lw	t0, -620(sp)
80003d64: 13 03 80 07  	li	t1, 120
80003d68: 63 84 62 00  	beq	t0, t1, 0x80003d70 <.LBB4_101>
80003d6c: 6f 10 80 2f  	j	0x80005064 <.LBB4_213>

80003d70 <.LBB4_101>:
80003d70: 93 02 a0 00  	li	t0, 10
80003d74: 23 28 52 e4  	sw	t0, -432(tp)
80003d78: b7 82 01 80  	lui	t0, 524312
80003d7c: 83 82 c2 25  	lb	t0, 604(t0)
80003d80: 13 03 80 07  	li	t1, 120
80003d84: 63 8e 62 00  	beq	t0, t1, 0x80003da0 <.LBB4_103>
80003d88: 6f 00 40 00  	j	0x80003d8c <.LBB4_102>

80003d8c <.LBB4_102>:
80003d8c: b7 82 01 80  	lui	t0, 524312
80003d90: 83 82 c2 25  	lb	t0, 604(t0)
80003d94: 13 03 80 05  	li	t1, 88
80003d98: 63 9a 62 00  	bne	t0, t1, 0x80003dac <.LBB4_104>
80003d9c: 6f 00 40 00  	j	0x80003da0 <.LBB4_103>

80003da0 <.LBB4_103>:
80003da0: 93 02 00 01  	li	t0, 16
80003da4: 23 28 52 e4  	sw	t0, -432(tp)
80003da8: 6f 00 40 00  	j	0x80003dac <.LBB4_104>

80003dac <.LBB4_104>:
80003dac: b7 82 01 80  	lui	t0, 524312
80003db0: 83 82 c2 25  	lb	t0, 604(t0)
80003db4: 13 03 f0 06  	li	t1, 111
80003db8: 63 9a 62 00  	bne	t0, t1, 0x80003dcc <.LBB4_106>
80003dbc: 6f 00 40 00  	j	0x80003dc0 <.LBB4_105>

80003dc0 <.LBB4_105>:
80003dc0: 93 02 80 00  	li	t0, 8
80003dc4: 23 28 52 e4  	sw	t0, -432(tp)
80003dc8: 6f 00 40 00  	j	0x80003dcc <.LBB4_106>

80003dcc <.LBB4_106>:
80003dcc: b7 82 01 80  	lui	t0, 524312
80003dd0: 83 82 c2 25  	lb	t0, 604(t0)
80003dd4: 13 03 80 05  	li	t1, 88
80003dd8: 63 92 62 02  	bne	t0, t1, 0x80003dfc <.LBB4_108>
80003ddc: 6f 00 40 00  	j	0x80003de0 <.LBB4_107>

80003de0 <.LBB4_107>:
80003de0: 83 22 02 18  	lw	t0, 384(tp)
80003de4: 57 c0 02 5e  	<unknown>
80003de8: 2b 00 c0 01  	vlb.v	v0, 28(v0)
80003dec: 57 30 04 2a  	vor.vi	v0, v0, 8
80003df0: d7 c0 02 5e  	<unknown>
80003df4: 2b 8e 00 80  	vsb.v	v0, 28(v1)
80003df8: 6f 00 40 00  	j	0x80003dfc <.LBB4_108>

80003dfc <.LBB4_108>:
80003dfc: b7 82 01 80  	lui	t0, 524312
80003e00: 83 82 c2 25  	lb	t0, 604(t0)
80003e04: 93 03 10 00  	li	t2, 1
80003e08: 13 03 50 07  	li	t1, 117
80003e0c: 23 2c 71 d8  	sw	t2, -616(sp)
80003e10: 63 8e 62 00  	beq	t0, t1, 0x80003e2c <.LBB4_110>
80003e14: 6f 00 40 00  	j	0x80003e18 <.LBB4_109>

80003e18 <.LBB4_109>:
80003e18: 83 22 02 e5  	lw	t0, -432(tp)
80003e1c: 93 82 62 ff  	addi	t0, t0, -10
80003e20: b3 32 50 00  	snez	t0, t0
80003e24: 23 2c 51 d8  	sw	t0, -616(sp)
80003e28: 6f 00 40 00  	j	0x80003e2c <.LBB4_110>

80003e2c <.LBB4_110>:
80003e2c: 83 22 81 d9  	lw	t0, -616(sp)
80003e30: 93 f2 12 00  	andi	t0, t0, 1
80003e34: 23 2a 52 e4  	sw	t0, -428(tp)
80003e38: 83 22 02 18  	lw	t0, 384(tp)
80003e3c: 57 c0 02 5e  	<unknown>
80003e40: ab 20 00 01  	vlw.v	v1, 16(v0)
80003e44: 93 02 00 00  	li	t0, 0
80003e48: 57 c0 02 5e  	<unknown>

80003e4c <.Lpcrel_hi0>:
80003e4c: 17 03 00 00  	auipc	t1, 0
80003e50: 5b 30 03 03  	setrpc	zero, t1, 48
80003e54: 5b d4 00 02  	vbge	v0, v1, 0x80003e7c <.LBB4_112>
80003e58: 6f 00 40 00  	j	0x80003e5c <.LBB4_111>

80003e5c <.LBB4_111>:
80003e5c: 83 22 02 18  	lw	t0, 384(tp)
80003e60: 57 c0 02 5e  	<unknown>
80003e64: 2b 40 c0 01  	vlbu.v	v0, 28(v0)
80003e68: 13 03 e0 0f  	li	t1, 254
80003e6c: 57 40 03 26  	vand.vx	v0, v0, t1
80003e70: d7 c0 02 5e  	<unknown>
80003e74: 2b 8e 00 80  	vsb.v	v0, 28(v1)
80003e78: 6f 00 40 00  	j	0x80003e7c <.LBB4_112>

80003e7c <.LBB4_112>:
80003e7c: 5b 20 00 00  	join	zero, zero, 0
80003e80: 83 22 42 e4  	lw	t0, -444(tp)
80003e84: 63 d2 02 02  	bgez	t0, 0x80003ea8 <.LBB4_114>
80003e88: 6f 00 40 00  	j	0x80003e8c <.LBB4_113>

80003e8c <.LBB4_113>:
80003e8c: 03 23 02 18  	lw	t1, 384(tp)
80003e90: 93 02 10 00  	li	t0, 1
80003e94: 57 c0 02 5e  	<unknown>
80003e98: d7 40 03 5e  	<unknown>
80003e9c: 2b a8 00 80  	vsw.v	v0, 16(v1)
80003ea0: 23 22 52 e4  	sw	t0, -444(tp)
80003ea4: 6f 00 40 00  	j	0x80003ea8 <.LBB4_114>

80003ea8 <.LBB4_114>:
80003ea8: 03 23 02 e5  	lw	t1, -432(tp)
80003eac: 83 22 02 18  	lw	t0, 384(tp)
80003eb0: 57 40 03 5e  	<unknown>
80003eb4: d7 c0 02 5e  	<unknown>
80003eb8: 2b ac 00 80  	vsw.v	v0, 24(v1)
80003ebc: 83 22 c2 e4  	lw	t0, -436(tp)
80003ec0: 23 2e 51 d8  	sw	t0, -612(sp)
80003ec4: 63 84 02 6e  	beqz	t0, 0x800045ac <.LBB4_142>
80003ec8: 6f 00 40 00  	j	0x80003ecc <.LBB4_115>

80003ecc <.LBB4_115>:
80003ecc: 83 22 c1 d9  	lw	t0, -612(sp)
80003ed0: 13 03 10 00  	li	t1, 1
80003ed4: 63 8e 62 00  	beq	t0, t1, 0x80003ef0 <.LBB4_118>
80003ed8: 6f 00 40 00  	j	0x80003edc <.LBB4_116>

80003edc <.LBB4_116>:
80003edc: 83 22 c1 d9  	lw	t0, -612(sp)
80003ee0: 13 03 20 00  	li	t1, 2
80003ee4: 63 84 62 36  	beq	t0, t1, 0x8000424c <.LBB4_130>
80003ee8: 6f 00 40 00  	j	0x80003eec <.LBB4_117>

80003eec <.LBB4_117>:
80003eec: 6f 00 00 6c  	j	0x800045ac <.LBB4_142>

80003ef0 <.LBB4_118>:
80003ef0: 83 22 82 e4  	lw	t0, -440(tp)
80003ef4: 23 20 51 da  	sw	t0, -608(sp)
80003ef8: 13 03 10 00  	li	t1, 1
80003efc: 63 82 62 04  	beq	t0, t1, 0x80003f40 <.LBB4_124>
80003f00: 6f 00 40 00  	j	0x80003f04 <.LBB4_119>

80003f04 <.LBB4_119>:
80003f04: 83 22 01 da  	lw	t0, -608(sp)
80003f08: 13 03 20 00  	li	t1, 2
80003f0c: 63 82 62 0c  	beq	t0, t1, 0x80003fd0 <.LBB4_125>
80003f10: 6f 00 40 00  	j	0x80003f14 <.LBB4_120>

80003f14 <.LBB4_120>:
80003f14: 83 22 01 da  	lw	t0, -608(sp)
80003f18: 13 03 30 00  	li	t1, 3
80003f1c: b3 82 62 40  	sub	t0, t0, t1
80003f20: 13 03 20 00  	li	t1, 2
80003f24: 63 ee 62 12  	bltu	t0, t1, 0x80004060 <.LBB4_126>
80003f28: 6f 00 40 00  	j	0x80003f2c <.LBB4_121>

80003f2c <.LBB4_121>:
80003f2c: 83 22 01 da  	lw	t0, -608(sp)
80003f30: 13 03 80 00  	li	t1, 8
80003f34: 63 8e 62 1a  	beq	t0, t1, 0x800040f0 <.LBB4_127>
80003f38: 6f 00 40 00  	j	0x80003f3c <.LBB4_122>

80003f3c <.LBB4_122>:
80003f3c: 6f 00 00 25  	j	0x8000418c <.LBB4_128>

80003f40 <.LBB4_124>:
80003f40: 83 22 42 18  	lw	t0, 388(tp)
80003f44: 13 83 42 00  	addi	t1, t0, 4
80003f48: 23 22 62 18  	sw	t1, 388(tp)
80003f4c: 83 82 02 00  	lb	t0, 0(t0)
80003f50: 03 03 52 e6  	lb	t1, -411(tp)
80003f54: 83 03 62 e6  	lb	t2, -410(tp)
80003f58: 03 04 72 e6  	lb	s0, -409(tp)
80003f5c: 83 04 82 e6  	lb	s1, -408(tp)
80003f60: 03 05 92 e6  	lb	a0, -407(tp)
80003f64: 83 05 a2 e6  	lb	a1, -406(tp)
80003f68: 03 06 b2 e6  	lb	a2, -405(tp)
80003f6c: 83 06 c2 e6  	lb	a3, -404(tp)
80003f70: 03 07 d2 e6  	lb	a4, -403(tp)
80003f74: 83 07 e2 e6  	lb	a5, -402(tp)
80003f78: 03 08 f2 e6  	lb	a6, -401(tp)
80003f7c: 83 08 02 e7  	lb	a7, -400(tp)
80003f80: 03 09 12 e7  	lb	s2, -399(tp)
80003f84: 83 09 22 e7  	lb	s3, -398(tp)
80003f88: 03 0a 32 e7  	lb	s4, -397(tp)
80003f8c: a3 09 42 e7  	sb	s4, -397(tp)
80003f90: 23 09 32 e7  	sb	s3, -398(tp)
80003f94: a3 08 22 e7  	sb	s2, -399(tp)
80003f98: 23 08 12 e7  	sb	a7, -400(tp)
80003f9c: a3 07 02 e7  	sb	a6, -401(tp)
80003fa0: 23 07 f2 e6  	sb	a5, -402(tp)
80003fa4: a3 06 e2 e6  	sb	a4, -403(tp)
80003fa8: 23 06 d2 e6  	sb	a3, -404(tp)
80003fac: a3 05 c2 e6  	sb	a2, -405(tp)
80003fb0: 23 05 b2 e6  	sb	a1, -406(tp)
80003fb4: a3 04 a2 e6  	sb	a0, -407(tp)
80003fb8: 23 04 92 e6  	sb	s1, -408(tp)
80003fbc: a3 03 82 e6  	sb	s0, -409(tp)
80003fc0: 23 03 72 e6  	sb	t2, -410(tp)
80003fc4: a3 02 62 e6  	sb	t1, -411(tp)
80003fc8: 23 02 52 e6  	sb	t0, -412(tp)
80003fcc: 6f 00 80 25  	j	0x80004224 <.LBB4_129>

80003fd0 <.LBB4_125>:
80003fd0: 03 23 42 18  	lw	t1, 388(tp)
80003fd4: 93 02 43 00  	addi	t0, t1, 4
80003fd8: 23 22 52 18  	sw	t0, 388(tp)
80003fdc: 83 02 03 00  	lb	t0, 0(t1)
80003fe0: 03 03 13 00  	lb	t1, 1(t1)
80003fe4: 83 03 62 e6  	lb	t2, -410(tp)
80003fe8: 03 04 72 e6  	lb	s0, -409(tp)
80003fec: 83 04 82 e6  	lb	s1, -408(tp)
80003ff0: 03 05 92 e6  	lb	a0, -407(tp)
80003ff4: 83 05 a2 e6  	lb	a1, -406(tp)
80003ff8: 03 06 b2 e6  	lb	a2, -405(tp)
80003ffc: 83 06 c2 e6  	lb	a3, -404(tp)
80004000: 03 07 d2 e6  	lb	a4, -403(tp)
80004004: 83 07 e2 e6  	lb	a5, -402(tp)
80004008: 03 08 f2 e6  	lb	a6, -401(tp)
8000400c: 83 08 02 e7  	lb	a7, -400(tp)
80004010: 03 09 12 e7  	lb	s2, -399(tp)
80004014: 83 09 22 e7  	lb	s3, -398(tp)
80004018: 03 0a 32 e7  	lb	s4, -397(tp)
8000401c: a3 09 42 e7  	sb	s4, -397(tp)
80004020: 23 09 32 e7  	sb	s3, -398(tp)
80004024: a3 08 22 e7  	sb	s2, -399(tp)
80004028: 23 08 12 e7  	sb	a7, -400(tp)
8000402c: a3 07 02 e7  	sb	a6, -401(tp)
80004030: 23 07 f2 e6  	sb	a5, -402(tp)
80004034: a3 06 e2 e6  	sb	a4, -403(tp)
80004038: 23 06 d2 e6  	sb	a3, -404(tp)
8000403c: a3 05 c2 e6  	sb	a2, -405(tp)
80004040: 23 05 b2 e6  	sb	a1, -406(tp)
80004044: a3 04 a2 e6  	sb	a0, -407(tp)
80004048: 23 04 92 e6  	sb	s1, -408(tp)
8000404c: a3 03 82 e6  	sb	s0, -409(tp)
80004050: 23 03 72 e6  	sb	t2, -410(tp)
80004054: a3 02 62 e6  	sb	t1, -411(tp)
80004058: 23 02 52 e6  	sb	t0, -412(tp)
8000405c: 6f 00 80 1c  	j	0x80004224 <.LBB4_129>

80004060 <.LBB4_126>:
80004060: 03 24 42 18  	lw	s0, 388(tp)
80004064: 93 02 44 00  	addi	t0, s0, 4
80004068: 23 22 52 18  	sw	t0, 388(tp)
8000406c: 83 02 04 00  	lb	t0, 0(s0)
80004070: 03 03 14 00  	lb	t1, 1(s0)
80004074: 83 03 24 00  	lb	t2, 2(s0)
80004078: 03 04 34 00  	lb	s0, 3(s0)
8000407c: 83 04 82 e6  	lb	s1, -408(tp)
80004080: 03 05 92 e6  	lb	a0, -407(tp)
80004084: 83 05 a2 e6  	lb	a1, -406(tp)
80004088: 03 06 b2 e6  	lb	a2, -405(tp)
8000408c: 83 06 c2 e6  	lb	a3, -404(tp)
80004090: 03 07 d2 e6  	lb	a4, -403(tp)
80004094: 83 07 e2 e6  	lb	a5, -402(tp)
80004098: 03 08 f2 e6  	lb	a6, -401(tp)
8000409c: 83 08 02 e7  	lb	a7, -400(tp)
800040a0: 03 09 12 e7  	lb	s2, -399(tp)
800040a4: 83 09 22 e7  	lb	s3, -398(tp)
800040a8: 03 0a 32 e7  	lb	s4, -397(tp)
800040ac: a3 09 42 e7  	sb	s4, -397(tp)
800040b0: 23 09 32 e7  	sb	s3, -398(tp)
800040b4: a3 08 22 e7  	sb	s2, -399(tp)
800040b8: 23 08 12 e7  	sb	a7, -400(tp)
800040bc: a3 07 02 e7  	sb	a6, -401(tp)
800040c0: 23 07 f2 e6  	sb	a5, -402(tp)
800040c4: a3 06 e2 e6  	sb	a4, -403(tp)
800040c8: 23 06 d2 e6  	sb	a3, -404(tp)
800040cc: a3 05 c2 e6  	sb	a2, -405(tp)
800040d0: 23 05 b2 e6  	sb	a1, -406(tp)
800040d4: a3 04 a2 e6  	sb	a0, -407(tp)
800040d8: 23 04 92 e6  	sb	s1, -408(tp)
800040dc: a3 03 82 e6  	sb	s0, -409(tp)
800040e0: 23 03 72 e6  	sb	t2, -410(tp)
800040e4: a3 02 62 e6  	sb	t1, -411(tp)
800040e8: 23 02 52 e6  	sb	t0, -412(tp)
800040ec: 6f 00 80 13  	j	0x80004224 <.LBB4_129>

800040f0 <.LBB4_127>:
800040f0: 83 22 42 18  	lw	t0, 388(tp)
800040f4: 93 82 72 00  	addi	t0, t0, 7
800040f8: 13 f6 82 ff  	andi	a2, t0, -8
800040fc: 23 22 c1 da  	sw	a2, -604(sp)
80004100: 93 02 86 00  	addi	t0, a2, 8
80004104: 23 22 52 18  	sw	t0, 388(tp)
80004108: 83 02 06 00  	lb	t0, 0(a2)
8000410c: 03 03 16 00  	lb	t1, 1(a2)
80004110: 83 03 26 00  	lb	t2, 2(a2)
80004114: 03 04 36 00  	lb	s0, 3(a2)
80004118: 83 04 46 00  	lb	s1, 4(a2)
8000411c: 03 05 56 00  	lb	a0, 5(a2)
80004120: 83 05 66 00  	lb	a1, 6(a2)
80004124: 03 06 76 00  	lb	a2, 7(a2)
80004128: 83 06 c2 e6  	lb	a3, -404(tp)
8000412c: 03 07 d2 e6  	lb	a4, -403(tp)
80004130: 83 07 e2 e6  	lb	a5, -402(tp)
80004134: 03 08 f2 e6  	lb	a6, -401(tp)
80004138: 83 08 02 e7  	lb	a7, -400(tp)
8000413c: 03 09 12 e7  	lb	s2, -399(tp)
80004140: 83 09 22 e7  	lb	s3, -398(tp)
80004144: 03 0a 32 e7  	lb	s4, -397(tp)
80004148: a3 09 42 e7  	sb	s4, -397(tp)
8000414c: 23 09 32 e7  	sb	s3, -398(tp)
80004150: a3 08 22 e7  	sb	s2, -399(tp)
80004154: 23 08 12 e7  	sb	a7, -400(tp)
80004158: a3 07 02 e7  	sb	a6, -401(tp)
8000415c: 23 07 f2 e6  	sb	a5, -402(tp)
80004160: a3 06 e2 e6  	sb	a4, -403(tp)
80004164: 23 06 d2 e6  	sb	a3, -404(tp)
80004168: a3 05 c2 e6  	sb	a2, -405(tp)
8000416c: 23 05 b2 e6  	sb	a1, -406(tp)
80004170: a3 04 a2 e6  	sb	a0, -407(tp)
80004174: 23 04 92 e6  	sb	s1, -408(tp)
80004178: a3 03 82 e6  	sb	s0, -409(tp)
8000417c: 23 03 72 e6  	sb	t2, -410(tp)
80004180: a3 02 62 e6  	sb	t1, -411(tp)
80004184: 23 02 52 e6  	sb	t0, -412(tp)
80004188: 6f 00 c0 09  	j	0x80004224 <.LBB4_129>

8000418c <.LBB4_128>:
8000418c: 83 22 42 18  	lw	t0, 388(tp)
80004190: 13 83 42 00  	addi	t1, t0, 4
80004194: 23 22 62 18  	sw	t1, 388(tp)
80004198: 03 aa 02 00  	lw	s4, 0(t0)
8000419c: 23 24 41 db  	sw	s4, -600(sp)
800041a0: 83 02 0a 00  	lb	t0, 0(s4)
800041a4: 03 03 1a 00  	lb	t1, 1(s4)
800041a8: 83 03 2a 00  	lb	t2, 2(s4)
800041ac: 03 04 3a 00  	lb	s0, 3(s4)
800041b0: 83 04 4a 00  	lb	s1, 4(s4)
800041b4: 03 05 5a 00  	lb	a0, 5(s4)
800041b8: 83 05 6a 00  	lb	a1, 6(s4)
800041bc: 03 06 7a 00  	lb	a2, 7(s4)
800041c0: 83 06 8a 00  	lb	a3, 8(s4)
800041c4: 03 07 9a 00  	lb	a4, 9(s4)
800041c8: 83 07 aa 00  	lb	a5, 10(s4)
800041cc: 03 08 ba 00  	lb	a6, 11(s4)
800041d0: 83 08 ca 00  	lb	a7, 12(s4)
800041d4: 03 09 da 00  	lb	s2, 13(s4)
800041d8: 83 09 ea 00  	lb	s3, 14(s4)
800041dc: 03 0a fa 00  	lb	s4, 15(s4)
800041e0: a3 09 42 e7  	sb	s4, -397(tp)
800041e4: 23 09 32 e7  	sb	s3, -398(tp)
800041e8: a3 08 22 e7  	sb	s2, -399(tp)
800041ec: 23 08 12 e7  	sb	a7, -400(tp)
800041f0: a3 07 02 e7  	sb	a6, -401(tp)
800041f4: 23 07 f2 e6  	sb	a5, -402(tp)
800041f8: a3 06 e2 e6  	sb	a4, -403(tp)
800041fc: 23 06 d2 e6  	sb	a3, -404(tp)
80004200: a3 05 c2 e6  	sb	a2, -405(tp)
80004204: 23 05 b2 e6  	sb	a1, -406(tp)
80004208: a3 04 a2 e6  	sb	a0, -407(tp)
8000420c: 23 04 92 e6  	sb	s1, -408(tp)
80004210: a3 03 82 e6  	sb	s0, -409(tp)
80004214: 23 03 72 e6  	sb	t2, -410(tp)
80004218: a3 02 62 e6  	sb	t1, -411(tp)
8000421c: 23 02 52 e6  	sb	t0, -412(tp)
80004220: 6f 00 40 00  	j	0x80004224 <.LBB4_129>

80004224 <.LBB4_129>:
80004224: 03 24 02 18  	lw	s0, 384(tp)
80004228: 03 23 82 e4  	lw	t1, -440(tp)
8000422c: 83 22 42 e5  	lw	t0, -428(tp)
80004230: 93 03 02 00  	mv	t2, tp
80004234: 57 40 04 5e  	<unknown>
80004238: d7 c0 03 5e  	<unknown>
8000423c: 57 41 03 5e  	<unknown>
80004240: d7 c1 02 5e  	<unknown>
80004244: ef e0 df d5  	jal	0x80002fa0 <print_ints_uchar>
80004248: 6f 00 80 6c  	j	0x80004910 <.LBB4_155>

8000424c <.LBB4_130>:
8000424c: 83 22 82 e4  	lw	t0, -440(tp)
80004250: 23 26 51 da  	sw	t0, -596(sp)
80004254: 13 03 10 00  	li	t1, 1
80004258: 63 82 62 04  	beq	t0, t1, 0x8000429c <.LBB4_136>
8000425c: 6f 00 40 00  	j	0x80004260 <.LBB4_131>

80004260 <.LBB4_131>:
80004260: 83 22 c1 da  	lw	t0, -596(sp)
80004264: 13 03 20 00  	li	t1, 2
80004268: 63 82 62 0c  	beq	t0, t1, 0x8000432c <.LBB4_137>
8000426c: 6f 00 40 00  	j	0x80004270 <.LBB4_132>

80004270 <.LBB4_132>:
80004270: 83 22 c1 da  	lw	t0, -596(sp)
80004274: 13 03 30 00  	li	t1, 3
80004278: b3 82 62 40  	sub	t0, t0, t1
8000427c: 13 03 20 00  	li	t1, 2
80004280: 63 ee 62 12  	bltu	t0, t1, 0x800043bc <.LBB4_138>
80004284: 6f 00 40 00  	j	0x80004288 <.LBB4_133>

80004288 <.LBB4_133>:
80004288: 83 22 c1 da  	lw	t0, -596(sp)
8000428c: 13 03 80 00  	li	t1, 8
80004290: 63 82 62 1c  	beq	t0, t1, 0x80004454 <.LBB4_139>
80004294: 6f 00 40 00  	j	0x80004298 <.LBB4_134>

80004298 <.LBB4_134>:
80004298: 6f 00 40 25  	j	0x800044ec <.LBB4_140>

8000429c <.LBB4_136>:
8000429c: 83 22 42 18  	lw	t0, 388(tp)
800042a0: 13 83 42 00  	addi	t1, t0, 4
800042a4: 23 22 62 18  	sw	t1, 388(tp)
800042a8: 83 92 02 00  	lh	t0, 0(t0)
800042ac: 03 13 62 e7  	lh	t1, -394(tp)
800042b0: 83 13 82 e7  	lh	t2, -392(tp)
800042b4: 03 14 a2 e7  	lh	s0, -390(tp)
800042b8: 83 14 c2 e7  	lh	s1, -388(tp)
800042bc: 03 15 e2 e7  	lh	a0, -386(tp)
800042c0: 83 15 02 e8  	lh	a1, -384(tp)
800042c4: 03 16 22 e8  	lh	a2, -382(tp)
800042c8: 83 16 42 e8  	lh	a3, -380(tp)
800042cc: 03 17 62 e8  	lh	a4, -378(tp)
800042d0: 83 17 82 e8  	lh	a5, -376(tp)
800042d4: 03 18 a2 e8  	lh	a6, -374(tp)
800042d8: 83 18 c2 e8  	lh	a7, -372(tp)
800042dc: 03 19 e2 e8  	lh	s2, -370(tp)
800042e0: 83 19 02 e9  	lh	s3, -368(tp)
800042e4: 03 1a 22 e9  	lh	s4, -366(tp)
800042e8: 23 19 42 e9  	sh	s4, -366(tp)
800042ec: 23 18 32 e9  	sh	s3, -368(tp)
800042f0: 23 17 22 e9  	sh	s2, -370(tp)
800042f4: 23 16 12 e9  	sh	a7, -372(tp)
800042f8: 23 15 02 e9  	sh	a6, -374(tp)
800042fc: 23 14 f2 e8  	sh	a5, -376(tp)
80004300: 23 13 e2 e8  	sh	a4, -378(tp)
80004304: 23 12 d2 e8  	sh	a3, -380(tp)
80004308: 23 11 c2 e8  	sh	a2, -382(tp)
8000430c: 23 10 b2 e8  	sh	a1, -384(tp)
80004310: 23 1f a2 e6  	sh	a0, -386(tp)
80004314: 23 1e 92 e6  	sh	s1, -388(tp)
80004318: 23 1d 82 e6  	sh	s0, -390(tp)
8000431c: 23 1c 72 e6  	sh	t2, -392(tp)
80004320: 23 1b 62 e6  	sh	t1, -394(tp)
80004324: 23 1a 52 e6  	sh	t0, -396(tp)
80004328: 6f 00 c0 25  	j	0x80004584 <.LBB4_141>

8000432c <.LBB4_137>:
8000432c: 03 23 42 18  	lw	t1, 388(tp)
80004330: 93 02 43 00  	addi	t0, t1, 4
80004334: 23 22 52 18  	sw	t0, 388(tp)
80004338: 83 12 03 00  	lh	t0, 0(t1)
8000433c: 03 13 23 00  	lh	t1, 2(t1)
80004340: 83 13 82 e7  	lh	t2, -392(tp)
80004344: 03 14 a2 e7  	lh	s0, -390(tp)
80004348: 83 14 c2 e7  	lh	s1, -388(tp)
8000434c: 03 15 e2 e7  	lh	a0, -386(tp)
80004350: 83 15 02 e8  	lh	a1, -384(tp)
80004354: 03 16 22 e8  	lh	a2, -382(tp)
80004358: 83 16 42 e8  	lh	a3, -380(tp)
8000435c: 03 17 62 e8  	lh	a4, -378(tp)
80004360: 83 17 82 e8  	lh	a5, -376(tp)
80004364: 03 18 a2 e8  	lh	a6, -374(tp)
80004368: 83 18 c2 e8  	lh	a7, -372(tp)
8000436c: 03 19 e2 e8  	lh	s2, -370(tp)
80004370: 83 19 02 e9  	lh	s3, -368(tp)
80004374: 03 1a 22 e9  	lh	s4, -366(tp)
80004378: 23 19 42 e9  	sh	s4, -366(tp)
8000437c: 23 18 32 e9  	sh	s3, -368(tp)
80004380: 23 17 22 e9  	sh	s2, -370(tp)
80004384: 23 16 12 e9  	sh	a7, -372(tp)
80004388: 23 15 02 e9  	sh	a6, -374(tp)
8000438c: 23 14 f2 e8  	sh	a5, -376(tp)
80004390: 23 13 e2 e8  	sh	a4, -378(tp)
80004394: 23 12 d2 e8  	sh	a3, -380(tp)
80004398: 23 11 c2 e8  	sh	a2, -382(tp)
8000439c: 23 10 b2 e8  	sh	a1, -384(tp)
800043a0: 23 1f a2 e6  	sh	a0, -386(tp)
800043a4: 23 1e 92 e6  	sh	s1, -388(tp)
800043a8: 23 1d 82 e6  	sh	s0, -390(tp)
800043ac: 23 1c 72 e6  	sh	t2, -392(tp)
800043b0: 23 1b 62 e6  	sh	t1, -394(tp)
800043b4: 23 1a 52 e6  	sh	t0, -396(tp)
800043b8: 6f 00 c0 1c  	j	0x80004584 <.LBB4_141>

800043bc <.LBB4_138>:
800043bc: 83 22 42 18  	lw	t0, 388(tp)
800043c0: 93 82 72 00  	addi	t0, t0, 7
800043c4: 13 f4 82 ff  	andi	s0, t0, -8
800043c8: 93 02 84 00  	addi	t0, s0, 8
800043cc: 23 22 52 18  	sw	t0, 388(tp)
800043d0: 83 12 04 00  	lh	t0, 0(s0)
800043d4: 03 13 24 00  	lh	t1, 2(s0)
800043d8: 83 13 44 00  	lh	t2, 4(s0)
800043dc: 03 14 64 00  	lh	s0, 6(s0)
800043e0: 83 14 c2 e7  	lh	s1, -388(tp)
800043e4: 03 15 e2 e7  	lh	a0, -386(tp)
800043e8: 83 15 02 e8  	lh	a1, -384(tp)
800043ec: 03 16 22 e8  	lh	a2, -382(tp)
800043f0: 83 16 42 e8  	lh	a3, -380(tp)
800043f4: 03 17 62 e8  	lh	a4, -378(tp)
800043f8: 83 17 82 e8  	lh	a5, -376(tp)
800043fc: 03 18 a2 e8  	lh	a6, -374(tp)
80004400: 83 18 c2 e8  	lh	a7, -372(tp)
80004404: 03 19 e2 e8  	lh	s2, -370(tp)
80004408: 83 19 02 e9  	lh	s3, -368(tp)
8000440c: 03 1a 22 e9  	lh	s4, -366(tp)
80004410: 23 19 42 e9  	sh	s4, -366(tp)
80004414: 23 18 32 e9  	sh	s3, -368(tp)
80004418: 23 17 22 e9  	sh	s2, -370(tp)
8000441c: 23 16 12 e9  	sh	a7, -372(tp)
80004420: 23 15 02 e9  	sh	a6, -374(tp)
80004424: 23 14 f2 e8  	sh	a5, -376(tp)
80004428: 23 13 e2 e8  	sh	a4, -378(tp)
8000442c: 23 12 d2 e8  	sh	a3, -380(tp)
80004430: 23 11 c2 e8  	sh	a2, -382(tp)
80004434: 23 10 b2 e8  	sh	a1, -384(tp)
80004438: 23 1f a2 e6  	sh	a0, -386(tp)
8000443c: 23 1e 92 e6  	sh	s1, -388(tp)
80004440: 23 1d 82 e6  	sh	s0, -390(tp)
80004444: 23 1c 72 e6  	sh	t2, -392(tp)
80004448: 23 1b 62 e6  	sh	t1, -394(tp)
8000444c: 23 1a 52 e6  	sh	t0, -396(tp)
80004450: 6f 00 40 13  	j	0x80004584 <.LBB4_141>

80004454 <.LBB4_139>:
80004454: 83 22 42 18  	lw	t0, 388(tp)
80004458: 13 83 42 00  	addi	t1, t0, 4
8000445c: 23 22 62 18  	sw	t1, 388(tp)
80004460: 03 a6 02 00  	lw	a2, 0(t0)
80004464: 23 28 c1 da  	sw	a2, -592(sp)
80004468: 83 12 06 00  	lh	t0, 0(a2)
8000446c: 03 13 26 00  	lh	t1, 2(a2)
80004470: 83 13 46 00  	lh	t2, 4(a2)
80004474: 03 14 66 00  	lh	s0, 6(a2)
80004478: 83 14 86 00  	lh	s1, 8(a2)
8000447c: 03 15 a6 00  	lh	a0, 10(a2)
80004480: 83 15 c6 00  	lh	a1, 12(a2)
80004484: 03 16 e6 00  	lh	a2, 14(a2)
80004488: 83 16 42 e8  	lh	a3, -380(tp)
8000448c: 03 17 62 e8  	lh	a4, -378(tp)
80004490: 83 17 82 e8  	lh	a5, -376(tp)
80004494: 03 18 a2 e8  	lh	a6, -374(tp)
80004498: 83 18 c2 e8  	lh	a7, -372(tp)
8000449c: 03 19 e2 e8  	lh	s2, -370(tp)
800044a0: 83 19 02 e9  	lh	s3, -368(tp)
800044a4: 03 1a 22 e9  	lh	s4, -366(tp)
800044a8: 23 19 42 e9  	sh	s4, -366(tp)
800044ac: 23 18 32 e9  	sh	s3, -368(tp)
800044b0: 23 17 22 e9  	sh	s2, -370(tp)
800044b4: 23 16 12 e9  	sh	a7, -372(tp)
800044b8: 23 15 02 e9  	sh	a6, -374(tp)
800044bc: 23 14 f2 e8  	sh	a5, -376(tp)
800044c0: 23 13 e2 e8  	sh	a4, -378(tp)
800044c4: 23 12 d2 e8  	sh	a3, -380(tp)
800044c8: 23 11 c2 e8  	sh	a2, -382(tp)
800044cc: 23 10 b2 e8  	sh	a1, -384(tp)
800044d0: 23 1f a2 e6  	sh	a0, -386(tp)
800044d4: 23 1e 92 e6  	sh	s1, -388(tp)
800044d8: 23 1d 82 e6  	sh	s0, -390(tp)
800044dc: 23 1c 72 e6  	sh	t2, -392(tp)
800044e0: 23 1b 62 e6  	sh	t1, -394(tp)
800044e4: 23 1a 52 e6  	sh	t0, -396(tp)
800044e8: 6f 00 c0 09  	j	0x80004584 <.LBB4_141>

800044ec <.LBB4_140>:
800044ec: 83 22 42 18  	lw	t0, 388(tp)
800044f0: 13 83 42 00  	addi	t1, t0, 4
800044f4: 23 22 62 18  	sw	t1, 388(tp)
800044f8: 03 aa 02 00  	lw	s4, 0(t0)
800044fc: 23 2a 41 db  	sw	s4, -588(sp)
80004500: 83 12 0a 00  	lh	t0, 0(s4)
80004504: 03 13 2a 00  	lh	t1, 2(s4)
80004508: 83 13 4a 00  	lh	t2, 4(s4)
8000450c: 03 14 6a 00  	lh	s0, 6(s4)
80004510: 83 14 8a 00  	lh	s1, 8(s4)
80004514: 03 15 aa 00  	lh	a0, 10(s4)
80004518: 83 15 ca 00  	lh	a1, 12(s4)
8000451c: 03 16 ea 00  	lh	a2, 14(s4)
80004520: 83 16 0a 01  	lh	a3, 16(s4)
80004524: 03 17 2a 01  	lh	a4, 18(s4)
80004528: 83 17 4a 01  	lh	a5, 20(s4)
8000452c: 03 18 6a 01  	lh	a6, 22(s4)
80004530: 83 18 8a 01  	lh	a7, 24(s4)
80004534: 03 19 aa 01  	lh	s2, 26(s4)
80004538: 83 19 ca 01  	lh	s3, 28(s4)
8000453c: 03 1a ea 01  	lh	s4, 30(s4)
80004540: 23 19 42 e9  	sh	s4, -366(tp)
80004544: 23 18 32 e9  	sh	s3, -368(tp)
80004548: 23 17 22 e9  	sh	s2, -370(tp)
8000454c: 23 16 12 e9  	sh	a7, -372(tp)
80004550: 23 15 02 e9  	sh	a6, -374(tp)
80004554: 23 14 f2 e8  	sh	a5, -376(tp)
80004558: 23 13 e2 e8  	sh	a4, -378(tp)
8000455c: 23 12 d2 e8  	sh	a3, -380(tp)
80004560: 23 11 c2 e8  	sh	a2, -382(tp)
80004564: 23 10 b2 e8  	sh	a1, -384(tp)
80004568: 23 1f a2 e6  	sh	a0, -386(tp)
8000456c: 23 1e 92 e6  	sh	s1, -388(tp)
80004570: 23 1d 82 e6  	sh	s0, -390(tp)
80004574: 23 1c 72 e6  	sh	t2, -392(tp)
80004578: 23 1b 62 e6  	sh	t1, -394(tp)
8000457c: 23 1a 52 e6  	sh	t0, -396(tp)
80004580: 6f 00 40 00  	j	0x80004584 <.LBB4_141>

80004584 <.LBB4_141>:
80004584: 03 24 02 18  	lw	s0, 384(tp)
80004588: 03 23 82 e4  	lw	t1, -440(tp)
8000458c: 83 22 42 e5  	lw	t0, -428(tp)
80004590: 93 03 02 00  	mv	t2, tp
80004594: 57 40 04 5e  	<unknown>
80004598: d7 c0 03 5e  	<unknown>
8000459c: 57 41 03 5e  	<unknown>
800045a0: d7 c1 02 5e  	<unknown>
800045a4: ef e0 1f b1  	jal	0x800030b4 <print_ints_ushort>
800045a8: 6f 00 80 36  	j	0x80004910 <.LBB4_155>

800045ac <.LBB4_142>:
800045ac: 83 22 82 e4  	lw	t0, -440(tp)
800045b0: 23 2c 51 da  	sw	t0, -584(sp)
800045b4: 13 03 10 00  	li	t1, 1
800045b8: 63 82 62 04  	beq	t0, t1, 0x800045fc <.LBB4_148>
800045bc: 6f 00 40 00  	j	0x800045c0 <.LBB4_143>

800045c0 <.LBB4_143>:
800045c0: 83 22 81 db  	lw	t0, -584(sp)
800045c4: 13 03 20 00  	li	t1, 2
800045c8: 63 82 62 0c  	beq	t0, t1, 0x8000468c <.LBB4_149>
800045cc: 6f 00 40 00  	j	0x800045d0 <.LBB4_144>

800045d0 <.LBB4_144>:
800045d0: 83 22 81 db  	lw	t0, -584(sp)
800045d4: 13 03 30 00  	li	t1, 3
800045d8: b3 82 62 40  	sub	t0, t0, t1
800045dc: 13 03 20 00  	li	t1, 2
800045e0: 63 e2 62 14  	bltu	t0, t1, 0x80004724 <.LBB4_150>
800045e4: 6f 00 40 00  	j	0x800045e8 <.LBB4_145>

800045e8 <.LBB4_145>:
800045e8: 83 22 81 db  	lw	t0, -584(sp)
800045ec: 13 03 80 00  	li	t1, 8
800045f0: 63 84 62 1c  	beq	t0, t1, 0x800047b8 <.LBB4_151>
800045f4: 6f 00 40 00  	j	0x800045f8 <.LBB4_146>

800045f8 <.LBB4_146>:
800045f8: 6f 00 80 25  	j	0x80004850 <.LBB4_152>

800045fc <.LBB4_148>:
800045fc: 83 22 42 18  	lw	t0, 388(tp)
80004600: 13 83 42 00  	addi	t1, t0, 4
80004604: 23 22 62 18  	sw	t1, 388(tp)
80004608: 83 a2 02 00  	lw	t0, 0(t0)
8000460c: 03 23 82 eb  	lw	t1, -328(tp)
80004610: 83 23 c2 eb  	lw	t2, -324(tp)
80004614: 03 24 02 ec  	lw	s0, -320(tp)
80004618: 83 24 42 ec  	lw	s1, -316(tp)
8000461c: 03 25 82 ec  	lw	a0, -312(tp)
80004620: 83 25 c2 ec  	lw	a1, -308(tp)
80004624: 03 26 02 ed  	lw	a2, -304(tp)
80004628: 83 26 42 ed  	lw	a3, -300(tp)
8000462c: 03 27 82 ed  	lw	a4, -296(tp)
80004630: 83 27 c2 ed  	lw	a5, -292(tp)
80004634: 03 28 02 ee  	lw	a6, -288(tp)
80004638: 83 28 42 ee  	lw	a7, -284(tp)
8000463c: 03 29 82 ee  	lw	s2, -280(tp)
80004640: 83 29 c2 ee  	lw	s3, -276(tp)
80004644: 03 2a 02 ef  	lw	s4, -272(tp)
80004648: 23 28 42 ef  	sw	s4, -272(tp)
8000464c: 23 26 32 ef  	sw	s3, -276(tp)
80004650: 23 24 22 ef  	sw	s2, -280(tp)
80004654: 23 22 12 ef  	sw	a7, -284(tp)
80004658: 23 20 02 ef  	sw	a6, -288(tp)
8000465c: 23 2e f2 ec  	sw	a5, -292(tp)
80004660: 23 2c e2 ec  	sw	a4, -296(tp)
80004664: 23 2a d2 ec  	sw	a3, -300(tp)
80004668: 23 28 c2 ec  	sw	a2, -304(tp)
8000466c: 23 26 b2 ec  	sw	a1, -308(tp)
80004670: 23 24 a2 ec  	sw	a0, -312(tp)
80004674: 23 22 92 ec  	sw	s1, -316(tp)
80004678: 23 20 82 ec  	sw	s0, -320(tp)
8000467c: 23 2e 72 ea  	sw	t2, -324(tp)
80004680: 23 2c 62 ea  	sw	t1, -328(tp)
80004684: 23 2a 52 ea  	sw	t0, -332(tp)
80004688: 6f 00 00 26  	j	0x800048e8 <.LBB4_153>

8000468c <.LBB4_149>:
8000468c: 83 22 42 18  	lw	t0, 388(tp)
80004690: 93 82 72 00  	addi	t0, t0, 7
80004694: 13 f3 82 ff  	andi	t1, t0, -8
80004698: 93 02 83 00  	addi	t0, t1, 8
8000469c: 23 22 52 18  	sw	t0, 388(tp)
800046a0: 83 22 03 00  	lw	t0, 0(t1)
800046a4: 03 23 43 00  	lw	t1, 4(t1)
800046a8: 83 23 c2 eb  	lw	t2, -324(tp)
800046ac: 03 24 02 ec  	lw	s0, -320(tp)
800046b0: 83 24 42 ec  	lw	s1, -316(tp)
800046b4: 03 25 82 ec  	lw	a0, -312(tp)
800046b8: 83 25 c2 ec  	lw	a1, -308(tp)
800046bc: 03 26 02 ed  	lw	a2, -304(tp)
800046c0: 83 26 42 ed  	lw	a3, -300(tp)
800046c4: 03 27 82 ed  	lw	a4, -296(tp)
800046c8: 83 27 c2 ed  	lw	a5, -292(tp)
800046cc: 03 28 02 ee  	lw	a6, -288(tp)
800046d0: 83 28 42 ee  	lw	a7, -284(tp)
800046d4: 03 29 82 ee  	lw	s2, -280(tp)
800046d8: 83 29 c2 ee  	lw	s3, -276(tp)
800046dc: 03 2a 02 ef  	lw	s4, -272(tp)
800046e0: 23 28 42 ef  	sw	s4, -272(tp)
800046e4: 23 26 32 ef  	sw	s3, -276(tp)
800046e8: 23 24 22 ef  	sw	s2, -280(tp)
800046ec: 23 22 12 ef  	sw	a7, -284(tp)
800046f0: 23 20 02 ef  	sw	a6, -288(tp)
800046f4: 23 2e f2 ec  	sw	a5, -292(tp)
800046f8: 23 2c e2 ec  	sw	a4, -296(tp)
800046fc: 23 2a d2 ec  	sw	a3, -300(tp)
80004700: 23 28 c2 ec  	sw	a2, -304(tp)
80004704: 23 26 b2 ec  	sw	a1, -308(tp)
80004708: 23 24 a2 ec  	sw	a0, -312(tp)
8000470c: 23 22 92 ec  	sw	s1, -316(tp)
80004710: 23 20 82 ec  	sw	s0, -320(tp)
80004714: 23 2e 72 ea  	sw	t2, -324(tp)
80004718: 23 2c 62 ea  	sw	t1, -328(tp)
8000471c: 23 2a 52 ea  	sw	t0, -332(tp)
80004720: 6f 00 80 1c  	j	0x800048e8 <.LBB4_153>

80004724 <.LBB4_150>:
80004724: 83 22 42 18  	lw	t0, 388(tp)
80004728: 13 83 42 00  	addi	t1, t0, 4
8000472c: 23 22 62 18  	sw	t1, 388(tp)
80004730: 03 a4 02 00  	lw	s0, 0(t0)
80004734: 83 22 04 00  	lw	t0, 0(s0)
80004738: 03 23 44 00  	lw	t1, 4(s0)
8000473c: 83 23 84 00  	lw	t2, 8(s0)
80004740: 03 24 c4 00  	lw	s0, 12(s0)
80004744: 83 24 42 ec  	lw	s1, -316(tp)
80004748: 03 25 82 ec  	lw	a0, -312(tp)
8000474c: 83 25 c2 ec  	lw	a1, -308(tp)
80004750: 03 26 02 ed  	lw	a2, -304(tp)
80004754: 83 26 42 ed  	lw	a3, -300(tp)
80004758: 03 27 82 ed  	lw	a4, -296(tp)
8000475c: 83 27 c2 ed  	lw	a5, -292(tp)
80004760: 03 28 02 ee  	lw	a6, -288(tp)
80004764: 83 28 42 ee  	lw	a7, -284(tp)
80004768: 03 29 82 ee  	lw	s2, -280(tp)
8000476c: 83 29 c2 ee  	lw	s3, -276(tp)
80004770: 03 2a 02 ef  	lw	s4, -272(tp)
80004774: 23 28 42 ef  	sw	s4, -272(tp)
80004778: 23 26 32 ef  	sw	s3, -276(tp)
8000477c: 23 24 22 ef  	sw	s2, -280(tp)
80004780: 23 22 12 ef  	sw	a7, -284(tp)
80004784: 23 20 02 ef  	sw	a6, -288(tp)
80004788: 23 2e f2 ec  	sw	a5, -292(tp)
8000478c: 23 2c e2 ec  	sw	a4, -296(tp)
80004790: 23 2a d2 ec  	sw	a3, -300(tp)
80004794: 23 28 c2 ec  	sw	a2, -304(tp)
80004798: 23 26 b2 ec  	sw	a1, -308(tp)
8000479c: 23 24 a2 ec  	sw	a0, -312(tp)
800047a0: 23 22 92 ec  	sw	s1, -316(tp)
800047a4: 23 20 82 ec  	sw	s0, -320(tp)
800047a8: 23 2e 72 ea  	sw	t2, -324(tp)
800047ac: 23 2c 62 ea  	sw	t1, -328(tp)
800047b0: 23 2a 52 ea  	sw	t0, -332(tp)
800047b4: 6f 00 40 13  	j	0x800048e8 <.LBB4_153>

800047b8 <.LBB4_151>:
800047b8: 83 22 42 18  	lw	t0, 388(tp)
800047bc: 13 83 42 00  	addi	t1, t0, 4
800047c0: 23 22 62 18  	sw	t1, 388(tp)
800047c4: 03 a6 02 00  	lw	a2, 0(t0)
800047c8: 23 2e c1 da  	sw	a2, -580(sp)
800047cc: 83 22 06 00  	lw	t0, 0(a2)
800047d0: 03 23 46 00  	lw	t1, 4(a2)
800047d4: 83 23 86 00  	lw	t2, 8(a2)
800047d8: 03 24 c6 00  	lw	s0, 12(a2)
800047dc: 83 24 06 01  	lw	s1, 16(a2)
800047e0: 03 25 46 01  	lw	a0, 20(a2)
800047e4: 83 25 86 01  	lw	a1, 24(a2)
800047e8: 03 26 c6 01  	lw	a2, 28(a2)
800047ec: 83 26 42 ed  	lw	a3, -300(tp)
800047f0: 03 27 82 ed  	lw	a4, -296(tp)
800047f4: 83 27 c2 ed  	lw	a5, -292(tp)
800047f8: 03 28 02 ee  	lw	a6, -288(tp)
800047fc: 83 28 42 ee  	lw	a7, -284(tp)
80004800: 03 29 82 ee  	lw	s2, -280(tp)
80004804: 83 29 c2 ee  	lw	s3, -276(tp)
80004808: 03 2a 02 ef  	lw	s4, -272(tp)
8000480c: 23 28 42 ef  	sw	s4, -272(tp)
80004810: 23 26 32 ef  	sw	s3, -276(tp)
80004814: 23 24 22 ef  	sw	s2, -280(tp)
80004818: 23 22 12 ef  	sw	a7, -284(tp)
8000481c: 23 20 02 ef  	sw	a6, -288(tp)
80004820: 23 2e f2 ec  	sw	a5, -292(tp)
80004824: 23 2c e2 ec  	sw	a4, -296(tp)
80004828: 23 2a d2 ec  	sw	a3, -300(tp)
8000482c: 23 28 c2 ec  	sw	a2, -304(tp)
80004830: 23 26 b2 ec  	sw	a1, -308(tp)
80004834: 23 24 a2 ec  	sw	a0, -312(tp)
80004838: 23 22 92 ec  	sw	s1, -316(tp)
8000483c: 23 20 82 ec  	sw	s0, -320(tp)
80004840: 23 2e 72 ea  	sw	t2, -324(tp)
80004844: 23 2c 62 ea  	sw	t1, -328(tp)
80004848: 23 2a 52 ea  	sw	t0, -332(tp)
8000484c: 6f 00 c0 09  	j	0x800048e8 <.LBB4_153>

80004850 <.LBB4_152>:
80004850: 83 22 42 18  	lw	t0, 388(tp)
80004854: 13 83 42 00  	addi	t1, t0, 4
80004858: 23 22 62 18  	sw	t1, 388(tp)
8000485c: 03 aa 02 00  	lw	s4, 0(t0)
80004860: 23 20 41 dd  	sw	s4, -576(sp)
80004864: 83 22 0a 00  	lw	t0, 0(s4)
80004868: 03 23 4a 00  	lw	t1, 4(s4)
8000486c: 83 23 8a 00  	lw	t2, 8(s4)
80004870: 03 24 ca 00  	lw	s0, 12(s4)
80004874: 83 24 0a 01  	lw	s1, 16(s4)
80004878: 03 25 4a 01  	lw	a0, 20(s4)
8000487c: 83 25 8a 01  	lw	a1, 24(s4)
80004880: 03 26 ca 01  	lw	a2, 28(s4)
80004884: 83 26 0a 02  	lw	a3, 32(s4)
80004888: 03 27 4a 02  	lw	a4, 36(s4)
8000488c: 83 27 8a 02  	lw	a5, 40(s4)
80004890: 03 28 ca 02  	lw	a6, 44(s4)
80004894: 83 28 0a 03  	lw	a7, 48(s4)
80004898: 03 29 4a 03  	lw	s2, 52(s4)
8000489c: 83 29 8a 03  	lw	s3, 56(s4)
800048a0: 03 2a ca 03  	lw	s4, 60(s4)
800048a4: 23 28 42 ef  	sw	s4, -272(tp)
800048a8: 23 26 32 ef  	sw	s3, -276(tp)
800048ac: 23 24 22 ef  	sw	s2, -280(tp)
800048b0: 23 22 12 ef  	sw	a7, -284(tp)
800048b4: 23 20 02 ef  	sw	a6, -288(tp)
800048b8: 23 2e f2 ec  	sw	a5, -292(tp)
800048bc: 23 2c e2 ec  	sw	a4, -296(tp)
800048c0: 23 2a d2 ec  	sw	a3, -300(tp)
800048c4: 23 28 c2 ec  	sw	a2, -304(tp)
800048c8: 23 26 b2 ec  	sw	a1, -308(tp)
800048cc: 23 24 a2 ec  	sw	a0, -312(tp)
800048d0: 23 22 92 ec  	sw	s1, -316(tp)
800048d4: 23 20 82 ec  	sw	s0, -320(tp)
800048d8: 23 2e 72 ea  	sw	t2, -324(tp)
800048dc: 23 2c 62 ea  	sw	t1, -328(tp)
800048e0: 23 2a 52 ea  	sw	t0, -332(tp)
800048e4: 6f 00 40 00  	j	0x800048e8 <.LBB4_153>

800048e8 <.LBB4_153>:
800048e8: 03 24 02 18  	lw	s0, 384(tp)
800048ec: 03 23 82 e4  	lw	t1, -440(tp)
800048f0: 83 22 42 e5  	lw	t0, -428(tp)
800048f4: 93 03 02 00  	mv	t2, tp
800048f8: 57 40 04 5e  	<unknown>
800048fc: d7 c0 03 5e  	<unknown>
80004900: 57 41 03 5e  	<unknown>
80004904: d7 c1 02 5e  	<unknown>
80004908: ef e0 9f 8c  	jal	0x800031d0 <print_ints_uint>
8000490c: 6f 00 40 00  	j	0x80004910 <.LBB4_155>

80004910 <.LBB4_155>:
80004910: 6f 00 00 76  	j	0x80005070 <.LBB4_214>

80004914 <.LBB4_156>:
80004914: 83 22 02 18  	lw	t0, 384(tp)
80004918: 13 03 a0 00  	li	t1, 10
8000491c: 57 40 03 5e  	<unknown>
80004920: d7 c0 02 5e  	<unknown>
80004924: 2b ac 00 80  	vsw.v	v0, 24(v1)
80004928: b7 82 01 80  	lui	t0, 524312
8000492c: 03 83 c2 25  	lb	t1, 604(t0)
80004930: 93 02 70 05  	li	t0, 87
80004934: 63 ce 62 02  	blt	t0, t1, 0x80004970 <.LBB4_158>
80004938: 6f 00 40 00  	j	0x8000493c <.LBB4_157>

8000493c <.LBB4_157>:
8000493c: 83 22 02 18  	lw	t0, 384(tp)
80004940: 57 c0 02 5e  	<unknown>
80004944: 2b 00 c0 01  	vlb.v	v0, 28(v0)
80004948: 57 30 04 2a  	vor.vi	v0, v0, 8
8000494c: d7 c0 02 5e  	<unknown>
80004950: 2b 8e 00 80  	vsb.v	v0, 28(v1)
80004954: 83 22 02 18  	lw	t0, 384(tp)
80004958: 57 c0 02 5e  	<unknown>
8000495c: 2b 00 d0 01  	vlb.v	v0, 29(v0)
80004960: 0b 00 00 02  	vadd12.vi	v0, v0, 32
80004964: d7 c0 02 5e  	<unknown>
80004968: ab 8e 00 80  	vsb.v	v0, 29(v1)
8000496c: 6f 00 40 00  	j	0x80004970 <.LBB4_158>

80004970 <.LBB4_158>:
80004970: 83 22 c2 e4  	lw	t0, -436(tp)
80004974: 93 e2 42 00  	ori	t0, t0, 4
80004978: 13 03 40 00  	li	t1, 4
8000497c: 63 84 62 00  	beq	t0, t1, 0x80004984 <.LBB4_160>
80004980: 6f 00 40 00  	j	0x80004984 <.LBB4_160>

80004984 <.LBB4_160>:
80004984: 83 22 82 e4  	lw	t0, -440(tp)
80004988: 23 22 51 dc  	sw	t0, -572(sp)
8000498c: 13 03 10 00  	li	t1, 1
80004990: 63 82 62 04  	beq	t0, t1, 0x800049d4 <.LBB4_166>
80004994: 6f 00 40 00  	j	0x80004998 <.LBB4_161>

80004998 <.LBB4_161>:
80004998: 83 22 41 dc  	lw	t0, -572(sp)
8000499c: 13 03 20 00  	li	t1, 2
800049a0: 63 80 62 0e  	beq	t0, t1, 0x80004a80 <.LBB4_167>
800049a4: 6f 00 40 00  	j	0x800049a8 <.LBB4_162>

800049a8 <.LBB4_162>:
800049a8: 83 22 41 dc  	lw	t0, -572(sp)
800049ac: 13 03 30 00  	li	t1, 3
800049b0: b3 82 62 40  	sub	t0, t0, t1
800049b4: 13 03 20 00  	li	t1, 2
800049b8: 63 e0 62 16  	bltu	t0, t1, 0x80004b18 <.LBB4_168>
800049bc: 6f 00 40 00  	j	0x800049c0 <.LBB4_163>

800049c0 <.LBB4_163>:
800049c0: 83 22 41 dc  	lw	t0, -572(sp)
800049c4: 13 03 80 00  	li	t1, 8
800049c8: 63 82 62 1e  	beq	t0, t1, 0x80004bac <.LBB4_169>
800049cc: 6f 00 40 00  	j	0x800049d0 <.LBB4_164>

800049d0 <.LBB4_164>:
800049d0: 6f 00 40 27  	j	0x80004c44 <.LBB4_170>

800049d4 <.LBB4_166>:
800049d4: 83 22 42 18  	lw	t0, 388(tp)
800049d8: 93 82 72 00  	addi	t0, t0, 7
800049dc: 93 f2 82 ff  	andi	t0, t0, -8
800049e0: 13 83 82 00  	addi	t1, t0, 8
800049e4: 23 22 62 18  	sw	t1, 388(tp)
800049e8: 03 a3 02 00  	lw	t1, 0(t0)
800049ec: 83 a2 42 00  	lw	t0, 4(t0)
800049f0: 57 40 03 5e  	<unknown>
800049f4: d7 c0 02 5e  	<unknown>
800049f8: ef c0 9f 9a  	jal	0x800013a0 <__truncdfsf2>
800049fc: 83 22 82 ef  	lw	t0, -264(tp)
80004a00: 03 23 c2 ef  	lw	t1, -260(tp)
80004a04: 83 23 02 f0  	lw	t2, -256(tp)
80004a08: 03 24 42 f0  	lw	s0, -252(tp)
80004a0c: 83 24 82 f0  	lw	s1, -248(tp)
80004a10: 03 25 c2 f0  	lw	a0, -244(tp)
80004a14: 83 25 02 f1  	lw	a1, -240(tp)
80004a18: 03 26 42 f1  	lw	a2, -236(tp)
80004a1c: 83 26 82 f1  	lw	a3, -232(tp)
80004a20: 03 27 c2 f1  	lw	a4, -228(tp)
80004a24: 83 27 02 f2  	lw	a5, -224(tp)
80004a28: 03 28 42 f2  	lw	a6, -220(tp)
80004a2c: 83 28 82 f2  	lw	a7, -216(tp)
80004a30: 03 29 c2 f2  	lw	s2, -212(tp)
80004a34: 83 29 02 f3  	lw	s3, -208(tp)
80004a38: 23 28 32 f3  	sw	s3, -208(tp)
80004a3c: 23 26 22 f3  	sw	s2, -212(tp)
80004a40: 23 24 12 f3  	sw	a7, -216(tp)
80004a44: 23 22 02 f3  	sw	a6, -220(tp)
80004a48: 23 20 f2 f2  	sw	a5, -224(tp)
80004a4c: 23 2e e2 f0  	sw	a4, -228(tp)
80004a50: 23 2c d2 f0  	sw	a3, -232(tp)
80004a54: 23 2a c2 f0  	sw	a2, -236(tp)
80004a58: 23 28 b2 f0  	sw	a1, -240(tp)
80004a5c: 23 26 a2 f0  	sw	a0, -244(tp)
80004a60: 23 24 92 f0  	sw	s1, -248(tp)
80004a64: 23 22 82 f0  	sw	s0, -252(tp)
80004a68: 23 20 72 f0  	sw	t2, -256(tp)
80004a6c: 23 2e 62 ee  	sw	t1, -260(tp)
80004a70: 23 2c 52 ee  	sw	t0, -264(tp)
80004a74: 0b 20 80 00  	regext	zero, zero, 8
80004a78: 7b 6a 00 ee  	vsw12.v	v0, -268(v0)
80004a7c: 6f 00 00 26  	j	0x80004cdc <.LBB4_171>

80004a80 <.LBB4_167>:
80004a80: 83 22 42 18  	lw	t0, 388(tp)
80004a84: 93 82 72 00  	addi	t0, t0, 7
80004a88: 13 f3 82 ff  	andi	t1, t0, -8
80004a8c: 93 02 83 00  	addi	t0, t1, 8
80004a90: 23 22 52 18  	sw	t0, 388(tp)
80004a94: 83 22 03 00  	lw	t0, 0(t1)
80004a98: 03 23 43 00  	lw	t1, 4(t1)
80004a9c: 83 23 c2 ef  	lw	t2, -260(tp)
80004aa0: 03 24 02 f0  	lw	s0, -256(tp)
80004aa4: 83 24 42 f0  	lw	s1, -252(tp)
80004aa8: 03 25 82 f0  	lw	a0, -248(tp)
80004aac: 83 25 c2 f0  	lw	a1, -244(tp)
80004ab0: 03 26 02 f1  	lw	a2, -240(tp)
80004ab4: 83 26 42 f1  	lw	a3, -236(tp)
80004ab8: 03 27 82 f1  	lw	a4, -232(tp)
80004abc: 83 27 c2 f1  	lw	a5, -228(tp)
80004ac0: 03 28 02 f2  	lw	a6, -224(tp)
80004ac4: 83 28 42 f2  	lw	a7, -220(tp)
80004ac8: 03 29 82 f2  	lw	s2, -216(tp)
80004acc: 83 29 c2 f2  	lw	s3, -212(tp)
80004ad0: 03 2a 02 f3  	lw	s4, -208(tp)
80004ad4: 23 28 42 f3  	sw	s4, -208(tp)
80004ad8: 23 26 32 f3  	sw	s3, -212(tp)
80004adc: 23 24 22 f3  	sw	s2, -216(tp)
80004ae0: 23 22 12 f3  	sw	a7, -220(tp)
80004ae4: 23 20 02 f3  	sw	a6, -224(tp)
80004ae8: 23 2e f2 f0  	sw	a5, -228(tp)
80004aec: 23 2c e2 f0  	sw	a4, -232(tp)
80004af0: 23 2a d2 f0  	sw	a3, -236(tp)
80004af4: 23 28 c2 f0  	sw	a2, -240(tp)
80004af8: 23 26 b2 f0  	sw	a1, -244(tp)
80004afc: 23 24 a2 f0  	sw	a0, -248(tp)
80004b00: 23 22 92 f0  	sw	s1, -252(tp)
80004b04: 23 20 82 f0  	sw	s0, -256(tp)
80004b08: 23 2e 72 ee  	sw	t2, -260(tp)
80004b0c: 23 2c 62 ee  	sw	t1, -264(tp)
80004b10: 23 2a 52 ee  	sw	t0, -268(tp)
80004b14: 6f 00 80 1c  	j	0x80004cdc <.LBB4_171>

80004b18 <.LBB4_168>:
80004b18: 83 22 42 18  	lw	t0, 388(tp)
80004b1c: 13 83 42 00  	addi	t1, t0, 4
80004b20: 23 22 62 18  	sw	t1, 388(tp)
80004b24: 03 a4 02 00  	lw	s0, 0(t0)
80004b28: 83 22 04 00  	lw	t0, 0(s0)
80004b2c: 03 23 44 00  	lw	t1, 4(s0)
80004b30: 83 23 84 00  	lw	t2, 8(s0)
80004b34: 03 24 c4 00  	lw	s0, 12(s0)
80004b38: 83 24 42 f0  	lw	s1, -252(tp)
80004b3c: 03 25 82 f0  	lw	a0, -248(tp)
80004b40: 83 25 c2 f0  	lw	a1, -244(tp)
80004b44: 03 26 02 f1  	lw	a2, -240(tp)
80004b48: 83 26 42 f1  	lw	a3, -236(tp)
80004b4c: 03 27 82 f1  	lw	a4, -232(tp)
80004b50: 83 27 c2 f1  	lw	a5, -228(tp)
80004b54: 03 28 02 f2  	lw	a6, -224(tp)
80004b58: 83 28 42 f2  	lw	a7, -220(tp)
80004b5c: 03 29 82 f2  	lw	s2, -216(tp)
80004b60: 83 29 c2 f2  	lw	s3, -212(tp)
80004b64: 03 2a 02 f3  	lw	s4, -208(tp)
80004b68: 23 28 42 f3  	sw	s4, -208(tp)
80004b6c: 23 26 32 f3  	sw	s3, -212(tp)
80004b70: 23 24 22 f3  	sw	s2, -216(tp)
80004b74: 23 22 12 f3  	sw	a7, -220(tp)
80004b78: 23 20 02 f3  	sw	a6, -224(tp)
80004b7c: 23 2e f2 f0  	sw	a5, -228(tp)
80004b80: 23 2c e2 f0  	sw	a4, -232(tp)
80004b84: 23 2a d2 f0  	sw	a3, -236(tp)
80004b88: 23 28 c2 f0  	sw	a2, -240(tp)
80004b8c: 23 26 b2 f0  	sw	a1, -244(tp)
80004b90: 23 24 a2 f0  	sw	a0, -248(tp)
80004b94: 23 22 92 f0  	sw	s1, -252(tp)
80004b98: 23 20 82 f0  	sw	s0, -256(tp)
80004b9c: 23 2e 72 ee  	sw	t2, -260(tp)
80004ba0: 23 2c 62 ee  	sw	t1, -264(tp)
80004ba4: 23 2a 52 ee  	sw	t0, -268(tp)
80004ba8: 6f 00 40 13  	j	0x80004cdc <.LBB4_171>

80004bac <.LBB4_169>:
80004bac: 83 22 42 18  	lw	t0, 388(tp)
80004bb0: 13 83 42 00  	addi	t1, t0, 4
80004bb4: 23 22 62 18  	sw	t1, 388(tp)
80004bb8: 03 a6 02 00  	lw	a2, 0(t0)
80004bbc: 23 24 c1 dc  	sw	a2, -568(sp)
80004bc0: 83 22 06 00  	lw	t0, 0(a2)
80004bc4: 03 23 46 00  	lw	t1, 4(a2)
80004bc8: 83 23 86 00  	lw	t2, 8(a2)
80004bcc: 03 24 c6 00  	lw	s0, 12(a2)
80004bd0: 83 24 06 01  	lw	s1, 16(a2)
80004bd4: 03 25 46 01  	lw	a0, 20(a2)
80004bd8: 83 25 86 01  	lw	a1, 24(a2)
80004bdc: 03 26 c6 01  	lw	a2, 28(a2)
80004be0: 83 26 42 f1  	lw	a3, -236(tp)
80004be4: 03 27 82 f1  	lw	a4, -232(tp)
80004be8: 83 27 c2 f1  	lw	a5, -228(tp)
80004bec: 03 28 02 f2  	lw	a6, -224(tp)
80004bf0: 83 28 42 f2  	lw	a7, -220(tp)
80004bf4: 03 29 82 f2  	lw	s2, -216(tp)
80004bf8: 83 29 c2 f2  	lw	s3, -212(tp)
80004bfc: 03 2a 02 f3  	lw	s4, -208(tp)
80004c00: 23 28 42 f3  	sw	s4, -208(tp)
80004c04: 23 26 32 f3  	sw	s3, -212(tp)
80004c08: 23 24 22 f3  	sw	s2, -216(tp)
80004c0c: 23 22 12 f3  	sw	a7, -220(tp)
80004c10: 23 20 02 f3  	sw	a6, -224(tp)
80004c14: 23 2e f2 f0  	sw	a5, -228(tp)
80004c18: 23 2c e2 f0  	sw	a4, -232(tp)
80004c1c: 23 2a d2 f0  	sw	a3, -236(tp)
80004c20: 23 28 c2 f0  	sw	a2, -240(tp)
80004c24: 23 26 b2 f0  	sw	a1, -244(tp)
80004c28: 23 24 a2 f0  	sw	a0, -248(tp)
80004c2c: 23 22 92 f0  	sw	s1, -252(tp)
80004c30: 23 20 82 f0  	sw	s0, -256(tp)
80004c34: 23 2e 72 ee  	sw	t2, -260(tp)
80004c38: 23 2c 62 ee  	sw	t1, -264(tp)
80004c3c: 23 2a 52 ee  	sw	t0, -268(tp)
80004c40: 6f 00 c0 09  	j	0x80004cdc <.LBB4_171>

80004c44 <.LBB4_170>:
80004c44: 83 22 42 18  	lw	t0, 388(tp)
80004c48: 13 83 42 00  	addi	t1, t0, 4
80004c4c: 23 22 62 18  	sw	t1, 388(tp)
80004c50: 03 aa 02 00  	lw	s4, 0(t0)
80004c54: 23 26 41 dd  	sw	s4, -564(sp)
80004c58: 83 22 0a 00  	lw	t0, 0(s4)
80004c5c: 03 23 4a 00  	lw	t1, 4(s4)
80004c60: 83 23 8a 00  	lw	t2, 8(s4)
80004c64: 03 24 ca 00  	lw	s0, 12(s4)
80004c68: 83 24 0a 01  	lw	s1, 16(s4)
80004c6c: 03 25 4a 01  	lw	a0, 20(s4)
80004c70: 83 25 8a 01  	lw	a1, 24(s4)
80004c74: 03 26 ca 01  	lw	a2, 28(s4)
80004c78: 83 26 0a 02  	lw	a3, 32(s4)
80004c7c: 03 27 4a 02  	lw	a4, 36(s4)
80004c80: 83 27 8a 02  	lw	a5, 40(s4)
80004c84: 03 28 ca 02  	lw	a6, 44(s4)
80004c88: 83 28 0a 03  	lw	a7, 48(s4)
80004c8c: 03 29 4a 03  	lw	s2, 52(s4)
80004c90: 83 29 8a 03  	lw	s3, 56(s4)
80004c94: 03 2a ca 03  	lw	s4, 60(s4)
80004c98: 23 28 42 f3  	sw	s4, -208(tp)
80004c9c: 23 26 32 f3  	sw	s3, -212(tp)
80004ca0: 23 24 22 f3  	sw	s2, -216(tp)
80004ca4: 23 22 12 f3  	sw	a7, -220(tp)
80004ca8: 23 20 02 f3  	sw	a6, -224(tp)
80004cac: 23 2e f2 f0  	sw	a5, -228(tp)
80004cb0: 23 2c e2 f0  	sw	a4, -232(tp)
80004cb4: 23 2a d2 f0  	sw	a3, -236(tp)
80004cb8: 23 28 c2 f0  	sw	a2, -240(tp)
80004cbc: 23 26 b2 f0  	sw	a1, -244(tp)
80004cc0: 23 24 a2 f0  	sw	a0, -248(tp)
80004cc4: 23 22 92 f0  	sw	s1, -252(tp)
80004cc8: 23 20 82 f0  	sw	s0, -256(tp)
80004ccc: 23 2e 72 ee  	sw	t2, -260(tp)
80004cd0: 23 2c 62 ee  	sw	t1, -264(tp)
80004cd4: 23 2a 52 ee  	sw	t0, -268(tp)
80004cd8: 6f 00 40 00  	j	0x80004cdc <.LBB4_171>

80004cdc <.LBB4_171>:
80004cdc: 83 23 02 18  	lw	t2, 384(tp)
80004ce0: 83 22 82 e4  	lw	t0, -440(tp)
80004ce4: 13 03 02 00  	mv	t1, tp
80004ce8: 57 c0 03 5e  	<unknown>
80004cec: d7 40 03 5e  	<unknown>
80004cf0: 57 c1 02 5e  	<unknown>
80004cf4: ef e0 8f df  	jal	0x800032ec <print_floats_float>
80004cf8: 6f 00 40 00  	j	0x80004cfc <.LBB4_172>

80004cfc <.LBB4_172>:
80004cfc: 6f 00 40 37  	j	0x80005070 <.LBB4_214>

80004d00 <.LBB4_173>:
80004d00: 83 02 c2 e3  	lb	t0, -452(tp)
80004d04: 93 92 b2 01  	slli	t0, t0, 27
80004d08: 93 d2 82 41  	srai	t0, t0, 24
80004d0c: 93 d2 72 00  	srli	t0, t0, 7
80004d10: 93 f2 f2 0f  	andi	t0, t0, 255
80004d14: 63 90 02 06  	bnez	t0, 0x80004d74 <.LBB4_177>
80004d18: 6f 00 40 00  	j	0x80004d1c <.LBB4_174>

80004d1c <.LBB4_174>:
80004d1c: 83 02 c2 e3  	lb	t0, -452(tp)
80004d20: 93 92 92 01  	slli	t0, t0, 25
80004d24: 93 d2 82 41  	srai	t0, t0, 24
80004d28: 93 d2 72 00  	srli	t0, t0, 7
80004d2c: 93 f2 f2 0f  	andi	t0, t0, 255
80004d30: 63 92 02 04  	bnez	t0, 0x80004d74 <.LBB4_177>
80004d34: 6f 00 40 00  	j	0x80004d38 <.LBB4_175>

80004d38 <.LBB4_175>:
80004d38: 83 02 c2 e3  	lb	t0, -452(tp)
80004d3c: 93 92 e2 01  	slli	t0, t0, 30
80004d40: 93 d2 82 41  	srai	t0, t0, 24
80004d44: 93 d2 72 00  	srli	t0, t0, 7
80004d48: 93 f2 f2 0f  	andi	t0, t0, 255
80004d4c: 63 94 02 02  	bnez	t0, 0x80004d74 <.LBB4_177>
80004d50: 6f 00 40 00  	j	0x80004d54 <.LBB4_176>

80004d54 <.LBB4_176>:
80004d54: 83 42 c2 e3  	lbu	t0, -452(tp)
80004d58: 93 f2 12 00  	andi	t0, t0, 1
80004d5c: 57 c0 02 5e  	<unknown>
80004d60: 57 30 00 0e  	vrsub.vi	v0, v0, 0
80004d64: d7 22 00 42  	vmv.x.s	t0, v0
80004d68: 93 f2 f2 0f  	andi	t0, t0, 255
80004d6c: 63 8a 02 00  	beqz	t0, 0x80004d80 <.LBB4_178>
80004d70: 6f 00 40 00  	j	0x80004d74 <.LBB4_177>

80004d74 <.LBB4_177>:
80004d74: 93 02 50 02  	li	t0, 37
80004d78: 23 2c 52 e2  	sw	t0, -456(tp)
80004d7c: 6f 00 80 32  	j	0x800050a4 <.LBB4_219>

80004d80 <.LBB4_178>:
80004d80: 83 22 42 e4  	lw	t0, -444(tp)
80004d84: 63 ca 02 00  	bltz	t0, 0x80004d98 <.LBB4_180>
80004d88: 6f 00 40 00  	j	0x80004d8c <.LBB4_179>

80004d8c <.LBB4_179>:
80004d8c: 93 02 50 02  	li	t0, 37
80004d90: 23 2c 52 e2  	sw	t0, -456(tp)
80004d94: 6f 00 00 31  	j	0x800050a4 <.LBB4_219>

80004d98 <.LBB4_180>:
80004d98: 83 22 82 e4  	lw	t0, -440(tp)
80004d9c: 13 03 10 00  	li	t1, 1
80004da0: 63 8a 62 00  	beq	t0, t1, 0x80004db4 <.LBB4_182>
80004da4: 6f 00 40 00  	j	0x80004da8 <.LBB4_181>

80004da8 <.LBB4_181>:
80004da8: 93 02 50 02  	li	t0, 37
80004dac: 23 2c 52 e2  	sw	t0, -456(tp)
80004db0: 6f 00 40 2f  	j	0x800050a4 <.LBB4_219>

80004db4 <.LBB4_182>:
80004db4: 83 22 c2 e4  	lw	t0, -436(tp)
80004db8: 63 8a 02 00  	beqz	t0, 0x80004dcc <.LBB4_184>
80004dbc: 6f 00 40 00  	j	0x80004dc0 <.LBB4_183>

80004dc0 <.LBB4_183>:
80004dc0: 93 02 50 02  	li	t0, 37
80004dc4: 23 2c 52 e2  	sw	t0, -456(tp)
80004dc8: 6f 00 c0 2d  	j	0x800050a4 <.LBB4_219>

80004dcc <.LBB4_184>:
80004dcc: 83 22 42 18  	lw	t0, 388(tp)
80004dd0: 13 83 42 00  	addi	t1, t0, 4
80004dd4: 23 22 62 18  	sw	t1, 388(tp)
80004dd8: 83 a2 02 00  	lw	t0, 0(t0)
80004ddc: 23 2a 52 f2  	sw	t0, -204(tp)
80004de0: 83 22 42 f3  	lw	t0, -204(tp)
80004de4: 23 04 52 18  	sb	t0, 392(tp)
80004de8: 93 02 00 00  	li	t0, 0
80004dec: a3 04 52 18  	sb	t0, 393(tp)
80004df0: 83 22 02 18  	lw	t0, 384(tp)
80004df4: 57 c0 02 5e  	<unknown>
80004df8: ef 10 10 2d  	jal	0x800068c8 <printf_putchw>
80004dfc: 6f 00 40 27  	j	0x80005070 <.LBB4_214>

80004e00 <.LBB4_185>:
80004e00: 83 02 c2 e3  	lb	t0, -452(tp)
80004e04: 93 92 b2 01  	slli	t0, t0, 27
80004e08: 93 d2 82 41  	srai	t0, t0, 24
80004e0c: 93 d2 72 00  	srli	t0, t0, 7
80004e10: 93 f2 f2 0f  	andi	t0, t0, 255
80004e14: 63 90 02 06  	bnez	t0, 0x80004e74 <.LBB4_189>
80004e18: 6f 00 40 00  	j	0x80004e1c <.LBB4_186>

80004e1c <.LBB4_186>:
80004e1c: 83 02 c2 e3  	lb	t0, -452(tp)
80004e20: 93 92 92 01  	slli	t0, t0, 25
80004e24: 93 d2 82 41  	srai	t0, t0, 24
80004e28: 93 d2 72 00  	srli	t0, t0, 7
80004e2c: 93 f2 f2 0f  	andi	t0, t0, 255
80004e30: 63 92 02 04  	bnez	t0, 0x80004e74 <.LBB4_189>
80004e34: 6f 00 40 00  	j	0x80004e38 <.LBB4_187>

80004e38 <.LBB4_187>:
80004e38: 83 02 c2 e3  	lb	t0, -452(tp)
80004e3c: 93 92 e2 01  	slli	t0, t0, 30
80004e40: 93 d2 82 41  	srai	t0, t0, 24
80004e44: 93 d2 72 00  	srli	t0, t0, 7
80004e48: 93 f2 f2 0f  	andi	t0, t0, 255
80004e4c: 63 94 02 02  	bnez	t0, 0x80004e74 <.LBB4_189>
80004e50: 6f 00 40 00  	j	0x80004e54 <.LBB4_188>

80004e54 <.LBB4_188>:
80004e54: 83 42 c2 e3  	lbu	t0, -452(tp)
80004e58: 93 f2 12 00  	andi	t0, t0, 1
80004e5c: 57 c0 02 5e  	<unknown>
80004e60: 57 30 00 0e  	vrsub.vi	v0, v0, 0
80004e64: d7 22 00 42  	vmv.x.s	t0, v0
80004e68: 93 f2 f2 0f  	andi	t0, t0, 255
80004e6c: 63 8a 02 00  	beqz	t0, 0x80004e80 <.LBB4_190>
80004e70: 6f 00 40 00  	j	0x80004e74 <.LBB4_189>

80004e74 <.LBB4_189>:
80004e74: 93 02 60 02  	li	t0, 38
80004e78: 23 2c 52 e2  	sw	t0, -456(tp)
80004e7c: 6f 00 80 22  	j	0x800050a4 <.LBB4_219>

80004e80 <.LBB4_190>:
80004e80: 83 22 82 e4  	lw	t0, -440(tp)
80004e84: 13 03 10 00  	li	t1, 1
80004e88: 63 8a 62 00  	beq	t0, t1, 0x80004e9c <.LBB4_192>
80004e8c: 6f 00 40 00  	j	0x80004e90 <.LBB4_191>

80004e90 <.LBB4_191>:
80004e90: 93 02 70 02  	li	t0, 39
80004e94: 23 2c 52 e2  	sw	t0, -456(tp)
80004e98: 6f 00 c0 20  	j	0x800050a4 <.LBB4_219>

80004e9c <.LBB4_192>:
80004e9c: 83 22 c2 e4  	lw	t0, -436(tp)
80004ea0: 63 8a 02 00  	beqz	t0, 0x80004eb4 <.LBB4_194>
80004ea4: 6f 00 40 00  	j	0x80004ea8 <.LBB4_193>

80004ea8 <.LBB4_193>:
80004ea8: 93 02 80 02  	li	t0, 40
80004eac: 23 2c 52 e2  	sw	t0, -456(tp)
80004eb0: 6f 00 40 1f  	j	0x800050a4 <.LBB4_219>

80004eb4 <.LBB4_194>:
80004eb4: 83 22 42 18  	lw	t0, 388(tp)
80004eb8: 13 83 42 00  	addi	t1, t0, 4
80004ebc: 23 22 62 18  	sw	t1, 388(tp)
80004ec0: 83 a2 02 00  	lw	t0, 0(t0)
80004ec4: 23 2c 52 f2  	sw	t0, -200(tp)
80004ec8: 83 22 82 f3  	lw	t0, -200(tp)
80004ecc: 63 9a 02 02  	bnez	t0, 0x80004f00 <.LBB4_196>
80004ed0: 6f 00 40 00  	j	0x80004ed4 <.LBB4_195>

80004ed4 <.LBB4_195>:
80004ed4: 03 24 02 18  	lw	s0, 384(tp)
80004ed8: 03 23 02 e4  	lw	t1, -448(tp)
80004edc: 83 22 42 e4  	lw	t0, -444(tp)
80004ee0: b7 f3 00 80  	lui	t2, 524303
80004ee4: 93 83 03 02  	addi	t2, t2, 32
80004ee8: 57 40 04 5e  	<unknown>
80004eec: d7 c0 03 5e  	<unknown>
80004ef0: 57 41 03 5e  	<unknown>
80004ef4: d7 c1 02 5e  	<unknown>
80004ef8: ef 10 50 6b  	jal	0x80006dac <printf_puts_ljust>
80004efc: 6f 00 c0 06  	j	0x80004f68 <.LBB4_200>

80004f00 <.LBB4_196>:
80004f00: 83 02 c2 e3  	lb	t0, -452(tp)
80004f04: 93 92 d2 01  	slli	t0, t0, 29
80004f08: 93 d2 f2 41  	srai	t0, t0, 31
80004f0c: 63 88 02 02  	beqz	t0, 0x80004f3c <.LBB4_198>
80004f10: 6f 00 40 00  	j	0x80004f14 <.LBB4_197>

80004f14 <.LBB4_197>:
80004f14: 03 24 02 18  	lw	s0, 384(tp)
80004f18: 83 23 82 f3  	lw	t2, -200(tp)
80004f1c: 03 23 02 e4  	lw	t1, -448(tp)
80004f20: 83 22 42 e4  	lw	t0, -444(tp)
80004f24: 57 40 04 5e  	<unknown>
80004f28: d7 c0 03 5e  	<unknown>
80004f2c: 57 41 03 5e  	<unknown>
80004f30: d7 c1 02 5e  	<unknown>
80004f34: ef 10 90 67  	jal	0x80006dac <printf_puts_ljust>
80004f38: 6f 00 c0 02  	j	0x80004f64 <.LBB4_199>

80004f3c <.LBB4_198>:
80004f3c: 03 24 02 18  	lw	s0, 384(tp)
80004f40: 83 23 82 f3  	lw	t2, -200(tp)
80004f44: 03 23 02 e4  	lw	t1, -448(tp)
80004f48: 83 22 42 e4  	lw	t0, -444(tp)
80004f4c: 57 40 04 5e  	<unknown>
80004f50: d7 c0 03 5e  	<unknown>
80004f54: 57 41 03 5e  	<unknown>
80004f58: d7 c1 02 5e  	<unknown>
80004f5c: ef 10 10 76  	jal	0x80006ebc <printf_puts_rjust>
80004f60: 6f 00 40 00  	j	0x80004f64 <.LBB4_199>

80004f64 <.LBB4_199>:
80004f64: 6f 00 40 00  	j	0x80004f68 <.LBB4_200>

80004f68 <.LBB4_200>:
80004f68: 6f 00 80 10  	j	0x80005070 <.LBB4_214>

80004f6c <.LBB4_201>:
80004f6c: 83 02 c2 e3  	lb	t0, -452(tp)
80004f70: 93 92 b2 01  	slli	t0, t0, 27
80004f74: 93 d2 82 41  	srai	t0, t0, 24
80004f78: 93 d2 72 00  	srli	t0, t0, 7
80004f7c: 93 f2 f2 0f  	andi	t0, t0, 255
80004f80: 63 90 02 06  	bnez	t0, 0x80004fe0 <.LBB4_205>
80004f84: 6f 00 40 00  	j	0x80004f88 <.LBB4_202>

80004f88 <.LBB4_202>:
80004f88: 83 02 c2 e3  	lb	t0, -452(tp)
80004f8c: 93 92 92 01  	slli	t0, t0, 25
80004f90: 93 d2 82 41  	srai	t0, t0, 24
80004f94: 93 d2 72 00  	srli	t0, t0, 7
80004f98: 93 f2 f2 0f  	andi	t0, t0, 255
80004f9c: 63 92 02 04  	bnez	t0, 0x80004fe0 <.LBB4_205>
80004fa0: 6f 00 40 00  	j	0x80004fa4 <.LBB4_203>

80004fa4 <.LBB4_203>:
80004fa4: 83 02 c2 e3  	lb	t0, -452(tp)
80004fa8: 93 92 e2 01  	slli	t0, t0, 30
80004fac: 93 d2 82 41  	srai	t0, t0, 24
80004fb0: 93 d2 72 00  	srli	t0, t0, 7
80004fb4: 93 f2 f2 0f  	andi	t0, t0, 255
80004fb8: 63 94 02 02  	bnez	t0, 0x80004fe0 <.LBB4_205>
80004fbc: 6f 00 40 00  	j	0x80004fc0 <.LBB4_204>

80004fc0 <.LBB4_204>:
80004fc0: 83 42 c2 e3  	lbu	t0, -452(tp)
80004fc4: 93 f2 12 00  	andi	t0, t0, 1
80004fc8: 57 c0 02 5e  	<unknown>
80004fcc: 57 30 00 0e  	vrsub.vi	v0, v0, 0
80004fd0: d7 22 00 42  	vmv.x.s	t0, v0
80004fd4: 93 f2 f2 0f  	andi	t0, t0, 255
80004fd8: 63 8a 02 00  	beqz	t0, 0x80004fec <.LBB4_206>
80004fdc: 6f 00 40 00  	j	0x80004fe0 <.LBB4_205>

80004fe0 <.LBB4_205>:
80004fe0: 93 02 90 02  	li	t0, 41
80004fe4: 23 2c 52 e2  	sw	t0, -456(tp)
80004fe8: 6f 00 c0 0b  	j	0x800050a4 <.LBB4_219>

80004fec <.LBB4_206>:
80004fec: 83 22 42 e4  	lw	t0, -444(tp)
80004ff0: 63 ca 02 00  	bltz	t0, 0x80005004 <.LBB4_208>
80004ff4: 6f 00 40 00  	j	0x80004ff8 <.LBB4_207>

80004ff8 <.LBB4_207>:
80004ff8: 93 02 00 03  	li	t0, 48
80004ffc: 23 2c 52 e2  	sw	t0, -456(tp)
80005000: 6f 00 40 0a  	j	0x800050a4 <.LBB4_219>

80005004 <.LBB4_208>:
80005004: 83 22 82 e4  	lw	t0, -440(tp)
80005008: 13 03 10 00  	li	t1, 1
8000500c: 63 8a 62 00  	beq	t0, t1, 0x80005020 <.LBB4_210>
80005010: 6f 00 40 00  	j	0x80005014 <.LBB4_209>

80005014 <.LBB4_209>:
80005014: 93 02 10 03  	li	t0, 49
80005018: 23 2c 52 e2  	sw	t0, -456(tp)
8000501c: 6f 00 80 08  	j	0x800050a4 <.LBB4_219>

80005020 <.LBB4_210>:
80005020: 83 22 c2 e4  	lw	t0, -436(tp)
80005024: 63 8a 02 00  	beqz	t0, 0x80005038 <.LBB4_212>
80005028: 6f 00 40 00  	j	0x8000502c <.LBB4_211>

8000502c <.LBB4_211>:
8000502c: 93 02 20 03  	li	t0, 50
80005030: 23 2c 52 e2  	sw	t0, -456(tp)
80005034: 6f 00 00 07  	j	0x800050a4 <.LBB4_219>

80005038 <.LBB4_212>:
80005038: 83 22 42 18  	lw	t0, 388(tp)
8000503c: 13 83 42 00  	addi	t1, t0, 4
80005040: 23 22 62 18  	sw	t1, 388(tp)
80005044: 83 a2 02 00  	lw	t0, 0(t0)
80005048: 23 2e 52 f2  	sw	t0, -196(tp)
8000504c: 03 23 02 18  	lw	t1, 384(tp)
80005050: 83 22 c2 f3  	lw	t0, -196(tp)
80005054: 57 40 03 5e  	<unknown>
80005058: d7 c0 02 5e  	<unknown>
8000505c: ef 10 50 7c  	jal	0x80007020 <printf_ptr>
80005060: 6f 00 00 01  	j	0x80005070 <.LBB4_214>

80005064 <.LBB4_213>:
80005064: 93 02 30 03  	li	t0, 51
80005068: 23 2c 52 e2  	sw	t0, -456(tp)
8000506c: 6f 00 80 03  	j	0x800050a4 <.LBB4_219>

80005070 <.LBB4_214>:
80005070: 6f 00 40 00  	j	0x80005074 <.LBB4_215>

80005074 <.LBB4_215>:
80005074: 6f 00 00 02  	j	0x80005094 <.LBB4_217>

80005078 <.LBB4_216>:
80005078: 03 23 02 18  	lw	t1, 384(tp)
8000507c: b7 82 01 80  	lui	t0, 524312
80005080: 83 82 c2 25  	lb	t0, 604(t0)
80005084: 57 40 03 5e  	<unknown>
80005088: d7 c0 02 5e  	<unknown>
8000508c: ef 00 00 26  	jal	0x800052ec <printf_putcf>
80005090: 6f 00 40 00  	j	0x80005094 <.LBB4_217>

80005094 <.LBB4_217>:
80005094: 6f e0 cf cc  	j	0x80003560 <.LBB4_1>

80005098 <.LBB4_218>:
80005098: 93 02 00 00  	li	t0, 0
8000509c: 23 2c 52 16  	sw	t0, 376(tp)
800050a0: 6f 00 c0 08  	j	0x8000512c <.LBB4_220>

800050a4 <.LBB4_219>:
800050a4: b7 f2 00 80  	lui	t0, 524303
800050a8: 93 82 02 00  	mv	t0, t0
800050ac: 23 20 52 f4  	sw	t0, -192(tp)
800050b0: 03 23 02 18  	lw	t1, 384(tp)
800050b4: 83 22 02 f4  	lw	t0, -192(tp)
800050b8: 57 40 03 5e  	<unknown>
800050bc: d7 c0 02 5e  	<unknown>
800050c0: ef 00 80 29  	jal	0x80005358 <printf_puts>
800050c4: 83 22 82 e3  	lw	t0, -456(tp)
800050c8: 93 d2 42 00  	srli	t0, t0, 4
800050cc: 93 82 02 03  	addi	t0, t0, 48
800050d0: 23 02 52 f4  	sb	t0, -188(tp)
800050d4: 83 22 82 e3  	lw	t0, -456(tp)
800050d8: 93 f2 72 00  	andi	t0, t0, 7
800050dc: 93 e2 02 03  	ori	t0, t0, 48
800050e0: a3 02 52 f4  	sb	t0, -187(tp)
800050e4: 03 23 02 18  	lw	t1, 384(tp)
800050e8: 83 02 42 f4  	lb	t0, -188(tp)
800050ec: 57 40 03 5e  	<unknown>
800050f0: d7 c0 02 5e  	<unknown>
800050f4: ef 00 80 1f  	jal	0x800052ec <printf_putcf>
800050f8: 03 23 02 18  	lw	t1, 384(tp)
800050fc: 83 02 52 f4  	lb	t0, -187(tp)
80005100: 57 40 03 5e  	<unknown>
80005104: d7 c0 02 5e  	<unknown>
80005108: ef 00 40 1e  	jal	0x800052ec <printf_putcf>
8000510c: 03 23 02 18  	lw	t1, 384(tp)
80005110: 93 02 a0 00  	li	t0, 10
80005114: 57 40 03 5e  	<unknown>
80005118: d7 c0 02 5e  	<unknown>
8000511c: ef 00 00 1d  	jal	0x800052ec <printf_putcf>
80005120: 93 02 f0 ff  	li	t0, -1
80005124: 23 2c 52 16  	sw	t0, 376(tp)
80005128: 6f 00 40 00  	j	0x8000512c <.LBB4_220>

8000512c <.LBB4_220>:
8000512c: 83 22 82 17  	lw	t0, 376(tp)
80005130: 57 c0 02 5e  	<unknown>
80005134: 83 20 01 fb  	lw	ra, -80(sp)
80005138: 0b c0 00 04  	barrier	x0, x0, 1
8000513c: 13 01 01 fb  	addi	sp, sp, -80
80005140: 13 02 02 80  	addi	tp, tp, -2048
80005144: 13 02 42 9c  	addi	tp, tp, -1596
80005148: 67 80 00 00  	ret

8000514c <printf>:
8000514c: 13 01 81 00  	addi	sp, sp, 8
80005150: 13 02 c2 04  	addi	tp, tp, 76
80005154: 0b 20 10 00  	regext	zero, zero, 1
80005158: 57 40 02 5e  	<unknown>
8000515c: 23 2a 11 00  	sw	ra, 20(sp)
80005160: 0b 20 80 00  	regext	zero, zero, 8
80005164: 2b 28 70 fa  	vsw.v	v7, -80(v0)
80005168: 0b 20 80 00  	regext	zero, zero, 8
8000516c: 2b 2a 60 fa  	vsw.v	v6, -76(v0)
80005170: 0b 20 80 00  	regext	zero, zero, 8
80005174: 2b 2c 50 fa  	vsw.v	v5, -72(v0)
80005178: 0b 20 80 00  	regext	zero, zero, 8
8000517c: 2b 2e 40 fa  	vsw.v	v4, -68(v0)
80005180: 0b 20 80 00  	regext	zero, zero, 8
80005184: 2b 20 30 fc  	vsw.v	v3, -64(v0)
80005188: 0b 20 80 00  	regext	zero, zero, 8
8000518c: 2b 22 20 fc  	vsw.v	v2, -60(v0)
80005190: 0b 20 80 00  	regext	zero, zero, 8
80005194: 2b 24 10 fc  	vsw.v	v1, -56(v0)
80005198: 0b 20 80 00  	regext	zero, zero, 8
8000519c: 7b 66 00 fc  	vsw12.v	v0, -52(v0)
800051a0: b7 82 01 80  	lui	t0, 524312
800051a4: 03 a3 82 24  	lw	t1, 584(t0)
800051a8: b7 82 01 80  	lui	t0, 524312
800051ac: 93 82 42 26  	addi	t0, t0, 612
800051b0: 57 40 03 5e  	<unknown>
800051b4: d7 c0 02 5e  	<unknown>
800051b8: 2b a2 00 80  	vsw.v	v0, 4(v1)
800051bc: 37 83 01 80  	lui	t1, 524312
800051c0: 03 23 03 25  	lw	t1, 592(t1)
800051c4: 57 40 03 5e  	<unknown>
800051c8: d7 c0 02 5e  	<unknown>
800051cc: 2b a6 00 80  	vsw.v	v0, 12(v1)
800051d0: 93 02 00 00  	li	t0, 0
800051d4: 23 28 52 fc  	sw	t0, -48(tp)
800051d8: 6f 00 40 00  	j	0x800051dc <.LBB5_1>

800051dc <.LBB5_1>:
800051dc: 03 23 02 fd  	lw	t1, -48(tp)
800051e0: 93 02 f0 03  	li	t0, 63
800051e4: 63 ce 62 02  	blt	t0, t1, 0x80005220 <.LBB5_4>
800051e8: 6f 00 40 00  	j	0x800051ec <.LBB5_2>

800051ec <.LBB5_2>:
800051ec: 83 22 c2 fc  	lw	t0, -52(tp)
800051f0: 83 23 02 fd  	lw	t2, -48(tp)
800051f4: b3 82 72 00  	add	t0, t0, t2
800051f8: 83 82 02 00  	lb	t0, 0(t0)
800051fc: 37 83 01 80  	lui	t1, 524312
80005200: 03 23 83 24  	lw	t1, 584(t1)
80005204: 33 03 73 00  	add	t1, t1, t2
80005208: 23 00 53 00  	sb	t0, 0(t1)
8000520c: 6f 00 40 00  	j	0x80005210 <.LBB5_3>

80005210 <.LBB5_3>:
80005210: 83 22 02 fd  	lw	t0, -48(tp)
80005214: 93 82 12 00  	addi	t0, t0, 1
80005218: 23 28 52 fc  	sw	t0, -48(tp)
8000521c: 6f f0 1f fc  	j	0x800051dc <.LBB5_1>

80005220 <.LBB5_4>:
80005220: b7 82 01 80  	lui	t0, 524312
80005224: 13 83 42 26  	addi	t1, t0, 612
80005228: 23 24 61 02  	sw	t1, 40(sp)
8000522c: 93 02 00 00  	li	t0, 0
80005230: 57 c0 02 5e  	<unknown>
80005234: d7 40 03 5e  	<unknown>
80005238: 2b a4 00 80  	vsw.v	v0, 8(v1)
8000523c: 93 02 82 fc  	addi	t0, tp, -56
80005240: 23 2a 52 fc  	sw	t0, -44(tp)
80005244: 83 23 c2 fc  	lw	t2, -52(tp)
80005248: 83 22 42 fd  	lw	t0, -44(tp)
8000524c: 57 c0 03 5e  	<unknown>
80005250: d7 40 03 5e  	<unknown>
80005254: 57 c1 02 5e  	<unknown>
80005258: ef e0 0f ac  	jal	0x80003518 <printf_format_full>
8000525c: 83 22 81 02  	lw	t0, 40(sp)
80005260: 0b 20 80 00  	regext	zero, zero, 8
80005264: 7b 6c 00 fc  	vsw12.v	v0, -40(v0)
80005268: 57 c0 02 5e  	<unknown>
8000526c: 2b 20 80 00  	vlw.v	v0, 8(v0)
80005270: b7 82 01 80  	lui	t0, 524312
80005274: 83 a2 c2 24  	lw	t0, 588(t0)
80005278: d7 c0 02 5e  	<unknown>
8000527c: 7b e0 00 00  	vsw12.v	v0, 0(v1)
80005280: 93 02 10 00  	li	t0, 1
80005284: 57 c0 02 5e  	<unknown>
80005288: 83 20 41 01  	lw	ra, 20(sp)
8000528c: 0b c0 00 04  	barrier	x0, x0, 1
80005290: 13 01 81 ff  	addi	sp, sp, -8
80005294: 13 02 42 fb  	addi	tp, tp, -76
80005298: 67 80 00 00  	ret

8000529c <generate_float_digits>:
8000529c: 13 01 41 00  	addi	sp, sp, 4
800052a0: 13 02 82 00  	addi	tp, tp, 8
800052a4: 0b 20 10 00  	regext	zero, zero, 1
800052a8: 57 40 02 5e  	<unknown>
800052ac: 23 2e 11 fe  	sw	ra, -4(sp)
800052b0: 0b 20 80 00  	regext	zero, zero, 8
800052b4: 7b 6c 00 fe  	vsw12.v	v0, -8(v0)
800052b8: 0b 20 80 00  	regext	zero, zero, 8
800052bc: 7b 6e 10 fe  	vsw12.v	v1, -4(v0)
800052c0: 83 22 82 ff  	lw	t0, -8(tp)
800052c4: 57 c0 02 5e  	<unknown>
800052c8: ef b0 4f e4  	jal	0x8000090c <__extendsfdf2>
800052cc: 83 22 c2 ff  	lw	t0, -4(tp)
800052d0: 57 c1 02 5e  	<unknown>
800052d4: ef 70 50 71  	jal	0x8000d1e8 <errol4_dtoa>
800052d8: 83 20 c1 ff  	lw	ra, -4(sp)
800052dc: 0b c0 00 04  	barrier	x0, x0, 1
800052e0: 13 01 c1 ff  	addi	sp, sp, -4
800052e4: 13 02 82 ff  	addi	tp, tp, -8
800052e8: 67 80 00 00  	ret

800052ec <printf_putcf>:
800052ec: 13 01 41 00  	addi	sp, sp, 4
800052f0: 13 02 82 00  	addi	tp, tp, 8
800052f4: 0b 20 10 00  	regext	zero, zero, 1
800052f8: 57 40 02 5e  	<unknown>
800052fc: 23 2e 11 fe  	sw	ra, -4(sp)
80005300: 0b 20 80 00  	regext	zero, zero, 8
80005304: 7b 6c 00 fe  	vsw12.v	v0, -8(v0)
80005308: 7b 7e 12 fe  	vsb12.v	v1, -4(v4)
8000530c: 03 23 82 ff  	lw	t1, -8(tp)
80005310: 83 22 83 00  	lw	t0, 8(t1)
80005314: 03 23 c3 00  	lw	t1, 12(t1)
80005318: 63 f6 62 02  	bgeu	t0, t1, 0x80005344 <.LBB1_2>
8000531c: 6f 00 40 00  	j	0x80005320 <.LBB1_1>

80005320 <.LBB1_1>:
80005320: 83 02 c2 ff  	lb	t0, -4(tp)
80005324: 03 25 82 ff  	lw	a0, -8(tp)
80005328: 03 23 45 00  	lw	t1, 4(a0)
8000532c: 83 23 85 00  	lw	t2, 8(a0)
80005330: 93 84 13 00  	addi	s1, t2, 1
80005334: 23 24 95 00  	sw	s1, 8(a0)
80005338: 33 03 73 00  	add	t1, t1, t2
8000533c: 23 00 53 00  	sb	t0, 0(t1)
80005340: 6f 00 40 00  	j	0x80005344 <.LBB1_2>

80005344 <.LBB1_2>:
80005344: 83 20 c1 ff  	lw	ra, -4(sp)
80005348: 0b c0 00 04  	barrier	x0, x0, 1
8000534c: 13 01 c1 ff  	addi	sp, sp, -4
80005350: 13 02 82 ff  	addi	tp, tp, -8
80005354: 67 80 00 00  	ret

80005358 <printf_puts>:
80005358: 13 01 41 00  	addi	sp, sp, 4
8000535c: 13 02 c2 00  	addi	tp, tp, 12
80005360: 0b 20 10 00  	regext	zero, zero, 1
80005364: 57 40 02 5e  	<unknown>
80005368: 23 2e 11 fe  	sw	ra, -4(sp)
8000536c: 0b 20 80 00  	regext	zero, zero, 8
80005370: 7b 6a 00 fe  	vsw12.v	v0, -12(v0)
80005374: 0b 20 80 00  	regext	zero, zero, 8
80005378: 7b 6c 10 fe  	vsw12.v	v1, -8(v0)
8000537c: 6f 00 40 00  	j	0x80005380 <.LBB2_1>

80005380 <.LBB2_1>:
80005380: 83 22 82 ff  	lw	t0, -8(tp)
80005384: 13 83 12 00  	addi	t1, t0, 1
80005388: 23 2c 62 fe  	sw	t1, -8(tp)
8000538c: 83 c2 02 00  	lbu	t0, 0(t0)
80005390: 23 0e 52 fe  	sb	t0, -4(tp)
80005394: 63 82 02 04  	beqz	t0, 0x800053d8 <.LBB2_5>
80005398: 6f 00 40 00  	j	0x8000539c <.LBB2_2>

8000539c <.LBB2_2>:
8000539c: 03 23 42 ff  	lw	t1, -12(tp)
800053a0: 83 22 83 00  	lw	t0, 8(t1)
800053a4: 03 23 c3 00  	lw	t1, 12(t1)
800053a8: 63 f6 62 02  	bgeu	t0, t1, 0x800053d4 <.LBB2_4>
800053ac: 6f 00 40 00  	j	0x800053b0 <.LBB2_3>

800053b0 <.LBB2_3>:
800053b0: 83 02 c2 ff  	lb	t0, -4(tp)
800053b4: 03 25 42 ff  	lw	a0, -12(tp)
800053b8: 03 23 45 00  	lw	t1, 4(a0)
800053bc: 83 23 85 00  	lw	t2, 8(a0)
800053c0: 93 84 13 00  	addi	s1, t2, 1
800053c4: 23 24 95 00  	sw	s1, 8(a0)
800053c8: 33 03 73 00  	add	t1, t1, t2
800053cc: 23 00 53 00  	sb	t0, 0(t1)
800053d0: 6f 00 40 00  	j	0x800053d4 <.LBB2_4>

800053d4 <.LBB2_4>:
800053d4: 6f f0 df fa  	j	0x80005380 <.LBB2_1>

800053d8 <.LBB2_5>:
800053d8: 83 20 c1 ff  	lw	ra, -4(sp)
800053dc: 0b c0 00 04  	barrier	x0, x0, 1
800053e0: 13 01 c1 ff  	addi	sp, sp, -4
800053e4: 13 02 42 ff  	addi	tp, tp, -12
800053e8: 67 80 00 00  	ret

800053ec <printf_ul_base>:
800053ec: 13 01 41 00  	addi	sp, sp, 4
800053f0: 13 02 c2 05  	addi	tp, tp, 92
800053f4: 0b 20 10 00  	regext	zero, zero, 1
800053f8: 57 40 02 5e  	<unknown>
800053fc: 23 2e 11 fe  	sw	ra, -4(sp)
80005400: 0b 20 80 00  	regext	zero, zero, 8
80005404: 7b 62 00 fa  	vsw12.v	v0, -92(v0)
80005408: 0b 20 80 00  	regext	zero, zero, 8
8000540c: 7b 64 10 fa  	vsw12.v	v1, -88(v0)
80005410: 93 02 00 00  	li	t0, 0
80005414: 23 26 52 fe  	sw	t0, -20(tp)
80005418: 23 28 52 fe  	sw	t0, -16(tp)
8000541c: 83 22 42 fa  	lw	t0, -92(tp)
80005420: 83 a2 82 01  	lw	t0, 24(t0)
80005424: 23 2c 52 fe  	sw	t0, -8(tp)
80005428: 6f 00 40 00  	j	0x8000542c <.LBB3_1>

8000542c <.LBB3_1>:
8000542c: 83 22 82 fa  	lw	t0, -88(tp)
80005430: 63 86 02 04  	beqz	t0, 0x8000547c <.LBB3_3>
80005434: 6f 00 40 00  	j	0x80005438 <.LBB3_2>

80005438 <.LBB3_2>:
80005438: 83 22 82 fa  	lw	t0, -88(tp)
8000543c: 03 23 82 ff  	lw	t1, -8(tp)
80005440: b3 f2 62 02  	remu	t0, t0, t1
80005444: 23 2a 52 fe  	sw	t0, -12(tp)
80005448: 83 22 82 fa  	lw	t0, -88(tp)
8000544c: 03 23 82 ff  	lw	t1, -8(tp)
80005450: b3 d2 62 02  	divu	t0, t0, t1
80005454: 23 24 52 fa  	sw	t0, -88(tp)
80005458: 83 22 42 ff  	lw	t0, -12(tp)
8000545c: 93 82 02 03  	addi	t0, t0, 48
80005460: 83 23 c2 fe  	lw	t2, -20(tp)
80005464: 13 83 13 00  	addi	t1, t2, 1
80005468: 23 26 62 fe  	sw	t1, -20(tp)
8000546c: 13 03 c2 fa  	addi	t1, tp, -84
80005470: 33 03 73 00  	add	t1, t1, t2
80005474: 23 00 53 00  	sb	t0, 0(t1)
80005478: 6f f0 5f fb  	j	0x8000542c <.LBB3_1>

8000547c <.LBB3_3>:
8000547c: 83 22 42 fa  	lw	t0, -92(tp)
80005480: 03 a3 02 01  	lw	t1, 16(t0)
80005484: 93 02 00 00  	li	t0, 0
80005488: 63 d6 62 04  	bge	t0, t1, 0x800054d4 <.LBB3_9>
8000548c: 6f 00 40 00  	j	0x80005490 <.LBB3_4>

80005490 <.LBB3_4>:
80005490: 6f 00 40 00  	j	0x80005494 <.LBB3_5>

80005494 <.LBB3_5>:
80005494: 83 22 c2 fe  	lw	t0, -20(tp)
80005498: 03 23 42 fa  	lw	t1, -92(tp)
8000549c: 03 23 03 01  	lw	t1, 16(t1)
800054a0: 63 f8 62 02  	bgeu	t0, t1, 0x800054d0 <.LBB3_8>
800054a4: 6f 00 40 00  	j	0x800054a8 <.LBB3_6>

800054a8 <.LBB3_6>:
800054a8: 03 23 c2 fe  	lw	t1, -20(tp)
800054ac: 93 02 c2 fa  	addi	t0, tp, -84
800054b0: 33 83 62 00  	add	t1, t0, t1
800054b4: 93 02 00 03  	li	t0, 48
800054b8: 23 00 53 00  	sb	t0, 0(t1)
800054bc: 6f 00 40 00  	j	0x800054c0 <.LBB3_7>

800054c0 <.LBB3_7>:
800054c0: 83 22 c2 fe  	lw	t0, -20(tp)
800054c4: 93 82 12 00  	addi	t0, t0, 1
800054c8: 23 26 52 fe  	sw	t0, -20(tp)
800054cc: 6f f0 9f fc  	j	0x80005494 <.LBB3_5>

800054d0 <.LBB3_8>:
800054d0: 6f 00 40 00  	j	0x800054d4 <.LBB3_9>

800054d4 <.LBB3_9>:
800054d4: 83 22 42 fa  	lw	t0, -92(tp)
800054d8: 83 a2 02 00  	lw	t0, 0(t0)
800054dc: 23 2e 52 fe  	sw	t0, -4(tp)
800054e0: 83 22 c2 fe  	lw	t0, -20(tp)
800054e4: 23 28 52 fe  	sw	t0, -16(tp)
800054e8: 6f 00 40 00  	j	0x800054ec <.LBB3_10>

800054ec <.LBB3_10>:
800054ec: 83 22 02 ff  	lw	t0, -16(tp)
800054f0: 63 82 02 04  	beqz	t0, 0x80005534 <.LBB3_13>
800054f4: 6f 00 40 00  	j	0x800054f8 <.LBB3_11>

800054f8 <.LBB3_11>:
800054f8: 83 22 02 ff  	lw	t0, -16(tp)
800054fc: 13 03 c2 fa  	addi	t1, tp, -84
80005500: b3 82 62 00  	add	t0, t0, t1
80005504: 13 03 10 00  	li	t1, 1
80005508: b3 82 62 40  	sub	t0, t0, t1
8000550c: 83 82 02 00  	lb	t0, 0(t0)
80005510: 03 23 c2 ff  	lw	t1, -4(tp)
80005514: 93 03 13 00  	addi	t2, t1, 1
80005518: 23 2e 72 fe  	sw	t2, -4(tp)
8000551c: 23 00 53 00  	sb	t0, 0(t1)
80005520: 6f 00 40 00  	j	0x80005524 <.LBB3_12>

80005524 <.LBB3_12>:
80005524: 83 22 02 ff  	lw	t0, -16(tp)
80005528: 93 82 f2 ff  	addi	t0, t0, -1
8000552c: 23 28 52 fe  	sw	t0, -16(tp)
80005530: 6f f0 df fb  	j	0x800054ec <.LBB3_10>

80005534 <.LBB3_13>:
80005534: 03 23 c2 ff  	lw	t1, -4(tp)
80005538: 93 02 00 00  	li	t0, 0
8000553c: 23 00 53 00  	sb	t0, 0(t1)
80005540: 83 20 c1 ff  	lw	ra, -4(sp)
80005544: 0b c0 00 04  	barrier	x0, x0, 1
80005548: 13 01 c1 ff  	addi	sp, sp, -4
8000554c: 13 02 42 fa  	addi	tp, tp, -92
80005550: 67 80 00 00  	ret

80005554 <printf_ul16>:
80005554: 13 01 01 01  	addi	sp, sp, 16
80005558: 13 02 02 06  	addi	tp, tp, 96
8000555c: 0b 20 10 00  	regext	zero, zero, 1
80005560: 57 40 02 5e  	<unknown>
80005564: 23 28 11 fe  	sw	ra, -16(sp)
80005568: 0b 20 80 00  	regext	zero, zero, 8
8000556c: 7b 6a 00 f8  	vsw12.v	v0, -108(v0)
80005570: 0b 20 80 00  	regext	zero, zero, 8
80005574: 7b 6c 10 f8  	vsw12.v	v1, -104(v0)
80005578: 93 02 00 00  	li	t0, 0
8000557c: 23 2e 52 fc  	sw	t0, -36(tp)
80005580: 23 20 52 fe  	sw	t0, -32(tp)
80005584: 93 02 00 01  	li	t0, 16
80005588: 23 24 52 fe  	sw	t0, -24(tp)
8000558c: 83 22 42 f9  	lw	t0, -108(tp)
80005590: 83 82 c2 01  	lb	t0, 28(t0)
80005594: 93 92 c2 01  	slli	t0, t0, 28
80005598: 93 d2 82 41  	srai	t0, t0, 24
8000559c: 93 d2 72 00  	srli	t0, t0, 7
800055a0: 93 f2 f2 0f  	andi	t0, t0, 255
800055a4: 13 03 10 06  	li	t1, 97
800055a8: 23 2c 61 04  	sw	t1, 88(sp)
800055ac: 13 03 10 04  	li	t1, 65
800055b0: 23 2a 61 04  	sw	t1, 84(sp)
800055b4: 63 96 02 00  	bnez	t0, 0x800055c0 <.LBB4_2>
800055b8: 83 22 81 05  	lw	t0, 88(sp)
800055bc: 23 2a 51 04  	sw	t0, 84(sp)

800055c0 <.LBB4_2>:
800055c0: 83 22 41 05  	lw	t0, 84(sp)
800055c4: 23 06 52 fe  	sb	t0, -20(tp)
800055c8: 6f 00 40 00  	j	0x800055cc <.LBB4_3>

800055cc <.LBB4_3>:
800055cc: 83 22 82 f9  	lw	t0, -104(tp)
800055d0: 63 8e 02 06  	beqz	t0, 0x8000564c <.LBB4_8>
800055d4: 6f 00 40 00  	j	0x800055d8 <.LBB4_4>

800055d8 <.LBB4_4>:
800055d8: 83 22 82 f9  	lw	t0, -104(tp)
800055dc: 93 f2 f2 00  	andi	t0, t0, 15
800055e0: 23 22 52 fe  	sw	t0, -28(tp)
800055e4: 83 22 82 f9  	lw	t0, -104(tp)
800055e8: 93 d2 42 00  	srli	t0, t0, 4
800055ec: 23 2c 52 f8  	sw	t0, -104(tp)
800055f0: 03 23 42 fe  	lw	t1, -28(tp)
800055f4: 93 02 90 00  	li	t0, 9
800055f8: 63 ec 62 00  	bltu	t0, t1, 0x80005610 <.LBB4_6>
800055fc: 6f 00 40 00  	j	0x80005600 <.LBB4_5>

80005600 <.LBB4_5>:
80005600: 83 22 42 fe  	lw	t0, -28(tp)
80005604: 93 82 02 03  	addi	t0, t0, 48
80005608: 23 2e 51 04  	sw	t0, 92(sp)
8000560c: 6f 00 00 02  	j	0x8000562c <.LBB4_7>

80005610 <.LBB4_6>:
80005610: 83 02 c2 fe  	lb	t0, -20(tp)
80005614: 03 23 42 fe  	lw	t1, -28(tp)
80005618: b3 82 62 00  	add	t0, t0, t1
8000561c: 13 03 a0 00  	li	t1, 10
80005620: b3 82 62 40  	sub	t0, t0, t1
80005624: 23 2e 51 04  	sw	t0, 92(sp)
80005628: 6f 00 40 00  	j	0x8000562c <.LBB4_7>

8000562c <.LBB4_7>:
8000562c: 83 22 c1 05  	lw	t0, 92(sp)
80005630: 83 23 c2 fd  	lw	t2, -36(tp)
80005634: 13 83 13 00  	addi	t1, t2, 1
80005638: 23 2e 62 fc  	sw	t1, -36(tp)
8000563c: 13 03 c2 f9  	addi	t1, tp, -100
80005640: 33 03 73 00  	add	t1, t1, t2
80005644: 23 00 53 00  	sb	t0, 0(t1)
80005648: 6f f0 5f f8  	j	0x800055cc <.LBB4_3>

8000564c <.LBB4_8>:
8000564c: 83 22 42 f9  	lw	t0, -108(tp)
80005650: 03 a3 02 01  	lw	t1, 16(t0)
80005654: 93 02 00 00  	li	t0, 0
80005658: 63 d6 62 04  	bge	t0, t1, 0x800056a4 <.LBB4_14>
8000565c: 6f 00 40 00  	j	0x80005660 <.LBB4_9>

80005660 <.LBB4_9>:
80005660: 6f 00 40 00  	j	0x80005664 <.LBB4_10>

80005664 <.LBB4_10>:
80005664: 83 22 c2 fd  	lw	t0, -36(tp)
80005668: 03 23 42 f9  	lw	t1, -108(tp)
8000566c: 03 23 03 01  	lw	t1, 16(t1)
80005670: 63 f8 62 02  	bgeu	t0, t1, 0x800056a0 <.LBB4_13>
80005674: 6f 00 40 00  	j	0x80005678 <.LBB4_11>

80005678 <.LBB4_11>:
80005678: 03 23 c2 fd  	lw	t1, -36(tp)
8000567c: 93 02 c2 f9  	addi	t0, tp, -100
80005680: 33 83 62 00  	add	t1, t0, t1
80005684: 93 02 00 03  	li	t0, 48
80005688: 23 00 53 00  	sb	t0, 0(t1)
8000568c: 6f 00 40 00  	j	0x80005690 <.LBB4_12>

80005690 <.LBB4_12>:
80005690: 83 22 c2 fd  	lw	t0, -36(tp)
80005694: 93 82 12 00  	addi	t0, t0, 1
80005698: 23 2e 52 fc  	sw	t0, -36(tp)
8000569c: 6f f0 9f fc  	j	0x80005664 <.LBB4_10>

800056a0 <.LBB4_13>:
800056a0: 6f 00 40 00  	j	0x800056a4 <.LBB4_14>

800056a4 <.LBB4_14>:
800056a4: 83 22 42 f9  	lw	t0, -108(tp)
800056a8: 83 a2 02 00  	lw	t0, 0(t0)
800056ac: 23 28 52 fe  	sw	t0, -16(tp)
800056b0: 83 22 c2 fd  	lw	t0, -36(tp)
800056b4: 23 20 52 fe  	sw	t0, -32(tp)
800056b8: 6f 00 40 00  	j	0x800056bc <.LBB4_15>

800056bc <.LBB4_15>:
800056bc: 83 22 02 fe  	lw	t0, -32(tp)
800056c0: 63 82 02 04  	beqz	t0, 0x80005704 <.LBB4_18>
800056c4: 6f 00 40 00  	j	0x800056c8 <.LBB4_16>

800056c8 <.LBB4_16>:
800056c8: 83 22 02 fe  	lw	t0, -32(tp)
800056cc: 13 03 c2 f9  	addi	t1, tp, -100
800056d0: b3 82 62 00  	add	t0, t0, t1
800056d4: 13 03 10 00  	li	t1, 1
800056d8: b3 82 62 40  	sub	t0, t0, t1
800056dc: 83 82 02 00  	lb	t0, 0(t0)
800056e0: 03 23 02 ff  	lw	t1, -16(tp)
800056e4: 93 03 13 00  	addi	t2, t1, 1
800056e8: 23 28 72 fe  	sw	t2, -16(tp)
800056ec: 23 00 53 00  	sb	t0, 0(t1)
800056f0: 6f 00 40 00  	j	0x800056f4 <.LBB4_17>

800056f4 <.LBB4_17>:
800056f4: 83 22 02 fe  	lw	t0, -32(tp)
800056f8: 93 82 f2 ff  	addi	t0, t0, -1
800056fc: 23 20 52 fe  	sw	t0, -32(tp)
80005700: 6f f0 df fb  	j	0x800056bc <.LBB4_15>

80005704 <.LBB4_18>:
80005704: 03 23 02 ff  	lw	t1, -16(tp)
80005708: 93 02 00 00  	li	t0, 0
8000570c: 23 00 53 00  	sb	t0, 0(t1)
80005710: 83 20 01 ff  	lw	ra, -16(sp)
80005714: 0b c0 00 04  	barrier	x0, x0, 1
80005718: 13 01 01 ff  	addi	sp, sp, -16
8000571c: 13 02 02 fa  	addi	tp, tp, -96
80005720: 67 80 00 00  	ret

80005724 <printf_l_base>:
80005724: 13 01 41 00  	addi	sp, sp, 4
80005728: 13 02 c2 00  	addi	tp, tp, 12
8000572c: 0b 20 10 00  	regext	zero, zero, 1
80005730: 57 40 02 5e  	<unknown>
80005734: 23 2e 11 fe  	sw	ra, -4(sp)
80005738: 0b 20 80 00  	regext	zero, zero, 8
8000573c: 7b 6a 00 fe  	vsw12.v	v0, -12(v0)
80005740: 0b 20 80 00  	regext	zero, zero, 8
80005744: 7b 6c 10 fe  	vsw12.v	v1, -8(v0)
80005748: 83 22 82 ff  	lw	t0, -8(tp)
8000574c: 63 d8 02 04  	bgez	t0, 0x8000579c <.LBB5_5>
80005750: 6f 00 40 00  	j	0x80005754 <.LBB5_1>

80005754 <.LBB5_1>:
80005754: 83 22 82 ff  	lw	t0, -8(tp)
80005758: 37 03 00 80  	lui	t1, 524288
8000575c: 63 9a 62 00  	bne	t0, t1, 0x80005770 <.LBB5_3>
80005760: 6f 00 40 00  	j	0x80005764 <.LBB5_2>

80005764 <.LBB5_2>:
80005764: 83 22 82 ff  	lw	t0, -8(tp)
80005768: 23 2e 52 fe  	sw	t0, -4(tp)
8000576c: 6f 00 c0 01  	j	0x80005788 <.LBB5_4>

80005770 <.LBB5_3>:
80005770: 83 22 82 ff  	lw	t0, -8(tp)
80005774: 57 c0 02 5e  	<unknown>
80005778: 57 30 00 0e  	vrsub.vi	v0, v0, 0
8000577c: d7 22 00 42  	vmv.x.s	t0, v0
80005780: 23 2e 52 fe  	sw	t0, -4(tp)
80005784: 6f 00 40 00  	j	0x80005788 <.LBB5_4>

80005788 <.LBB5_4>:
80005788: 03 23 42 ff  	lw	t1, -12(tp)
8000578c: 83 02 c3 01  	lb	t0, 28(t1)
80005790: 93 e2 02 02  	ori	t0, t0, 32
80005794: 23 0e 53 00  	sb	t0, 28(t1)
80005798: 6f 00 00 02  	j	0x800057b8 <.LBB5_6>

8000579c <.LBB5_5>:
8000579c: 83 22 82 ff  	lw	t0, -8(tp)
800057a0: 23 2e 52 fe  	sw	t0, -4(tp)
800057a4: 03 23 42 ff  	lw	t1, -12(tp)
800057a8: 83 42 c3 01  	lbu	t0, 28(t1)
800057ac: 93 f2 f2 0d  	andi	t0, t0, 223
800057b0: 23 0e 53 00  	sb	t0, 28(t1)
800057b4: 6f 00 40 00  	j	0x800057b8 <.LBB5_6>

800057b8 <.LBB5_6>:
800057b8: 03 23 42 ff  	lw	t1, -12(tp)
800057bc: 83 22 c2 ff  	lw	t0, -4(tp)
800057c0: 57 40 03 5e  	<unknown>
800057c4: d7 c0 02 5e  	<unknown>
800057c8: ef f0 5f c2  	jal	0x800053ec <printf_ul_base>
800057cc: 83 20 c1 ff  	lw	ra, -4(sp)
800057d0: 0b c0 00 04  	barrier	x0, x0, 1
800057d4: 13 01 c1 ff  	addi	sp, sp, -4
800057d8: 13 02 42 ff  	addi	tp, tp, -12
800057dc: 67 80 00 00  	ret

800057e0 <printf_exp>:
800057e0: 13 01 41 00  	addi	sp, sp, 4
800057e4: 13 02 82 05  	addi	tp, tp, 88
800057e8: 0b 20 10 00  	regext	zero, zero, 1
800057ec: 57 40 02 5e  	<unknown>
800057f0: 23 2e 11 fe  	sw	ra, -4(sp)
800057f4: 0b 20 80 00  	regext	zero, zero, 8
800057f8: 7b 64 00 fa  	vsw12.v	v0, -88(v0)
800057fc: 0b 20 80 00  	regext	zero, zero, 8
80005800: 7b 66 10 fa  	vsw12.v	v1, -84(v0)
80005804: 0b 20 80 00  	regext	zero, zero, 8
80005808: 7b 68 20 fa  	vsw12.v	v2, -80(v0)
8000580c: 93 02 00 00  	li	t0, 0
80005810: 23 2a 52 fe  	sw	t0, -12(tp)
80005814: 23 2c 52 fe  	sw	t0, -8(tp)
80005818: 83 22 c2 fa  	lw	t0, -84(tp)
8000581c: 63 da 02 02  	bgez	t0, 0x80005850 <.LBB6_2>
80005820: 6f 00 40 00  	j	0x80005824 <.LBB6_1>

80005824 <.LBB6_1>:
80005824: 03 23 82 fa  	lw	t1, -88(tp)
80005828: 93 02 13 00  	addi	t0, t1, 1
8000582c: 23 24 52 fa  	sw	t0, -88(tp)
80005830: 93 02 d0 02  	li	t0, 45
80005834: 23 00 53 00  	sb	t0, 0(t1)
80005838: 83 22 c2 fa  	lw	t0, -84(tp)
8000583c: 57 c0 02 5e  	<unknown>
80005840: 57 30 00 0e  	vrsub.vi	v0, v0, 0
80005844: d7 22 00 42  	vmv.x.s	t0, v0
80005848: 23 26 52 fa  	sw	t0, -84(tp)
8000584c: 6f 00 c0 01  	j	0x80005868 <.LBB6_3>

80005850 <.LBB6_2>:
80005850: 03 23 82 fa  	lw	t1, -88(tp)
80005854: 93 02 13 00  	addi	t0, t1, 1
80005858: 23 24 52 fa  	sw	t0, -88(tp)
8000585c: 93 02 b0 02  	li	t0, 43
80005860: 23 00 53 00  	sb	t0, 0(t1)
80005864: 6f 00 40 00  	j	0x80005868 <.LBB6_3>

80005868 <.LBB6_3>:
80005868: 6f 00 40 00  	j	0x8000586c <.LBB6_4>

8000586c <.LBB6_4>:
8000586c: 83 22 c2 fa  	lw	t0, -84(tp)
80005870: 37 63 66 66  	lui	t1, 419430
80005874: 13 03 73 66  	addi	t1, t1, 1639
80005878: b3 93 62 02  	mulh	t2, t0, t1
8000587c: 93 d4 f3 01  	srli	s1, t2, 31
80005880: 93 d3 23 40  	srai	t2, t2, 2
80005884: b3 83 93 00  	add	t2, t2, s1
80005888: 93 04 a0 00  	li	s1, 10
8000588c: b3 83 93 02  	mul	t2, t2, s1
80005890: b3 82 72 40  	sub	t0, t0, t2
80005894: 23 2e 52 fe  	sw	t0, -4(tp)
80005898: 83 22 c2 fa  	lw	t0, -84(tp)
8000589c: b3 92 62 02  	mulh	t0, t0, t1
800058a0: 13 d3 f2 01  	srli	t1, t0, 31
800058a4: 93 d2 22 40  	srai	t0, t0, 2
800058a8: b3 82 62 00  	add	t0, t0, t1
800058ac: 23 26 52 fa  	sw	t0, -84(tp)
800058b0: 83 22 c2 ff  	lw	t0, -4(tp)
800058b4: 93 82 02 03  	addi	t0, t0, 48
800058b8: 83 23 42 ff  	lw	t2, -12(tp)
800058bc: 13 83 13 00  	addi	t1, t2, 1
800058c0: 23 2a 62 fe  	sw	t1, -12(tp)
800058c4: 13 03 42 fb  	addi	t1, tp, -76
800058c8: 33 03 73 00  	add	t1, t1, t2
800058cc: 23 00 53 00  	sb	t0, 0(t1)
800058d0: 6f 00 40 00  	j	0x800058d4 <.LBB6_5>

800058d4 <.LBB6_5>:
800058d4: 03 23 c2 fa  	lw	t1, -84(tp)
800058d8: 93 02 00 00  	li	t0, 0
800058dc: e3 c8 62 f8  	blt	t0, t1, 0x8000586c <.LBB6_4>
800058e0: 6f 00 40 00  	j	0x800058e4 <.LBB6_6>

800058e4 <.LBB6_6>:
800058e4: 6f 00 40 00  	j	0x800058e8 <.LBB6_7>

800058e8 <.LBB6_7>:
800058e8: 83 22 42 ff  	lw	t0, -12(tp)
800058ec: 03 23 02 fb  	lw	t1, -80(tp)
800058f0: 63 f4 62 02  	bgeu	t0, t1, 0x80005918 <.LBB6_9>
800058f4: 6f 00 40 00  	j	0x800058f8 <.LBB6_8>

800058f8 <.LBB6_8>:
800058f8: 03 23 42 ff  	lw	t1, -12(tp)
800058fc: 93 02 13 00  	addi	t0, t1, 1
80005900: 23 2a 52 fe  	sw	t0, -12(tp)
80005904: 93 02 42 fb  	addi	t0, tp, -76
80005908: 33 83 62 00  	add	t1, t0, t1
8000590c: 93 02 00 03  	li	t0, 48
80005910: 23 00 53 00  	sb	t0, 0(t1)
80005914: 6f f0 5f fd  	j	0x800058e8 <.LBB6_7>

80005918 <.LBB6_9>:
80005918: 83 22 42 ff  	lw	t0, -12(tp)
8000591c: 23 2c 52 fe  	sw	t0, -8(tp)
80005920: 6f 00 40 00  	j	0x80005924 <.LBB6_10>

80005924 <.LBB6_10>:
80005924: 83 22 82 ff  	lw	t0, -8(tp)
80005928: 63 82 02 04  	beqz	t0, 0x8000596c <.LBB6_13>
8000592c: 6f 00 40 00  	j	0x80005930 <.LBB6_11>

80005930 <.LBB6_11>:
80005930: 83 22 82 ff  	lw	t0, -8(tp)
80005934: 13 03 42 fb  	addi	t1, tp, -76
80005938: b3 82 62 00  	add	t0, t0, t1
8000593c: 13 03 10 00  	li	t1, 1
80005940: b3 82 62 40  	sub	t0, t0, t1
80005944: 83 82 02 00  	lb	t0, 0(t0)
80005948: 03 23 82 fa  	lw	t1, -88(tp)
8000594c: 93 03 13 00  	addi	t2, t1, 1
80005950: 23 24 72 fa  	sw	t2, -88(tp)
80005954: 23 00 53 00  	sb	t0, 0(t1)
80005958: 6f 00 40 00  	j	0x8000595c <.LBB6_12>

8000595c <.LBB6_12>:
8000595c: 83 22 82 ff  	lw	t0, -8(tp)
80005960: 93 82 f2 ff  	addi	t0, t0, -1
80005964: 23 2c 52 fe  	sw	t0, -8(tp)
80005968: 6f f0 df fb  	j	0x80005924 <.LBB6_10>

8000596c <.LBB6_13>:
8000596c: 03 23 82 fa  	lw	t1, -88(tp)
80005970: 93 02 00 00  	li	t0, 0
80005974: 23 00 53 00  	sb	t0, 0(t1)
80005978: 83 20 c1 ff  	lw	ra, -4(sp)
8000597c: 0b c0 00 04  	barrier	x0, x0, 1
80005980: 13 01 c1 ff  	addi	sp, sp, -4
80005984: 13 02 82 fa  	addi	tp, tp, -88
80005988: 67 80 00 00  	ret

8000598c <printf_nibbles>:
8000598c: 13 01 01 02  	addi	sp, sp, 32
80005990: 13 02 42 08  	addi	tp, tp, 132
80005994: 0b 20 10 00  	regext	zero, zero, 1
80005998: 57 40 02 5e  	<unknown>
8000599c: 23 20 11 fe  	sw	ra, -32(sp)
800059a0: 0b 20 80 00  	regext	zero, zero, 8
800059a4: 7b 60 00 f6  	vsw12.v	v0, -160(v0)
800059a8: 0b 20 80 00  	regext	zero, zero, 8
800059ac: 7b 62 10 f6  	vsw12.v	v1, -156(v0)
800059b0: 0b 20 80 00  	regext	zero, zero, 8
800059b4: 7b 64 20 f6  	vsw12.v	v2, -152(v0)
800059b8: 0b 20 80 00  	regext	zero, zero, 8
800059bc: 7b 66 30 f6  	vsw12.v	v3, -148(v0)
800059c0: 0b 20 80 00  	regext	zero, zero, 8
800059c4: 7b 68 40 f6  	vsw12.v	v4, -144(v0)
800059c8: 0b 20 80 00  	regext	zero, zero, 8
800059cc: 7b 6a 50 f6  	vsw12.v	v5, -140(v0)
800059d0: 83 22 02 f6  	lw	t0, -160(tp)
800059d4: 83 a2 02 00  	lw	t0, 0(t0)
800059d8: 23 2c 52 f6  	sw	t0, -136(tp)
800059dc: 93 02 00 00  	li	t0, 0
800059e0: 23 28 51 06  	sw	t0, 112(sp)
800059e4: 23 2e 52 fa  	sw	t0, -68(tp)
800059e8: 23 20 52 fc  	sw	t0, -64(tp)
800059ec: 23 22 52 fc  	sw	t0, -60(tp)
800059f0: 93 02 00 01  	li	t0, 16
800059f4: 23 28 52 fc  	sw	t0, -48(tp)
800059f8: 83 22 02 f6  	lw	t0, -160(tp)
800059fc: 83 82 c2 01  	lb	t0, 28(t0)
80005a00: 93 92 c2 01  	slli	t0, t0, 28
80005a04: 93 d2 82 41  	srai	t0, t0, 24
80005a08: 93 d2 72 00  	srli	t0, t0, 7
80005a0c: 93 f2 f2 0f  	andi	t0, t0, 255
80005a10: 13 03 10 06  	li	t1, 97
80005a14: 23 26 61 06  	sw	t1, 108(sp)
80005a18: 13 03 10 04  	li	t1, 65
80005a1c: 23 24 61 06  	sw	t1, 104(sp)
80005a20: 63 96 02 00  	bnez	t0, 0x80005a2c <.LBB7_2>
80005a24: 83 22 c1 06  	lw	t0, 108(sp)
80005a28: 23 24 51 06  	sw	t0, 104(sp)

80005a2c <.LBB7_2>:
80005a2c: 83 22 01 07  	lw	t0, 112(sp)
80005a30: 03 23 81 06  	lw	t1, 104(sp)
80005a34: 23 0a 62 fc  	sb	t1, -44(tp)
80005a38: 23 2c 52 fc  	sw	t0, -40(tp)
80005a3c: 23 2e 52 fc  	sw	t0, -36(tp)
80005a40: 23 2e 52 fa  	sw	t0, -68(tp)
80005a44: 6f 00 40 00  	j	0x80005a48 <.LBB7_3>

80005a48 <.LBB7_3>:
80005a48: 03 23 c2 fb  	lw	t1, -68(tp)
80005a4c: 93 02 60 00  	li	t0, 6
80005a50: 63 ec 62 0a  	bltu	t0, t1, 0x80005b08 <.LBB7_13>
80005a54: 6f 00 40 00  	j	0x80005a58 <.LBB7_4>

80005a58 <.LBB7_4>:
80005a58: 83 22 42 f6  	lw	t0, -156(tp)
80005a5c: 93 f2 f2 00  	andi	t0, t0, 15
80005a60: 23 24 52 fc  	sw	t0, -56(tp)
80005a64: 83 22 42 f6  	lw	t0, -156(tp)
80005a68: 93 d2 42 00  	srli	t0, t0, 4
80005a6c: 23 22 52 f6  	sw	t0, -156(tp)
80005a70: 03 23 82 fc  	lw	t1, -56(tp)
80005a74: 93 02 90 00  	li	t0, 9
80005a78: 63 ec 62 00  	bltu	t0, t1, 0x80005a90 <.LBB7_6>
80005a7c: 6f 00 40 00  	j	0x80005a80 <.LBB7_5>

80005a80 <.LBB7_5>:
80005a80: 83 22 82 fc  	lw	t0, -56(tp)
80005a84: 93 82 02 03  	addi	t0, t0, 48
80005a88: 23 2a 51 06  	sw	t0, 116(sp)
80005a8c: 6f 00 00 02  	j	0x80005aac <.LBB7_7>

80005a90 <.LBB7_6>:
80005a90: 83 02 42 fd  	lb	t0, -44(tp)
80005a94: 03 23 82 fc  	lw	t1, -56(tp)
80005a98: b3 82 62 00  	add	t0, t0, t1
80005a9c: 13 03 a0 00  	li	t1, 10
80005aa0: b3 82 62 40  	sub	t0, t0, t1
80005aa4: 23 2a 51 06  	sw	t0, 116(sp)
80005aa8: 6f 00 40 00  	j	0x80005aac <.LBB7_7>

80005aac <.LBB7_7>:
80005aac: 83 22 41 07  	lw	t0, 116(sp)
80005ab0: 83 23 c2 fb  	lw	t2, -68(tp)
80005ab4: 13 03 c2 f7  	addi	t1, tp, -132
80005ab8: 33 03 73 00  	add	t1, t1, t2
80005abc: 23 00 53 00  	sb	t0, 0(t1)
80005ac0: 83 22 82 fc  	lw	t0, -56(tp)
80005ac4: 63 8a 02 00  	beqz	t0, 0x80005ad8 <.LBB7_9>
80005ac8: 6f 00 40 00  	j	0x80005acc <.LBB7_8>

80005acc <.LBB7_8>:
80005acc: 93 02 10 00  	li	t0, 1
80005ad0: 23 2e 52 fc  	sw	t0, -36(tp)
80005ad4: 6f 00 40 00  	j	0x80005ad8 <.LBB7_9>

80005ad8 <.LBB7_9>:
80005ad8: 83 22 c2 fd  	lw	t0, -36(tp)
80005adc: 63 9c 02 00  	bnez	t0, 0x80005af4 <.LBB7_11>
80005ae0: 6f 00 40 00  	j	0x80005ae4 <.LBB7_10>

80005ae4 <.LBB7_10>:
80005ae4: 83 22 82 fd  	lw	t0, -40(tp)
80005ae8: 93 82 12 00  	addi	t0, t0, 1
80005aec: 23 2c 52 fc  	sw	t0, -40(tp)
80005af0: 6f 00 40 00  	j	0x80005af4 <.LBB7_11>

80005af4 <.LBB7_11>:
80005af4: 6f 00 40 00  	j	0x80005af8 <.LBB7_12>

80005af8 <.LBB7_12>:
80005af8: 83 22 c2 fb  	lw	t0, -68(tp)
80005afc: 93 82 12 00  	addi	t0, t0, 1
80005b00: 23 2e 52 fa  	sw	t0, -68(tp)
80005b04: 6f f0 5f f4  	j	0x80005a48 <.LBB7_3>

80005b08 <.LBB7_13>:
80005b08: 83 22 c2 fb  	lw	t0, -68(tp)
80005b0c: 23 20 52 fc  	sw	t0, -64(tp)
80005b10: 83 22 02 fc  	lw	t0, -64(tp)
80005b14: 13 83 f2 ff  	addi	t1, t0, -1
80005b18: 23 20 62 fc  	sw	t1, -64(tp)
80005b1c: 93 02 c2 f7  	addi	t0, tp, -132
80005b20: b3 82 62 00  	add	t0, t0, t1
80005b24: 83 82 02 00  	lb	t0, 0(t0)
80005b28: 03 23 82 f7  	lw	t1, -136(tp)
80005b2c: 93 03 13 00  	addi	t2, t1, 1
80005b30: 23 2c 72 f6  	sw	t2, -136(tp)
80005b34: 23 00 53 00  	sb	t0, 0(t1)
80005b38: 83 22 c2 f6  	lw	t0, -148(tp)
80005b3c: 63 96 02 00  	bnez	t0, 0x80005b48 <.LBB7_15>
80005b40: 6f 00 40 00  	j	0x80005b44 <.LBB7_14>

80005b44 <.LBB7_14>:
80005b44: 6f 00 00 0e  	j	0x80005c24 <.LBB7_27>

80005b48 <.LBB7_15>:
80005b48: 83 22 02 f7  	lw	t0, -144(tp)
80005b4c: 63 8a 02 00  	beqz	t0, 0x80005b60 <.LBB7_17>
80005b50: 6f 00 40 00  	j	0x80005b54 <.LBB7_16>

80005b54 <.LBB7_16>:
80005b54: 83 22 82 fd  	lw	t0, -40(tp)
80005b58: 23 26 52 fc  	sw	t0, -52(tp)
80005b5c: 6f 00 00 01  	j	0x80005b6c <.LBB7_18>

80005b60 <.LBB7_17>:
80005b60: 93 02 00 00  	li	t0, 0
80005b64: 23 26 52 fc  	sw	t0, -52(tp)
80005b68: 6f 00 40 00  	j	0x80005b6c <.LBB7_18>

80005b6c <.LBB7_18>:
80005b6c: 83 22 42 f7  	lw	t0, -140(tp)
80005b70: 63 9c 02 00  	bnez	t0, 0x80005b88 <.LBB7_20>
80005b74: 6f 00 40 00  	j	0x80005b78 <.LBB7_19>

80005b78 <.LBB7_19>:
80005b78: 03 23 02 fc  	lw	t1, -64(tp)
80005b7c: 83 22 c2 fc  	lw	t0, -52(tp)
80005b80: 63 f0 62 02  	bgeu	t0, t1, 0x80005ba0 <.LBB7_21>
80005b84: 6f 00 40 00  	j	0x80005b88 <.LBB7_20>

80005b88 <.LBB7_20>:
80005b88: 03 23 82 f7  	lw	t1, -136(tp)
80005b8c: 93 02 13 00  	addi	t0, t1, 1
80005b90: 23 2c 52 f6  	sw	t0, -136(tp)
80005b94: 93 02 e0 02  	li	t0, 46
80005b98: 23 00 53 00  	sb	t0, 0(t1)
80005b9c: 6f 00 40 00  	j	0x80005ba0 <.LBB7_21>

80005ba0 <.LBB7_21>:
80005ba0: 6f 00 40 00  	j	0x80005ba4 <.LBB7_22>

80005ba4 <.LBB7_22>:
80005ba4: 03 23 02 fc  	lw	t1, -64(tp)
80005ba8: 83 22 c2 fc  	lw	t0, -52(tp)
80005bac: 93 03 00 00  	li	t2, 0
80005bb0: 23 2c 71 06  	sw	t2, 120(sp)
80005bb4: 63 fe 62 00  	bgeu	t0, t1, 0x80005bd0 <.LBB7_24>
80005bb8: 6f 00 40 00  	j	0x80005bbc <.LBB7_23>

80005bbc <.LBB7_23>:
80005bbc: 83 22 42 fc  	lw	t0, -60(tp)
80005bc0: 03 23 c2 f6  	lw	t1, -148(tp)
80005bc4: b3 b2 62 00  	sltu	t0, t0, t1
80005bc8: 23 2c 51 06  	sw	t0, 120(sp)
80005bcc: 6f 00 40 00  	j	0x80005bd0 <.LBB7_24>

80005bd0 <.LBB7_24>:
80005bd0: 83 22 81 07  	lw	t0, 120(sp)
80005bd4: 93 f2 12 00  	andi	t0, t0, 1
80005bd8: 63 84 02 04  	beqz	t0, 0x80005c20 <.LBB7_26>
80005bdc: 6f 00 40 00  	j	0x80005be0 <.LBB7_25>

80005be0 <.LBB7_25>:
80005be0: 83 22 02 fc  	lw	t0, -64(tp)
80005be4: 13 83 f2 ff  	addi	t1, t0, -1
80005be8: 23 20 62 fc  	sw	t1, -64(tp)
80005bec: 93 02 c2 f7  	addi	t0, tp, -132
80005bf0: b3 82 62 00  	add	t0, t0, t1
80005bf4: 83 82 02 00  	lb	t0, 0(t0)
80005bf8: 23 00 52 fe  	sb	t0, -32(tp)
80005bfc: 83 02 02 fe  	lb	t0, -32(tp)
80005c00: 03 23 82 f7  	lw	t1, -136(tp)
80005c04: 93 03 13 00  	addi	t2, t1, 1
80005c08: 23 2c 72 f6  	sw	t2, -136(tp)
80005c0c: 23 00 53 00  	sb	t0, 0(t1)
80005c10: 83 22 42 fc  	lw	t0, -60(tp)
80005c14: 93 82 12 00  	addi	t0, t0, 1
80005c18: 23 22 52 fc  	sw	t0, -60(tp)
80005c1c: 6f f0 9f f8  	j	0x80005ba4 <.LBB7_22>

80005c20 <.LBB7_26>:
80005c20: 6f 00 40 00  	j	0x80005c24 <.LBB7_27>

80005c24 <.LBB7_27>:
80005c24: 83 22 02 f6  	lw	t0, -160(tp)
80005c28: 83 82 c2 01  	lb	t0, 28(t0)
80005c2c: 93 92 c2 01  	slli	t0, t0, 28
80005c30: 93 d2 82 41  	srai	t0, t0, 24
80005c34: 93 d2 72 00  	srli	t0, t0, 7
80005c38: 93 f2 f2 0f  	andi	t0, t0, 255
80005c3c: 13 03 00 07  	li	t1, 112
80005c40: 23 20 61 08  	sw	t1, 128(sp)
80005c44: 13 03 00 05  	li	t1, 80
80005c48: 23 2e 61 06  	sw	t1, 124(sp)
80005c4c: 63 96 02 00  	bnez	t0, 0x80005c58 <.LBB7_29>
80005c50: 83 22 01 08  	lw	t0, 128(sp)
80005c54: 23 2e 51 06  	sw	t0, 124(sp)

80005c58 <.LBB7_29>:
80005c58: 83 22 c1 07  	lw	t0, 124(sp)
80005c5c: 03 23 82 f7  	lw	t1, -136(tp)
80005c60: 93 03 13 00  	addi	t2, t1, 1
80005c64: 23 2c 72 f6  	sw	t2, -136(tp)
80005c68: 23 00 53 00  	sb	t0, 0(t1)
80005c6c: 83 23 82 f7  	lw	t2, -136(tp)
80005c70: 03 23 82 f6  	lw	t1, -152(tp)
80005c74: 93 02 00 00  	li	t0, 0
80005c78: 57 c0 03 5e  	<unknown>
80005c7c: d7 40 03 5e  	<unknown>
80005c80: 57 c1 02 5e  	<unknown>
80005c84: ef f0 df b5  	jal	0x800057e0 <printf_exp>
80005c88: 83 20 01 fe  	lw	ra, -32(sp)
80005c8c: 0b c0 00 04  	barrier	x0, x0, 1
80005c90: 13 01 01 fe  	addi	sp, sp, -32
80005c94: 13 02 c2 f7  	addi	tp, tp, -132
80005c98: 67 80 00 00  	ret

80005c9c <printf_float_a>:
80005c9c: 13 01 41 00  	addi	sp, sp, 4
80005ca0: 13 02 82 03  	addi	tp, tp, 56
80005ca4: 0b 20 10 00  	regext	zero, zero, 1
80005ca8: 57 40 02 5e  	<unknown>
80005cac: 23 2e 11 fe  	sw	ra, -4(sp)
80005cb0: 0b 20 80 00  	regext	zero, zero, 8
80005cb4: 7b 64 00 fc  	vsw12.v	v0, -56(v0)
80005cb8: 0b 20 80 00  	regext	zero, zero, 8
80005cbc: 7b 66 10 fc  	vsw12.v	v1, -52(v0)
80005cc0: 0b 20 80 00  	regext	zero, zero, 8
80005cc4: 7b 68 20 fc  	vsw12.v	v2, -48(v0)
80005cc8: 83 22 02 fd  	lw	t0, -48(tp)
80005ccc: 23 2a 52 fc  	sw	t0, -44(tp)
80005cd0: 83 22 42 fd  	lw	t0, -44(tp)
80005cd4: 37 03 80 7f  	lui	t1, 522240
80005cd8: b3 f2 62 00  	and	t0, t0, t1
80005cdc: 93 d2 72 01  	srli	t0, t0, 23
80005ce0: 13 03 f0 07  	li	t1, 127
80005ce4: b3 82 62 40  	sub	t0, t0, t1
80005ce8: 23 2c 52 fc  	sw	t0, -40(tp)
80005cec: 83 22 42 fd  	lw	t0, -44(tp)
80005cf0: 93 92 92 00  	slli	t0, t0, 9
80005cf4: 93 d2 92 00  	srli	t0, t0, 9
80005cf8: 23 2e 52 fc  	sw	t0, -36(tp)
80005cfc: 83 22 82 fd  	lw	t0, -40(tp)
80005d00: 13 03 10 f8  	li	t1, -127
80005d04: 63 96 62 04  	bne	t0, t1, 0x80005d50 <.LBB8_6>
80005d08: 6f 00 40 00  	j	0x80005d0c <.LBB8_1>

80005d0c <.LBB8_1>:
80005d0c: 83 22 c2 fd  	lw	t0, -36(tp)
80005d10: 63 80 02 04  	beqz	t0, 0x80005d50 <.LBB8_6>
80005d14: 6f 00 40 00  	j	0x80005d18 <.LBB8_2>

80005d18 <.LBB8_2>:
80005d18: 6f 00 40 00  	j	0x80005d1c <.LBB8_3>

80005d1c <.LBB8_3>:
80005d1c: 83 42 e2 fd  	lbu	t0, -34(tp)
80005d20: 93 f2 82 07  	andi	t0, t0, 120
80005d24: 63 94 02 02  	bnez	t0, 0x80005d4c <.LBB8_5>
80005d28: 6f 00 40 00  	j	0x80005d2c <.LBB8_4>

80005d2c <.LBB8_4>:
80005d2c: 83 22 82 fd  	lw	t0, -40(tp)
80005d30: 13 03 40 00  	li	t1, 4
80005d34: b3 82 62 40  	sub	t0, t0, t1
80005d38: 23 2c 52 fc  	sw	t0, -40(tp)
80005d3c: 83 22 c2 fd  	lw	t0, -36(tp)
80005d40: 93 92 42 00  	slli	t0, t0, 4
80005d44: 23 2e 52 fc  	sw	t0, -36(tp)
80005d48: 6f f0 5f fd  	j	0x80005d1c <.LBB8_3>

80005d4c <.LBB8_5>:
80005d4c: 6f 00 40 00  	j	0x80005d50 <.LBB8_6>

80005d50 <.LBB8_6>:
80005d50: 93 02 00 00  	li	t0, 0
80005d54: 23 20 52 fe  	sw	t0, -32(tp)
80005d58: 23 22 52 fe  	sw	t0, -28(tp)
80005d5c: 83 22 82 fc  	lw	t0, -56(tp)
80005d60: 83 a2 02 01  	lw	t0, 16(t0)
80005d64: 63 de 02 00  	bgez	t0, 0x80005d80 <.LBB8_8>
80005d68: 6f 00 40 00  	j	0x80005d6c <.LBB8_7>

80005d6c <.LBB8_7>:
80005d6c: 93 02 f0 ff  	li	t0, -1
80005d70: 23 20 52 fe  	sw	t0, -32(tp)
80005d74: 93 02 10 00  	li	t0, 1
80005d78: 23 22 52 fe  	sw	t0, -28(tp)
80005d7c: 6f 00 40 01  	j	0x80005d90 <.LBB8_9>

80005d80 <.LBB8_8>:
80005d80: 83 22 82 fc  	lw	t0, -56(tp)
80005d84: 83 a2 02 01  	lw	t0, 16(t0)
80005d88: 23 20 52 fe  	sw	t0, -32(tp)
80005d8c: 6f 00 40 00  	j	0x80005d90 <.LBB8_9>

80005d90 <.LBB8_9>:
80005d90: 83 22 42 fd  	lw	t0, -44(tp)
80005d94: 63 9a 02 00  	bnez	t0, 0x80005da8 <.LBB8_11>
80005d98: 6f 00 40 00  	j	0x80005d9c <.LBB8_10>

80005d9c <.LBB8_10>:
80005d9c: 93 02 00 00  	li	t0, 0
80005da0: 23 2c 52 fc  	sw	t0, -40(tp)
80005da4: 6f 00 40 0e  	j	0x80005e88 <.LBB8_20>

80005da8 <.LBB8_11>:
80005da8: 83 22 c2 fd  	lw	t0, -36(tp)
80005dac: 37 03 80 00  	lui	t1, 2048
80005db0: b3 e2 62 00  	or	t0, t0, t1
80005db4: 23 2e 52 fc  	sw	t0, -36(tp)
80005db8: 03 23 02 fe  	lw	t1, -32(tp)
80005dbc: 93 02 50 00  	li	t0, 5
80005dc0: 63 e2 62 0c  	bltu	t0, t1, 0x80005e84 <.LBB8_19>
80005dc4: 6f 00 40 00  	j	0x80005dc8 <.LBB8_12>

80005dc8 <.LBB8_12>:
80005dc8: 83 22 02 fe  	lw	t0, -32(tp)
80005dcc: 13 93 22 00  	slli	t1, t0, 2
80005dd0: 93 02 70 01  	li	t0, 23
80005dd4: b3 82 62 40  	sub	t0, t0, t1
80005dd8: 23 24 52 fe  	sw	t0, -24(tp)
80005ddc: 03 23 82 fe  	lw	t1, -24(tp)
80005de0: 93 02 10 00  	li	t0, 1
80005de4: 33 93 62 00  	sll	t1, t0, t1
80005de8: 33 03 53 40  	sub	t1, t1, t0
80005dec: 23 26 62 fe  	sw	t1, -20(tp)
80005df0: 03 23 82 fe  	lw	t1, -24(tp)
80005df4: 33 03 53 40  	sub	t1, t1, t0
80005df8: b3 92 62 00  	sll	t0, t0, t1
80005dfc: 23 28 52 fe  	sw	t0, -16(tp)
80005e00: 83 22 c2 fd  	lw	t0, -36(tp)
80005e04: 03 23 c2 fe  	lw	t1, -20(tp)
80005e08: b3 f2 62 00  	and	t0, t0, t1
80005e0c: 23 2a 52 fe  	sw	t0, -12(tp)
80005e10: 83 22 c2 fd  	lw	t0, -36(tp)
80005e14: 03 23 82 fe  	lw	t1, -24(tp)
80005e18: b3 d2 62 00  	srl	t0, t0, t1
80005e1c: 23 2c 52 fe  	sw	t0, -8(tp)
80005e20: 83 22 42 ff  	lw	t0, -12(tp)
80005e24: 03 23 02 ff  	lw	t1, -16(tp)
80005e28: 63 96 62 02  	bne	t0, t1, 0x80005e54 <.LBB8_15>
80005e2c: 6f 00 40 00  	j	0x80005e30 <.LBB8_13>

80005e30 <.LBB8_13>:
80005e30: 83 42 82 ff  	lbu	t0, -8(tp)
80005e34: 93 f2 12 00  	andi	t0, t0, 1
80005e38: 63 9e 02 00  	bnez	t0, 0x80005e54 <.LBB8_15>
80005e3c: 6f 00 40 00  	j	0x80005e40 <.LBB8_14>

80005e40 <.LBB8_14>:
80005e40: 83 22 82 ff  	lw	t0, -8(tp)
80005e44: 03 23 82 fe  	lw	t1, -24(tp)
80005e48: b3 92 62 00  	sll	t0, t0, t1
80005e4c: 23 2e 52 fc  	sw	t0, -36(tp)
80005e50: 6f 00 00 03  	j	0x80005e80 <.LBB8_18>

80005e54 <.LBB8_15>:
80005e54: 83 22 42 ff  	lw	t0, -12(tp)
80005e58: 03 23 02 ff  	lw	t1, -16(tp)
80005e5c: 63 e0 62 02  	bltu	t0, t1, 0x80005e7c <.LBB8_17>
80005e60: 6f 00 40 00  	j	0x80005e64 <.LBB8_16>

80005e64 <.LBB8_16>:
80005e64: 83 22 82 ff  	lw	t0, -8(tp)
80005e68: 93 82 12 00  	addi	t0, t0, 1
80005e6c: 03 23 82 fe  	lw	t1, -24(tp)
80005e70: b3 92 62 00  	sll	t0, t0, t1
80005e74: 23 2e 52 fc  	sw	t0, -36(tp)
80005e78: 6f 00 40 00  	j	0x80005e7c <.LBB8_17>

80005e7c <.LBB8_17>:
80005e7c: 6f 00 40 00  	j	0x80005e80 <.LBB8_18>

80005e80 <.LBB8_18>:
80005e80: 6f 00 40 00  	j	0x80005e84 <.LBB8_19>

80005e84 <.LBB8_19>:
80005e84: 6f 00 40 00  	j	0x80005e88 <.LBB8_20>

80005e88 <.LBB8_20>:
80005e88: 03 25 82 fc  	lw	a0, -56(tp)
80005e8c: 83 24 c2 fd  	lw	s1, -36(tp)
80005e90: 03 24 82 fd  	lw	s0, -40(tp)
80005e94: 83 23 02 fe  	lw	t2, -32(tp)
80005e98: 03 23 42 fe  	lw	t1, -28(tp)
80005e9c: 83 22 c2 fc  	lw	t0, -52(tp)
80005ea0: 57 40 05 5e  	<unknown>
80005ea4: d7 c0 04 5e  	<unknown>
80005ea8: 57 41 04 5e  	<unknown>
80005eac: d7 c1 03 5e  	<unknown>
80005eb0: 57 42 03 5e  	<unknown>
80005eb4: d7 c2 02 5e  	<unknown>
80005eb8: ef f0 5f ad  	jal	0x8000598c <printf_nibbles>
80005ebc: 03 23 82 fc  	lw	t1, -56(tp)
80005ec0: 83 02 c3 01  	lb	t0, 28(t1)
80005ec4: 93 e2 22 00  	ori	t0, t0, 2
80005ec8: 23 0e 53 00  	sb	t0, 28(t1)
80005ecc: 03 23 82 fc  	lw	t1, -56(tp)
80005ed0: 93 02 00 01  	li	t0, 16
80005ed4: 23 2c 53 00  	sw	t0, 24(t1)
80005ed8: 03 23 82 fc  	lw	t1, -56(tp)
80005edc: 83 02 c3 01  	lb	t0, 28(t1)
80005ee0: 93 e2 02 08  	ori	t0, t0, 128
80005ee4: 23 0e 53 00  	sb	t0, 28(t1)
80005ee8: 83 20 c1 ff  	lw	ra, -4(sp)
80005eec: 0b c0 00 04  	barrier	x0, x0, 1
80005ef0: 13 01 c1 ff  	addi	sp, sp, -4
80005ef4: 13 02 82 fc  	addi	tp, tp, -56
80005ef8: 67 80 00 00  	ret

80005efc <printf_float_round>:
80005efc: 13 01 81 00  	addi	sp, sp, 8
80005f00: 13 02 82 03  	addi	tp, tp, 56
80005f04: 0b 20 10 00  	regext	zero, zero, 1
80005f08: 57 40 02 5e  	<unknown>
80005f0c: 23 2c 11 fe  	sw	ra, -8(sp)
80005f10: 0b 20 80 00  	regext	zero, zero, 8
80005f14: 7b 62 00 fc  	vsw12.v	v0, -60(v0)
80005f18: 0b 20 80 00  	regext	zero, zero, 8
80005f1c: 7b 64 10 fc  	vsw12.v	v1, -56(v0)
80005f20: 0b 20 80 00  	regext	zero, zero, 8
80005f24: 7b 66 20 fc  	vsw12.v	v2, -52(v0)
80005f28: 0b 20 80 00  	regext	zero, zero, 8
80005f2c: 7b 68 30 fc  	vsw12.v	v3, -48(v0)
80005f30: 0b 20 80 00  	regext	zero, zero, 8
80005f34: 7b 6a 40 fc  	vsw12.v	v4, -44(v0)
80005f38: 83 22 02 fd  	lw	t0, -48(tp)
80005f3c: 63 cc 02 00  	bltz	t0, 0x80005f54 <.LBB9_2>
80005f40: 6f 00 40 00  	j	0x80005f44 <.LBB9_1>

80005f44 <.LBB9_1>:
80005f44: 83 22 02 fd  	lw	t0, -48(tp)
80005f48: 13 03 30 01  	li	t1, 19
80005f4c: 63 c6 62 00  	blt	t0, t1, 0x80005f58 <.LBB9_3>
80005f50: 6f 00 40 00  	j	0x80005f54 <.LBB9_2>

80005f54 <.LBB9_2>:
80005f54: 6f 00 40 2a  	j	0x800061f8 <.LBB9_34>

80005f58 <.LBB9_3>:
80005f58: 83 22 02 fd  	lw	t0, -48(tp)
80005f5c: 23 2c 52 fc  	sw	t0, -40(tp)
80005f60: 83 22 42 fd  	lw	t0, -44(tp)
80005f64: 63 8c 02 00  	beqz	t0, 0x80005f7c <.LBB9_5>
80005f68: 6f 00 40 00  	j	0x80005f6c <.LBB9_4>

80005f6c <.LBB9_4>:
80005f6c: 83 22 82 fd  	lw	t0, -40(tp)
80005f70: 93 82 22 00  	addi	t0, t0, 2
80005f74: 23 2c 52 fc  	sw	t0, -40(tp)
80005f78: 6f 00 80 01  	j	0x80005f90 <.LBB9_6>

80005f7c <.LBB9_5>:
80005f7c: 03 23 c2 fc  	lw	t1, -52(tp)
80005f80: 83 22 82 fd  	lw	t0, -40(tp)
80005f84: b3 82 62 00  	add	t0, t0, t1
80005f88: 23 2c 52 fc  	sw	t0, -40(tp)
80005f8c: 6f 00 40 00  	j	0x80005f90 <.LBB9_6>

80005f90 <.LBB9_6>:
80005f90: 83 22 82 fd  	lw	t0, -40(tp)
80005f94: 63 dc 02 00  	bgez	t0, 0x80005fac <.LBB9_8>
80005f98: 6f 00 40 00  	j	0x80005f9c <.LBB9_7>

80005f9c <.LBB9_7>:
80005f9c: 03 23 82 fc  	lw	t1, -56(tp)
80005fa0: 93 02 00 00  	li	t0, 0
80005fa4: 23 00 53 00  	sb	t0, 0(t1)
80005fa8: 6f 00 00 25  	j	0x800061f8 <.LBB9_34>

80005fac <.LBB9_8>:
80005fac: 83 22 82 fc  	lw	t0, -56(tp)
80005fb0: 23 2e 52 fc  	sw	t0, -36(tp)
80005fb4: 6f 00 40 00  	j	0x80005fb8 <.LBB9_9>

80005fb8 <.LBB9_9>:
80005fb8: 83 22 c2 fd  	lw	t0, -36(tp)
80005fbc: 83 c2 02 00  	lbu	t0, 0(t0)
80005fc0: 63 8c 02 00  	beqz	t0, 0x80005fd8 <.LBB9_11>
80005fc4: 6f 00 40 00  	j	0x80005fc8 <.LBB9_10>

80005fc8 <.LBB9_10>:
80005fc8: 83 22 c2 fd  	lw	t0, -36(tp)
80005fcc: 93 82 12 00  	addi	t0, t0, 1
80005fd0: 23 2e 52 fc  	sw	t0, -36(tp)
80005fd4: 6f f0 5f fe  	j	0x80005fb8 <.LBB9_9>

80005fd8 <.LBB9_11>:
80005fd8: 83 22 c2 fd  	lw	t0, -36(tp)
80005fdc: 03 23 82 fc  	lw	t1, -56(tp)
80005fe0: b3 82 62 40  	sub	t0, t0, t1
80005fe4: 23 20 52 fe  	sw	t0, -32(tp)
80005fe8: 83 22 82 fd  	lw	t0, -40(tp)
80005fec: 03 23 02 fe  	lw	t1, -32(tp)
80005ff0: 63 c6 62 00  	blt	t0, t1, 0x80005ffc <.LBB9_13>
80005ff4: 6f 00 40 00  	j	0x80005ff8 <.LBB9_12>

80005ff8 <.LBB9_12>:
80005ff8: 6f 00 00 20  	j	0x800061f8 <.LBB9_34>

80005ffc <.LBB9_13>:
80005ffc: 83 22 82 fd  	lw	t0, -40(tp)
80006000: 23 22 52 fe  	sw	t0, -28(tp)
80006004: 83 22 82 fc  	lw	t0, -56(tp)
80006008: 03 23 42 fe  	lw	t1, -28(tp)
8000600c: b3 82 62 00  	add	t0, t0, t1
80006010: 83 82 02 00  	lb	t0, 0(t0)
80006014: 13 03 50 03  	li	t1, 53
80006018: b3 82 62 40  	sub	t0, t0, t1
8000601c: 23 24 52 fe  	sw	t0, -24(tp)
80006020: 83 22 42 fe  	lw	t0, -28(tp)
80006024: 93 82 12 00  	addi	t0, t0, 1
80006028: 23 22 52 fe  	sw	t0, -28(tp)
8000602c: 83 22 82 fe  	lw	t0, -24(tp)
80006030: 93 b2 12 00  	seqz	t0, t0
80006034: 23 26 52 fe  	sw	t0, -20(tp)
80006038: 83 22 c2 fe  	lw	t0, -20(tp)
8000603c: 63 80 02 0a  	beqz	t0, 0x800060dc <.LBB9_21>
80006040: 6f 00 40 00  	j	0x80006044 <.LBB9_14>

80006044 <.LBB9_14>:
80006044: 83 22 42 fe  	lw	t0, -28(tp)
80006048: 03 23 02 fe  	lw	t1, -32(tp)
8000604c: 63 d8 62 08  	bge	t0, t1, 0x800060dc <.LBB9_21>
80006050: 6f 00 40 00  	j	0x80006054 <.LBB9_15>

80006054 <.LBB9_15>:
80006054: 6f 00 40 00  	j	0x80006058 <.LBB9_16>

80006058 <.LBB9_16>:
80006058: 83 22 42 fe  	lw	t0, -28(tp)
8000605c: 03 23 02 fe  	lw	t1, -32(tp)
80006060: 93 03 00 00  	li	t2, 0
80006064: 23 2a 71 02  	sw	t2, 52(sp)
80006068: 63 d4 62 02  	bge	t0, t1, 0x80006090 <.LBB9_18>
8000606c: 6f 00 40 00  	j	0x80006070 <.LBB9_17>

80006070 <.LBB9_17>:
80006070: 83 22 82 fc  	lw	t0, -56(tp)
80006074: 03 23 42 fe  	lw	t1, -28(tp)
80006078: b3 82 62 00  	add	t0, t0, t1
8000607c: 83 82 02 00  	lb	t0, 0(t0)
80006080: 93 82 02 fd  	addi	t0, t0, -48
80006084: 93 b2 12 00  	seqz	t0, t0
80006088: 23 2a 51 02  	sw	t0, 52(sp)
8000608c: 6f 00 40 00  	j	0x80006090 <.LBB9_18>

80006090 <.LBB9_18>:
80006090: 83 22 41 03  	lw	t0, 52(sp)
80006094: 93 f2 12 00  	andi	t0, t0, 1
80006098: 63 8c 02 00  	beqz	t0, 0x800060b0 <.LBB9_20>
8000609c: 6f 00 40 00  	j	0x800060a0 <.LBB9_19>

800060a0 <.LBB9_19>:
800060a0: 83 22 42 fe  	lw	t0, -28(tp)
800060a4: 93 82 12 00  	addi	t0, t0, 1
800060a8: 23 22 52 fe  	sw	t0, -28(tp)
800060ac: 6f f0 df fa  	j	0x80006058 <.LBB9_16>

800060b0 <.LBB9_20>:
800060b0: 83 22 42 fe  	lw	t0, -28(tp)
800060b4: 03 23 02 fe  	lw	t1, -32(tp)
800060b8: b3 c2 62 00  	xor	t0, t0, t1
800060bc: 93 b2 12 00  	seqz	t0, t0
800060c0: 23 26 52 fe  	sw	t0, -20(tp)
800060c4: 83 22 42 fe  	lw	t0, -28(tp)
800060c8: 03 23 02 fe  	lw	t1, -32(tp)
800060cc: b3 c2 62 00  	xor	t0, t0, t1
800060d0: b3 32 50 00  	snez	t0, t0
800060d4: 23 24 52 fe  	sw	t0, -24(tp)
800060d8: 6f 00 40 00  	j	0x800060dc <.LBB9_21>

800060dc <.LBB9_21>:
800060dc: 83 22 82 fd  	lw	t0, -40(tp)
800060e0: 13 03 10 00  	li	t1, 1
800060e4: b3 82 62 40  	sub	t0, t0, t1
800060e8: 23 22 52 fe  	sw	t0, -28(tp)
800060ec: 83 22 c2 fe  	lw	t0, -20(tp)
800060f0: 63 88 02 04  	beqz	t0, 0x80006140 <.LBB9_25>
800060f4: 6f 00 40 00  	j	0x800060f8 <.LBB9_22>

800060f8 <.LBB9_22>:
800060f8: 83 22 82 fc  	lw	t0, -56(tp)
800060fc: 03 23 42 fe  	lw	t1, -28(tp)
80006100: b3 82 62 00  	add	t0, t0, t1
80006104: 83 82 02 00  	lb	t0, 0(t0)
80006108: 23 08 52 fe  	sb	t0, -16(tp)
8000610c: 83 02 02 ff  	lb	t0, -16(tp)
80006110: 13 03 00 03  	li	t1, 48
80006114: b3 82 62 40  	sub	t0, t0, t1
80006118: 13 d3 f2 01  	srli	t1, t0, 31
8000611c: 33 83 62 00  	add	t1, t0, t1
80006120: 13 73 e3 ff  	andi	t1, t1, -2
80006124: b3 82 62 40  	sub	t0, t0, t1
80006128: 63 8a 02 00  	beqz	t0, 0x8000613c <.LBB9_24>
8000612c: 6f 00 40 00  	j	0x80006130 <.LBB9_23>

80006130 <.LBB9_23>:
80006130: 93 02 10 00  	li	t0, 1
80006134: 23 24 52 fe  	sw	t0, -24(tp)
80006138: 6f 00 40 00  	j	0x8000613c <.LBB9_24>

8000613c <.LBB9_24>:
8000613c: 6f 00 40 00  	j	0x80006140 <.LBB9_25>

80006140 <.LBB9_25>:
80006140: 03 23 82 fe  	lw	t1, -24(tp)
80006144: 93 02 00 00  	li	t0, 0
80006148: 63 dc 62 08  	bge	t0, t1, 0x800061e0 <.LBB9_33>
8000614c: 6f 00 40 00  	j	0x80006150 <.LBB9_26>

80006150 <.LBB9_26>:
80006150: 93 02 00 00  	li	t0, 0
80006154: 23 2a 52 fe  	sw	t0, -12(tp)
80006158: 6f 00 40 00  	j	0x8000615c <.LBB9_27>

8000615c <.LBB9_27>:
8000615c: 83 22 82 fc  	lw	t0, -56(tp)
80006160: 03 23 42 fe  	lw	t1, -28(tp)
80006164: b3 82 62 00  	add	t0, t0, t1
80006168: 83 82 02 00  	lb	t0, 0(t0)
8000616c: 23 0c 52 fe  	sb	t0, -8(tp)
80006170: 83 02 82 ff  	lb	t0, -8(tp)
80006174: 93 82 72 fc  	addi	t0, t0, -57
80006178: 93 b2 12 00  	seqz	t0, t0
8000617c: 23 2a 52 fe  	sw	t0, -12(tp)
80006180: 83 22 42 ff  	lw	t0, -12(tp)
80006184: 63 80 02 02  	beqz	t0, 0x800061a4 <.LBB9_29>
80006188: 6f 00 40 00  	j	0x8000618c <.LBB9_28>

8000618c <.LBB9_28>:
8000618c: 83 22 82 fc  	lw	t0, -56(tp)
80006190: 03 23 42 fe  	lw	t1, -28(tp)
80006194: 33 83 62 00  	add	t1, t0, t1
80006198: 93 02 00 03  	li	t0, 48
8000619c: 23 00 53 00  	sb	t0, 0(t1)
800061a0: 6f 00 00 02  	j	0x800061c0 <.LBB9_30>

800061a4 <.LBB9_29>:
800061a4: 83 22 82 fc  	lw	t0, -56(tp)
800061a8: 03 23 42 fe  	lw	t1, -28(tp)
800061ac: 33 83 62 00  	add	t1, t0, t1
800061b0: 83 02 03 00  	lb	t0, 0(t1)
800061b4: 93 82 12 00  	addi	t0, t0, 1
800061b8: 23 00 53 00  	sb	t0, 0(t1)
800061bc: 6f 00 40 00  	j	0x800061c0 <.LBB9_30>

800061c0 <.LBB9_30>:
800061c0: 83 22 42 fe  	lw	t0, -28(tp)
800061c4: 93 82 f2 ff  	addi	t0, t0, -1
800061c8: 23 22 52 fe  	sw	t0, -28(tp)
800061cc: 6f 00 40 00  	j	0x800061d0 <.LBB9_31>

800061d0 <.LBB9_31>:
800061d0: 83 22 42 ff  	lw	t0, -12(tp)
800061d4: e3 94 02 f8  	bnez	t0, 0x8000615c <.LBB9_27>
800061d8: 6f 00 40 00  	j	0x800061dc <.LBB9_32>

800061dc <.LBB9_32>:
800061dc: 6f 00 40 00  	j	0x800061e0 <.LBB9_33>

800061e0 <.LBB9_33>:
800061e0: 83 22 82 fc  	lw	t0, -56(tp)
800061e4: 03 23 82 fd  	lw	t1, -40(tp)
800061e8: 33 83 62 00  	add	t1, t0, t1
800061ec: 93 02 00 00  	li	t0, 0
800061f0: 23 00 53 00  	sb	t0, 0(t1)
800061f4: 6f 00 40 00  	j	0x800061f8 <.LBB9_34>

800061f8 <.LBB9_34>:
800061f8: 83 20 81 ff  	lw	ra, -8(sp)
800061fc: 0b c0 00 04  	barrier	x0, x0, 1
80006200: 13 01 81 ff  	addi	sp, sp, -8
80006204: 13 02 82 fc  	addi	tp, tp, -56
80006208: 67 80 00 00  	ret

8000620c <printf_float_round_buf>:
8000620c: 13 01 41 00  	addi	sp, sp, 4
80006210: 13 02 42 01  	addi	tp, tp, 20
80006214: 0b 20 10 00  	regext	zero, zero, 1
80006218: 57 40 02 5e  	<unknown>
8000621c: 23 2e 11 fe  	sw	ra, -4(sp)
80006220: 0b 20 80 00  	regext	zero, zero, 8
80006224: 7b 66 00 fe  	vsw12.v	v0, -20(v0)
80006228: 0b 20 80 00  	regext	zero, zero, 8
8000622c: 7b 68 10 fe  	vsw12.v	v1, -16(v0)
80006230: 0b 20 80 00  	regext	zero, zero, 8
80006234: 7b 6a 20 fe  	vsw12.v	v2, -12(v0)
80006238: 0b 20 80 00  	regext	zero, zero, 8
8000623c: 7b 6c 30 fe  	vsw12.v	v3, -8(v0)
80006240: 0b 20 80 00  	regext	zero, zero, 8
80006244: 7b 6e 40 fe  	vsw12.v	v4, -4(v0)
80006248: 83 24 c2 fe  	lw	s1, -20(tp)
8000624c: 03 24 02 ff  	lw	s0, -16(tp)
80006250: 83 22 42 ff  	lw	t0, -12(tp)
80006254: 83 a3 02 00  	lw	t2, 0(t0)
80006258: 03 23 82 ff  	lw	t1, -8(tp)
8000625c: 83 22 c2 ff  	lw	t0, -4(tp)
80006260: 57 c0 04 5e  	<unknown>
80006264: d7 40 04 5e  	<unknown>
80006268: 57 c1 03 5e  	<unknown>
8000626c: d7 41 03 5e  	<unknown>
80006270: 57 c2 02 5e  	<unknown>
80006274: ef f0 9f c8  	jal	0x80005efc <printf_float_round>
80006278: 83 22 02 ff  	lw	t0, -16(tp)
8000627c: 83 82 02 00  	lb	t0, 0(t0)
80006280: 13 03 00 03  	li	t1, 48
80006284: 63 9e 62 02  	bne	t0, t1, 0x800062c0 <.LBB10_3>
80006288: 6f 00 40 00  	j	0x8000628c <.LBB10_1>

8000628c <.LBB10_1>:
8000628c: 83 22 02 ff  	lw	t0, -16(tp)
80006290: 83 82 12 00  	lb	t0, 1(t0)
80006294: 63 86 02 02  	beqz	t0, 0x800062c0 <.LBB10_3>
80006298: 6f 00 40 00  	j	0x8000629c <.LBB10_2>

8000629c <.LBB10_2>:
8000629c: 83 22 02 ff  	lw	t0, -16(tp)
800062a0: 93 82 12 00  	addi	t0, t0, 1
800062a4: 23 28 52 fe  	sw	t0, -16(tp)
800062a8: 03 23 42 ff  	lw	t1, -12(tp)
800062ac: 83 22 03 00  	lw	t0, 0(t1)
800062b0: 93 03 10 00  	li	t2, 1
800062b4: b3 82 72 40  	sub	t0, t0, t2
800062b8: 23 20 53 00  	sw	t0, 0(t1)
800062bc: 6f 00 40 00  	j	0x800062c0 <.LBB10_3>

800062c0 <.LBB10_3>:
800062c0: 83 22 02 ff  	lw	t0, -16(tp)
800062c4: 57 c0 02 5e  	<unknown>
800062c8: 83 20 c1 ff  	lw	ra, -4(sp)
800062cc: 0b c0 00 04  	barrier	x0, x0, 1
800062d0: 13 01 c1 ff  	addi	sp, sp, -4
800062d4: 13 02 c2 fe  	addi	tp, tp, -20
800062d8: 67 80 00 00  	ret

800062dc <printf_float_e>:
800062dc: 13 01 01 01  	addi	sp, sp, 16
800062e0: 13 02 02 03  	addi	tp, tp, 48
800062e4: 0b 20 10 00  	regext	zero, zero, 1
800062e8: 57 40 02 5e  	<unknown>
800062ec: 23 28 11 fe  	sw	ra, -16(sp)
800062f0: 0b 20 80 00  	regext	zero, zero, 8
800062f4: 7b 62 00 fc  	vsw12.v	v0, -60(v0)
800062f8: 0b 20 80 00  	regext	zero, zero, 8
800062fc: 7b 64 10 fc  	vsw12.v	v1, -56(v0)
80006300: 0b 20 80 00  	regext	zero, zero, 8
80006304: 7b 66 20 fc  	vsw12.v	v2, -52(v0)
80006308: 0b 20 80 00  	regext	zero, zero, 8
8000630c: 7b 68 30 fc  	vsw12.v	v3, -48(v0)
80006310: 0b 20 80 00  	regext	zero, zero, 8
80006314: 7b 6a 40 fc  	vsw12.v	v4, -44(v0)
80006318: 83 22 42 fc  	lw	t0, -60(tp)
8000631c: 83 a2 02 00  	lw	t0, 0(t0)
80006320: 23 2c 52 fc  	sw	t0, -40(tp)
80006324: 83 22 82 fc  	lw	t0, -56(tp)
80006328: 23 2e 52 fc  	sw	t0, -36(tp)
8000632c: 83 22 42 fc  	lw	t0, -60(tp)
80006330: 83 a2 02 01  	lw	t0, 16(t0)
80006334: 23 20 52 fe  	sw	t0, -32(tp)
80006338: 83 22 c2 fc  	lw	t0, -52(tp)
8000633c: 23 22 52 fe  	sw	t0, -28(tp)
80006340: 93 02 00 00  	li	t0, 0
80006344: 23 24 52 fe  	sw	t0, -24(tp)
80006348: 83 22 42 fe  	lw	t0, -28(tp)
8000634c: 93 82 f2 ff  	addi	t0, t0, -1
80006350: 23 22 52 fe  	sw	t0, -28(tp)
80006354: 83 22 c2 fd  	lw	t0, -36(tp)
80006358: 13 83 12 00  	addi	t1, t0, 1
8000635c: 23 2e 62 fc  	sw	t1, -36(tp)
80006360: 83 82 02 00  	lb	t0, 0(t0)
80006364: 03 23 82 fd  	lw	t1, -40(tp)
80006368: 93 03 13 00  	addi	t2, t1, 1
8000636c: 23 2c 72 fc  	sw	t2, -40(tp)
80006370: 23 00 53 00  	sb	t0, 0(t1)
80006374: 83 22 02 fd  	lw	t0, -48(tp)
80006378: 63 9c 02 00  	bnez	t0, 0x80006390 <.LBB11_2>
8000637c: 6f 00 40 00  	j	0x80006380 <.LBB11_1>

80006380 <.LBB11_1>:
80006380: 03 23 02 fe  	lw	t1, -32(tp)
80006384: 93 02 00 00  	li	t0, 0
80006388: 63 d0 62 02  	bge	t0, t1, 0x800063a8 <.LBB11_3>
8000638c: 6f 00 40 00  	j	0x80006390 <.LBB11_2>

80006390 <.LBB11_2>:
80006390: 03 23 82 fd  	lw	t1, -40(tp)
80006394: 93 02 13 00  	addi	t0, t1, 1
80006398: 23 2c 52 fc  	sw	t0, -40(tp)
8000639c: 93 02 e0 02  	li	t0, 46
800063a0: 23 00 53 00  	sb	t0, 0(t1)
800063a4: 6f 00 40 00  	j	0x800063a8 <.LBB11_3>

800063a8 <.LBB11_3>:
800063a8: 03 23 02 fe  	lw	t1, -32(tp)
800063ac: 93 02 00 00  	li	t0, 0
800063b0: 63 da 62 08  	bge	t0, t1, 0x80006444 <.LBB11_11>
800063b4: 6f 00 40 00  	j	0x800063b8 <.LBB11_4>

800063b8 <.LBB11_4>:
800063b8: 83 22 c2 fd  	lw	t0, -36(tp)
800063bc: 13 83 12 00  	addi	t1, t0, 1
800063c0: 23 2e 62 fc  	sw	t1, -36(tp)
800063c4: 83 82 02 00  	lb	t0, 0(t0)
800063c8: 23 06 52 fe  	sb	t0, -20(tp)
800063cc: 6f 00 40 00  	j	0x800063d0 <.LBB11_5>

800063d0 <.LBB11_5>:
800063d0: 83 22 82 fe  	lw	t0, -24(tp)
800063d4: 03 23 02 fe  	lw	t1, -32(tp)
800063d8: 63 d4 62 06  	bge	t0, t1, 0x80006440 <.LBB11_10>
800063dc: 6f 00 40 00  	j	0x800063e0 <.LBB11_6>

800063e0 <.LBB11_6>:
800063e0: 83 42 c2 fe  	lbu	t0, -20(tp)
800063e4: 63 8a 02 02  	beqz	t0, 0x80006418 <.LBB11_8>
800063e8: 6f 00 40 00  	j	0x800063ec <.LBB11_7>

800063ec <.LBB11_7>:
800063ec: 83 02 c2 fe  	lb	t0, -20(tp)
800063f0: 03 23 82 fd  	lw	t1, -40(tp)
800063f4: 93 03 13 00  	addi	t2, t1, 1
800063f8: 23 2c 72 fc  	sw	t2, -40(tp)
800063fc: 23 00 53 00  	sb	t0, 0(t1)
80006400: 83 22 c2 fd  	lw	t0, -36(tp)
80006404: 13 83 12 00  	addi	t1, t0, 1
80006408: 23 2e 62 fc  	sw	t1, -36(tp)
8000640c: 83 82 02 00  	lb	t0, 0(t0)
80006410: 23 06 52 fe  	sb	t0, -20(tp)
80006414: 6f 00 c0 01  	j	0x80006430 <.LBB11_9>

80006418 <.LBB11_8>:
80006418: 03 23 82 fd  	lw	t1, -40(tp)
8000641c: 93 02 13 00  	addi	t0, t1, 1
80006420: 23 2c 52 fc  	sw	t0, -40(tp)
80006424: 93 02 00 03  	li	t0, 48
80006428: 23 00 53 00  	sb	t0, 0(t1)
8000642c: 6f 00 40 00  	j	0x80006430 <.LBB11_9>

80006430 <.LBB11_9>:
80006430: 83 22 82 fe  	lw	t0, -24(tp)
80006434: 93 82 12 00  	addi	t0, t0, 1
80006438: 23 24 52 fe  	sw	t0, -24(tp)
8000643c: 6f f0 5f f9  	j	0x800063d0 <.LBB11_5>

80006440 <.LBB11_10>:
80006440: 6f 00 40 00  	j	0x80006444 <.LBB11_11>

80006444 <.LBB11_11>:
80006444: 83 22 42 fd  	lw	t0, -44(tp)
80006448: 63 80 02 0a  	beqz	t0, 0x800064e8 <.LBB11_20>
8000644c: 6f 00 40 00  	j	0x80006450 <.LBB11_12>

80006450 <.LBB11_12>:
80006450: 83 22 82 fd  	lw	t0, -40(tp)
80006454: 93 82 f2 ff  	addi	t0, t0, -1
80006458: 23 28 52 fe  	sw	t0, -16(tp)
8000645c: 6f 00 40 00  	j	0x80006460 <.LBB11_13>

80006460 <.LBB11_13>:
80006460: 03 23 02 ff  	lw	t1, -16(tp)
80006464: 83 22 42 fc  	lw	t0, -60(tp)
80006468: 83 a2 02 00  	lw	t0, 0(t0)
8000646c: 93 03 00 00  	li	t2, 0
80006470: 23 22 71 02  	sw	t2, 36(sp)
80006474: 63 f0 62 02  	bgeu	t0, t1, 0x80006494 <.LBB11_15>
80006478: 6f 00 40 00  	j	0x8000647c <.LBB11_14>

8000647c <.LBB11_14>:
8000647c: 83 22 02 ff  	lw	t0, -16(tp)
80006480: 83 82 02 00  	lb	t0, 0(t0)
80006484: 93 82 02 fd  	addi	t0, t0, -48
80006488: 93 b2 12 00  	seqz	t0, t0
8000648c: 23 22 51 02  	sw	t0, 36(sp)
80006490: 6f 00 40 00  	j	0x80006494 <.LBB11_15>

80006494 <.LBB11_15>:
80006494: 83 22 41 02  	lw	t0, 36(sp)
80006498: 93 f2 12 00  	andi	t0, t0, 1
8000649c: 63 8c 02 00  	beqz	t0, 0x800064b4 <.LBB11_17>
800064a0: 6f 00 40 00  	j	0x800064a4 <.LBB11_16>

800064a4 <.LBB11_16>:
800064a4: 83 22 02 ff  	lw	t0, -16(tp)
800064a8: 93 82 f2 ff  	addi	t0, t0, -1
800064ac: 23 28 52 fe  	sw	t0, -16(tp)
800064b0: 6f f0 1f fb  	j	0x80006460 <.LBB11_13>

800064b4 <.LBB11_17>:
800064b4: 83 22 02 ff  	lw	t0, -16(tp)
800064b8: 83 82 02 00  	lb	t0, 0(t0)
800064bc: 13 03 e0 02  	li	t1, 46
800064c0: 63 9c 62 00  	bne	t0, t1, 0x800064d8 <.LBB11_19>
800064c4: 6f 00 40 00  	j	0x800064c8 <.LBB11_18>

800064c8 <.LBB11_18>:
800064c8: 83 22 02 ff  	lw	t0, -16(tp)
800064cc: 93 82 f2 ff  	addi	t0, t0, -1
800064d0: 23 28 52 fe  	sw	t0, -16(tp)
800064d4: 6f 00 40 00  	j	0x800064d8 <.LBB11_19>

800064d8 <.LBB11_19>:
800064d8: 83 22 02 ff  	lw	t0, -16(tp)
800064dc: 93 82 12 00  	addi	t0, t0, 1
800064e0: 23 2c 52 fc  	sw	t0, -40(tp)
800064e4: 6f 00 40 00  	j	0x800064e8 <.LBB11_20>

800064e8 <.LBB11_20>:
800064e8: 83 22 42 fc  	lw	t0, -60(tp)
800064ec: 83 82 c2 01  	lb	t0, 28(t0)
800064f0: 93 92 c2 01  	slli	t0, t0, 28
800064f4: 93 d2 82 41  	srai	t0, t0, 24
800064f8: 93 d2 72 00  	srli	t0, t0, 7
800064fc: 93 f2 f2 0f  	andi	t0, t0, 255
80006500: 13 03 50 06  	li	t1, 101
80006504: 23 26 61 02  	sw	t1, 44(sp)
80006508: 13 03 50 04  	li	t1, 69
8000650c: 23 24 61 02  	sw	t1, 40(sp)
80006510: 63 96 02 00  	bnez	t0, 0x8000651c <.LBB11_22>
80006514: 83 22 c1 02  	lw	t0, 44(sp)
80006518: 23 24 51 02  	sw	t0, 40(sp)

8000651c <.LBB11_22>:
8000651c: 83 22 81 02  	lw	t0, 40(sp)
80006520: 03 23 82 fd  	lw	t1, -40(tp)
80006524: 93 03 13 00  	addi	t2, t1, 1
80006528: 23 2c 72 fc  	sw	t2, -40(tp)
8000652c: 23 00 53 00  	sb	t0, 0(t1)
80006530: 83 23 82 fd  	lw	t2, -40(tp)
80006534: 03 23 42 fe  	lw	t1, -28(tp)
80006538: 93 02 20 00  	li	t0, 2
8000653c: 57 c0 03 5e  	<unknown>
80006540: d7 40 03 5e  	<unknown>
80006544: 57 c1 02 5e  	<unknown>
80006548: ef f0 8f a9  	jal	0x800057e0 <printf_exp>
8000654c: 83 20 01 ff  	lw	ra, -16(sp)
80006550: 0b c0 00 04  	barrier	x0, x0, 1
80006554: 13 01 01 ff  	addi	sp, sp, -16
80006558: 13 02 02 fd  	addi	tp, tp, -48
8000655c: 67 80 00 00  	ret

80006560 <printf_float_f>:
80006560: 13 01 c1 00  	addi	sp, sp, 12
80006564: 13 02 82 03  	addi	tp, tp, 56
80006568: 0b 20 10 00  	regext	zero, zero, 1
8000656c: 57 40 02 5e  	<unknown>
80006570: 23 2a 11 fe  	sw	ra, -12(sp)
80006574: 0b 20 80 00  	regext	zero, zero, 8
80006578: 7b 60 00 fc  	vsw12.v	v0, -64(v0)
8000657c: 0b 20 80 00  	regext	zero, zero, 8
80006580: 7b 62 10 fc  	vsw12.v	v1, -60(v0)
80006584: 0b 20 80 00  	regext	zero, zero, 8
80006588: 7b 64 20 fc  	vsw12.v	v2, -56(v0)
8000658c: 0b 20 80 00  	regext	zero, zero, 8
80006590: 7b 66 30 fc  	vsw12.v	v3, -52(v0)
80006594: 0b 20 80 00  	regext	zero, zero, 8
80006598: 7b 68 40 fc  	vsw12.v	v4, -48(v0)
8000659c: 83 22 02 fc  	lw	t0, -64(tp)
800065a0: 83 a2 02 01  	lw	t0, 16(t0)
800065a4: 23 2a 52 fc  	sw	t0, -44(tp)
800065a8: 83 22 02 fc  	lw	t0, -64(tp)
800065ac: 83 a2 02 00  	lw	t0, 0(t0)
800065b0: 23 2e 52 fc  	sw	t0, -36(tp)
800065b4: 83 22 42 fc  	lw	t0, -60(tp)
800065b8: 23 20 52 fe  	sw	t0, -32(tp)
800065bc: 93 02 00 00  	li	t0, 0
800065c0: 23 24 52 fe  	sw	t0, -24(tp)
800065c4: 23 26 52 fe  	sw	t0, -20(tp)
800065c8: 03 23 82 fc  	lw	t1, -56(tp)
800065cc: 63 c2 62 0e  	blt	t0, t1, 0x800066b0 <.LBB12_10>
800065d0: 6f 00 40 00  	j	0x800065d4 <.LBB12_1>

800065d4 <.LBB12_1>:
800065d4: 83 22 82 fc  	lw	t0, -56(tp)
800065d8: 23 28 52 fe  	sw	t0, -16(tp)
800065dc: 03 23 c2 fd  	lw	t1, -36(tp)
800065e0: 93 02 13 00  	addi	t0, t1, 1
800065e4: 23 2e 52 fc  	sw	t0, -36(tp)
800065e8: 93 02 00 03  	li	t0, 48
800065ec: 23 00 53 00  	sb	t0, 0(t1)
800065f0: 83 22 c2 fc  	lw	t0, -52(tp)
800065f4: 63 9c 02 00  	bnez	t0, 0x8000660c <.LBB12_3>
800065f8: 6f 00 40 00  	j	0x800065fc <.LBB12_2>

800065fc <.LBB12_2>:
800065fc: 03 23 42 fd  	lw	t1, -44(tp)
80006600: 93 02 00 00  	li	t0, 0
80006604: 63 d4 62 02  	bge	t0, t1, 0x8000662c <.LBB12_4>
80006608: 6f 00 40 00  	j	0x8000660c <.LBB12_3>

8000660c <.LBB12_3>:
8000660c: 83 22 c2 fd  	lw	t0, -36(tp)
80006610: 23 24 52 fe  	sw	t0, -24(tp)
80006614: 03 23 c2 fd  	lw	t1, -36(tp)
80006618: 93 02 13 00  	addi	t0, t1, 1
8000661c: 23 2e 52 fc  	sw	t0, -36(tp)
80006620: 93 02 e0 02  	li	t0, 46
80006624: 23 00 53 00  	sb	t0, 0(t1)
80006628: 6f 00 40 00  	j	0x8000662c <.LBB12_4>

8000662c <.LBB12_4>:
8000662c: 6f 00 40 00  	j	0x80006630 <.LBB12_5>

80006630 <.LBB12_5>:
80006630: 83 22 02 ff  	lw	t0, -16(tp)
80006634: 13 03 00 00  	li	t1, 0
80006638: 23 28 61 02  	sw	t1, 48(sp)
8000663c: 63 de 02 00  	bgez	t0, 0x80006658 <.LBB12_7>
80006640: 6f 00 40 00  	j	0x80006644 <.LBB12_6>

80006644 <.LBB12_6>:
80006644: 83 22 c2 fe  	lw	t0, -20(tp)
80006648: 03 23 42 fd  	lw	t1, -44(tp)
8000664c: b3 a2 62 00  	slt	t0, t0, t1
80006650: 23 28 51 02  	sw	t0, 48(sp)
80006654: 6f 00 40 00  	j	0x80006658 <.LBB12_7>

80006658 <.LBB12_7>:
80006658: 83 22 01 03  	lw	t0, 48(sp)
8000665c: 93 f2 12 00  	andi	t0, t0, 1
80006660: 63 8c 02 02  	beqz	t0, 0x80006698 <.LBB12_9>
80006664: 6f 00 40 00  	j	0x80006668 <.LBB12_8>

80006668 <.LBB12_8>:
80006668: 03 23 c2 fd  	lw	t1, -36(tp)
8000666c: 93 02 13 00  	addi	t0, t1, 1
80006670: 23 2e 52 fc  	sw	t0, -36(tp)
80006674: 93 02 00 03  	li	t0, 48
80006678: 23 00 53 00  	sb	t0, 0(t1)
8000667c: 83 22 02 ff  	lw	t0, -16(tp)
80006680: 93 82 12 00  	addi	t0, t0, 1
80006684: 23 28 52 fe  	sw	t0, -16(tp)
80006688: 83 22 c2 fe  	lw	t0, -20(tp)
8000668c: 93 82 12 00  	addi	t0, t0, 1
80006690: 23 26 52 fe  	sw	t0, -20(tp)
80006694: 6f f0 df f9  	j	0x80006630 <.LBB12_5>

80006698 <.LBB12_9>:
80006698: 83 22 02 fe  	lw	t0, -32(tp)
8000669c: 13 83 12 00  	addi	t1, t0, 1
800066a0: 23 20 62 fe  	sw	t1, -32(tp)
800066a4: 83 82 02 00  	lb	t0, 0(t0)
800066a8: 23 02 52 fe  	sb	t0, -28(tp)
800066ac: 6f 00 80 0d  	j	0x80006784 <.LBB12_21>

800066b0 <.LBB12_10>:
800066b0: 83 22 02 fe  	lw	t0, -32(tp)
800066b4: 13 83 12 00  	addi	t1, t0, 1
800066b8: 23 20 62 fe  	sw	t1, -32(tp)
800066bc: 83 82 02 00  	lb	t0, 0(t0)
800066c0: 23 02 52 fe  	sb	t0, -28(tp)
800066c4: 93 02 00 00  	li	t0, 0
800066c8: 23 2c 52 fc  	sw	t0, -40(tp)
800066cc: 6f 00 40 00  	j	0x800066d0 <.LBB12_11>

800066d0 <.LBB12_11>:
800066d0: 83 22 82 fd  	lw	t0, -40(tp)
800066d4: 03 23 82 fc  	lw	t1, -56(tp)
800066d8: 63 d6 62 06  	bge	t0, t1, 0x80006744 <.LBB12_17>
800066dc: 6f 00 40 00  	j	0x800066e0 <.LBB12_12>

800066e0 <.LBB12_12>:
800066e0: 83 42 42 fe  	lbu	t0, -28(tp)
800066e4: 63 8a 02 02  	beqz	t0, 0x80006718 <.LBB12_14>
800066e8: 6f 00 40 00  	j	0x800066ec <.LBB12_13>

800066ec <.LBB12_13>:
800066ec: 83 02 42 fe  	lb	t0, -28(tp)
800066f0: 03 23 c2 fd  	lw	t1, -36(tp)
800066f4: 93 03 13 00  	addi	t2, t1, 1
800066f8: 23 2e 72 fc  	sw	t2, -36(tp)
800066fc: 23 00 53 00  	sb	t0, 0(t1)
80006700: 83 22 02 fe  	lw	t0, -32(tp)
80006704: 13 83 12 00  	addi	t1, t0, 1
80006708: 23 20 62 fe  	sw	t1, -32(tp)
8000670c: 83 82 02 00  	lb	t0, 0(t0)
80006710: 23 02 52 fe  	sb	t0, -28(tp)
80006714: 6f 00 c0 01  	j	0x80006730 <.LBB12_15>

80006718 <.LBB12_14>:
80006718: 03 23 c2 fd  	lw	t1, -36(tp)
8000671c: 93 02 13 00  	addi	t0, t1, 1
80006720: 23 2e 52 fc  	sw	t0, -36(tp)
80006724: 93 02 00 03  	li	t0, 48
80006728: 23 00 53 00  	sb	t0, 0(t1)
8000672c: 6f 00 40 00  	j	0x80006730 <.LBB12_15>

80006730 <.LBB12_15>:
80006730: 6f 00 40 00  	j	0x80006734 <.LBB12_16>

80006734 <.LBB12_16>:
80006734: 83 22 82 fd  	lw	t0, -40(tp)
80006738: 93 82 12 00  	addi	t0, t0, 1
8000673c: 23 2c 52 fc  	sw	t0, -40(tp)
80006740: 6f f0 1f f9  	j	0x800066d0 <.LBB12_11>

80006744 <.LBB12_17>:
80006744: 83 22 c2 fc  	lw	t0, -52(tp)
80006748: 63 9c 02 00  	bnez	t0, 0x80006760 <.LBB12_19>
8000674c: 6f 00 40 00  	j	0x80006750 <.LBB12_18>

80006750 <.LBB12_18>:
80006750: 03 23 42 fd  	lw	t1, -44(tp)
80006754: 93 02 00 00  	li	t0, 0
80006758: 63 d4 62 02  	bge	t0, t1, 0x80006780 <.LBB12_20>
8000675c: 6f 00 40 00  	j	0x80006760 <.LBB12_19>

80006760 <.LBB12_19>:
80006760: 83 22 c2 fd  	lw	t0, -36(tp)
80006764: 23 24 52 fe  	sw	t0, -24(tp)
80006768: 03 23 c2 fd  	lw	t1, -36(tp)
8000676c: 93 02 13 00  	addi	t0, t1, 1
80006770: 23 2e 52 fc  	sw	t0, -36(tp)
80006774: 93 02 e0 02  	li	t0, 46
80006778: 23 00 53 00  	sb	t0, 0(t1)
8000677c: 6f 00 40 00  	j	0x80006780 <.LBB12_20>

80006780 <.LBB12_20>:
80006780: 6f 00 40 00  	j	0x80006784 <.LBB12_21>

80006784 <.LBB12_21>:
80006784: 6f 00 40 00  	j	0x80006788 <.LBB12_22>

80006788 <.LBB12_22>:
80006788: 83 22 c2 fe  	lw	t0, -20(tp)
8000678c: 03 23 42 fd  	lw	t1, -44(tp)
80006790: 63 d4 62 06  	bge	t0, t1, 0x800067f8 <.LBB12_27>
80006794: 6f 00 40 00  	j	0x80006798 <.LBB12_23>

80006798 <.LBB12_23>:
80006798: 83 42 42 fe  	lbu	t0, -28(tp)
8000679c: 63 8a 02 02  	beqz	t0, 0x800067d0 <.LBB12_25>
800067a0: 6f 00 40 00  	j	0x800067a4 <.LBB12_24>

800067a4 <.LBB12_24>:
800067a4: 83 02 42 fe  	lb	t0, -28(tp)
800067a8: 03 23 c2 fd  	lw	t1, -36(tp)
800067ac: 93 03 13 00  	addi	t2, t1, 1
800067b0: 23 2e 72 fc  	sw	t2, -36(tp)
800067b4: 23 00 53 00  	sb	t0, 0(t1)
800067b8: 83 22 02 fe  	lw	t0, -32(tp)
800067bc: 13 83 12 00  	addi	t1, t0, 1
800067c0: 23 20 62 fe  	sw	t1, -32(tp)
800067c4: 83 82 02 00  	lb	t0, 0(t0)
800067c8: 23 02 52 fe  	sb	t0, -28(tp)
800067cc: 6f 00 c0 01  	j	0x800067e8 <.LBB12_26>

800067d0 <.LBB12_25>:
800067d0: 03 23 c2 fd  	lw	t1, -36(tp)
800067d4: 93 02 13 00  	addi	t0, t1, 1
800067d8: 23 2e 52 fc  	sw	t0, -36(tp)
800067dc: 93 02 00 03  	li	t0, 48
800067e0: 23 00 53 00  	sb	t0, 0(t1)
800067e4: 6f 00 40 00  	j	0x800067e8 <.LBB12_26>

800067e8 <.LBB12_26>:
800067e8: 83 22 c2 fe  	lw	t0, -20(tp)
800067ec: 93 82 12 00  	addi	t0, t0, 1
800067f0: 23 26 52 fe  	sw	t0, -20(tp)
800067f4: 6f f0 5f f9  	j	0x80006788 <.LBB12_22>

800067f8 <.LBB12_27>:
800067f8: 03 23 c2 fd  	lw	t1, -36(tp)
800067fc: 93 02 00 00  	li	t0, 0
80006800: 23 00 53 00  	sb	t0, 0(t1)
80006804: 83 22 02 fd  	lw	t0, -48(tp)
80006808: 63 86 02 0a  	beqz	t0, 0x800068b4 <.LBB12_37>
8000680c: 6f 00 40 00  	j	0x80006810 <.LBB12_28>

80006810 <.LBB12_28>:
80006810: 83 22 82 fe  	lw	t0, -24(tp)
80006814: 63 80 02 0a  	beqz	t0, 0x800068b4 <.LBB12_37>
80006818: 6f 00 40 00  	j	0x8000681c <.LBB12_29>

8000681c <.LBB12_29>:
8000681c: 83 22 c2 fd  	lw	t0, -36(tp)
80006820: 93 82 f2 ff  	addi	t0, t0, -1
80006824: 23 2e 52 fc  	sw	t0, -36(tp)
80006828: 93 02 00 00  	li	t0, 0
8000682c: 23 2a 52 fe  	sw	t0, -12(tp)
80006830: 6f 00 40 00  	j	0x80006834 <.LBB12_30>

80006834 <.LBB12_30>:
80006834: 03 23 c2 fd  	lw	t1, -36(tp)
80006838: 83 22 82 fe  	lw	t0, -24(tp)
8000683c: 93 03 00 00  	li	t2, 0
80006840: 23 2a 71 02  	sw	t2, 52(sp)
80006844: 63 f0 62 02  	bgeu	t0, t1, 0x80006864 <.LBB12_32>
80006848: 6f 00 40 00  	j	0x8000684c <.LBB12_31>

8000684c <.LBB12_31>:
8000684c: 83 22 c2 fd  	lw	t0, -36(tp)
80006850: 83 82 02 00  	lb	t0, 0(t0)
80006854: 93 82 02 fd  	addi	t0, t0, -48
80006858: 93 b2 12 00  	seqz	t0, t0
8000685c: 23 2a 51 02  	sw	t0, 52(sp)
80006860: 6f 00 40 00  	j	0x80006864 <.LBB12_32>

80006864 <.LBB12_32>:
80006864: 83 22 41 03  	lw	t0, 52(sp)
80006868: 93 f2 12 00  	andi	t0, t0, 1
8000686c: 63 80 02 02  	beqz	t0, 0x8000688c <.LBB12_34>
80006870: 6f 00 40 00  	j	0x80006874 <.LBB12_33>

80006874 <.LBB12_33>:
80006874: 03 23 c2 fd  	lw	t1, -36(tp)
80006878: 93 02 f3 ff  	addi	t0, t1, -1
8000687c: 23 2e 52 fc  	sw	t0, -36(tp)
80006880: 93 02 00 00  	li	t0, 0
80006884: 23 00 53 00  	sb	t0, 0(t1)
80006888: 6f f0 df fa  	j	0x80006834 <.LBB12_30>

8000688c <.LBB12_34>:
8000688c: 83 22 c2 fd  	lw	t0, -36(tp)
80006890: 83 82 02 00  	lb	t0, 0(t0)
80006894: 13 03 e0 02  	li	t1, 46
80006898: 63 9c 62 00  	bne	t0, t1, 0x800068b0 <.LBB12_36>
8000689c: 6f 00 40 00  	j	0x800068a0 <.LBB12_35>

800068a0 <.LBB12_35>:
800068a0: 03 23 c2 fd  	lw	t1, -36(tp)
800068a4: 93 02 00 00  	li	t0, 0
800068a8: 23 00 53 00  	sb	t0, 0(t1)
800068ac: 6f 00 40 00  	j	0x800068b0 <.LBB12_36>

800068b0 <.LBB12_36>:
800068b0: 6f 00 40 00  	j	0x800068b4 <.LBB12_37>

800068b4 <.LBB12_37>:
800068b4: 83 20 41 ff  	lw	ra, -12(sp)
800068b8: 0b c0 00 04  	barrier	x0, x0, 1
800068bc: 13 01 41 ff  	addi	sp, sp, -12
800068c0: 13 02 82 fc  	addi	tp, tp, -56
800068c4: 67 80 00 00  	ret

800068c8 <printf_putchw>:
800068c8: 13 01 01 03  	addi	sp, sp, 48
800068cc: 13 02 02 02  	addi	tp, tp, 32
800068d0: 0b 20 10 00  	regext	zero, zero, 1
800068d4: 57 40 02 5e  	<unknown>
800068d8: 23 28 11 fc  	sw	ra, -48(sp)
800068dc: 0b 20 80 00  	regext	zero, zero, 8
800068e0: 7b 6a 00 fa  	vsw12.v	v0, -76(v0)
800068e4: 83 22 42 fb  	lw	t0, -76(tp)
800068e8: 83 a2 42 01  	lw	t0, 20(t0)
800068ec: 23 2e 52 fa  	sw	t0, -68(tp)
800068f0: 83 22 42 fb  	lw	t0, -76(tp)
800068f4: 83 82 c2 01  	lb	t0, 28(t0)
800068f8: 93 d2 72 00  	srli	t0, t0, 7
800068fc: 93 f2 f2 0f  	andi	t0, t0, 255
80006900: 13 03 00 00  	li	t1, 0
80006904: 23 2a 61 fe  	sw	t1, -12(sp)
80006908: 63 84 02 04  	beqz	t0, 0x80006950 <.LBB13_3>
8000690c: 6f 00 40 00  	j	0x80006910 <.LBB13_1>

80006910 <.LBB13_1>:
80006910: 83 22 42 fb  	lw	t0, -76(tp)
80006914: 83 82 c2 01  	lb	t0, 28(t0)
80006918: 93 92 e2 01  	slli	t0, t0, 30
8000691c: 93 d2 82 41  	srai	t0, t0, 24
80006920: 93 d2 72 00  	srli	t0, t0, 7
80006924: 93 f2 f2 0f  	andi	t0, t0, 255
80006928: 13 03 00 00  	li	t1, 0
8000692c: 23 2a 61 fe  	sw	t1, -12(sp)
80006930: 63 80 02 02  	beqz	t0, 0x80006950 <.LBB13_3>
80006934: 6f 00 40 00  	j	0x80006938 <.LBB13_2>

80006938 <.LBB13_2>:
80006938: 83 22 42 fb  	lw	t0, -76(tp)
8000693c: 83 a2 82 01  	lw	t0, 24(t0)
80006940: 93 82 02 ff  	addi	t0, t0, -16
80006944: 93 b2 12 00  	seqz	t0, t0
80006948: 23 2a 51 fe  	sw	t0, -12(sp)
8000694c: 6f 00 40 00  	j	0x80006950 <.LBB13_3>

80006950 <.LBB13_3>:
80006950: 83 22 41 ff  	lw	t0, -12(sp)
80006954: 93 f2 12 00  	andi	t0, t0, 1
80006958: 23 20 52 fc  	sw	t0, -64(tp)
8000695c: 83 22 42 fb  	lw	t0, -76(tp)
80006960: 83 a2 02 00  	lw	t0, 0(t0)
80006964: 83 82 02 00  	lb	t0, 0(t0)
80006968: 93 03 00 00  	li	t2, 0
8000696c: 13 03 00 03  	li	t1, 48
80006970: 23 2c 71 fe  	sw	t2, -8(sp)
80006974: 63 84 62 04  	beq	t0, t1, 0x800069bc <.LBB13_6>
80006978: 6f 00 40 00  	j	0x8000697c <.LBB13_4>

8000697c <.LBB13_4>:
8000697c: 83 22 42 fb  	lw	t0, -76(tp)
80006980: 83 82 c2 01  	lb	t0, 28(t0)
80006984: 93 92 e2 01  	slli	t0, t0, 30
80006988: 93 d2 82 41  	srai	t0, t0, 24
8000698c: 93 d2 72 00  	srli	t0, t0, 7
80006990: 93 f2 f2 0f  	andi	t0, t0, 255
80006994: 13 03 00 00  	li	t1, 0
80006998: 23 2c 61 fe  	sw	t1, -8(sp)
8000699c: 63 80 02 02  	beqz	t0, 0x800069bc <.LBB13_6>
800069a0: 6f 00 40 00  	j	0x800069a4 <.LBB13_5>

800069a4 <.LBB13_5>:
800069a4: 83 22 42 fb  	lw	t0, -76(tp)
800069a8: 83 a2 82 01  	lw	t0, 24(t0)
800069ac: 93 82 82 ff  	addi	t0, t0, -8
800069b0: 93 b2 12 00  	seqz	t0, t0
800069b4: 23 2c 51 fe  	sw	t0, -8(sp)
800069b8: 6f 00 40 00  	j	0x800069bc <.LBB13_6>

800069bc <.LBB13_6>:
800069bc: 83 22 81 ff  	lw	t0, -8(sp)
800069c0: 93 f2 12 00  	andi	t0, t0, 1
800069c4: 23 22 52 fc  	sw	t0, -60(tp)
800069c8: 83 22 42 fb  	lw	t0, -76(tp)
800069cc: 83 82 c2 01  	lb	t0, 28(t0)
800069d0: 93 92 b2 01  	slli	t0, t0, 27
800069d4: 93 d2 82 41  	srai	t0, t0, 24
800069d8: 93 d2 72 00  	srli	t0, t0, 7
800069dc: 93 f2 f2 0f  	andi	t0, t0, 255
800069e0: 13 03 10 00  	li	t1, 1
800069e4: 23 2e 61 fe  	sw	t1, -4(sp)
800069e8: 63 96 02 02  	bnez	t0, 0x80006a14 <.LBB13_8>
800069ec: 6f 00 40 00  	j	0x800069f0 <.LBB13_7>

800069f0 <.LBB13_7>:
800069f0: 83 22 42 fb  	lw	t0, -76(tp)
800069f4: 83 82 c2 01  	lb	t0, 28(t0)
800069f8: 93 92 a2 01  	slli	t0, t0, 26
800069fc: 93 d2 82 41  	srai	t0, t0, 24
80006a00: 93 d2 72 00  	srli	t0, t0, 7
80006a04: 93 f2 f2 0f  	andi	t0, t0, 255
80006a08: b3 32 50 00  	snez	t0, t0
80006a0c: 23 2e 51 fe  	sw	t0, -4(sp)
80006a10: 6f 00 40 00  	j	0x80006a14 <.LBB13_8>

80006a14 <.LBB13_8>:
80006a14: 83 22 c1 ff  	lw	t0, -4(sp)
80006a18: 93 f2 12 00  	andi	t0, t0, 1
80006a1c: 23 24 52 fc  	sw	t0, -56(tp)
80006a20: 83 22 42 fb  	lw	t0, -76(tp)
80006a24: 83 82 c2 01  	lb	t0, 28(t0)
80006a28: 93 92 92 01  	slli	t0, t0, 25
80006a2c: 93 d2 82 41  	srai	t0, t0, 24
80006a30: 93 d2 72 00  	srli	t0, t0, 7
80006a34: 93 f2 f2 0f  	andi	t0, t0, 255
80006a38: 13 03 00 00  	li	t1, 0
80006a3c: 23 20 61 00  	sw	t1, 0(sp)
80006a40: 63 86 02 02  	beqz	t0, 0x80006a6c <.LBB13_10>
80006a44: 6f 00 40 00  	j	0x80006a48 <.LBB13_9>

80006a48 <.LBB13_9>:
80006a48: 83 22 42 fb  	lw	t0, -76(tp)
80006a4c: 83 82 c2 01  	lb	t0, 28(t0)
80006a50: 93 92 a2 01  	slli	t0, t0, 26
80006a54: 93 d2 82 41  	srai	t0, t0, 24
80006a58: 93 d2 72 00  	srli	t0, t0, 7
80006a5c: 93 f2 f2 0f  	andi	t0, t0, 255
80006a60: 93 b2 12 00  	seqz	t0, t0
80006a64: 23 20 51 00  	sw	t0, 0(sp)
80006a68: 6f 00 40 00  	j	0x80006a6c <.LBB13_10>

80006a6c <.LBB13_10>:
80006a6c: 83 22 01 00  	lw	t0, 0(sp)
80006a70: 93 f2 12 00  	andi	t0, t0, 1
80006a74: 23 26 52 fc  	sw	t0, -52(tp)
80006a78: 83 22 42 fb  	lw	t0, -76(tp)
80006a7c: 83 a2 02 00  	lw	t0, 0(t0)
80006a80: 23 28 52 fc  	sw	t0, -48(tp)
80006a84: 6f 00 40 00  	j	0x80006a88 <.LBB13_11>

80006a88 <.LBB13_11>:
80006a88: 83 22 02 fd  	lw	t0, -48(tp)
80006a8c: 13 83 12 00  	addi	t1, t0, 1
80006a90: 23 28 62 fc  	sw	t1, -48(tp)
80006a94: 83 82 02 00  	lb	t0, 0(t0)
80006a98: 13 03 00 00  	li	t1, 0
80006a9c: 23 22 61 00  	sw	t1, 4(sp)
80006aa0: 63 8e 02 00  	beqz	t0, 0x80006abc <.LBB13_13>
80006aa4: 6f 00 40 00  	j	0x80006aa8 <.LBB13_12>

80006aa8 <.LBB13_12>:
80006aa8: 03 23 c2 fb  	lw	t1, -68(tp)
80006aac: 93 02 00 00  	li	t0, 0
80006ab0: b3 a2 62 00  	slt	t0, t0, t1
80006ab4: 23 22 51 00  	sw	t0, 4(sp)
80006ab8: 6f 00 40 00  	j	0x80006abc <.LBB13_13>

80006abc <.LBB13_13>:
80006abc: 83 22 41 00  	lw	t0, 4(sp)
80006ac0: 93 f2 12 00  	andi	t0, t0, 1
80006ac4: 63 8c 02 00  	beqz	t0, 0x80006adc <.LBB13_15>
80006ac8: 6f 00 40 00  	j	0x80006acc <.LBB13_14>

80006acc <.LBB13_14>:
80006acc: 83 22 c2 fb  	lw	t0, -68(tp)
80006ad0: 93 82 f2 ff  	addi	t0, t0, -1
80006ad4: 23 2e 52 fa  	sw	t0, -68(tp)
80006ad8: 6f f0 1f fb  	j	0x80006a88 <.LBB13_11>

80006adc <.LBB13_15>:
80006adc: 83 22 82 fc  	lw	t0, -56(tp)
80006ae0: 63 8c 02 00  	beqz	t0, 0x80006af8 <.LBB13_17>
80006ae4: 6f 00 40 00  	j	0x80006ae8 <.LBB13_16>

80006ae8 <.LBB13_16>:
80006ae8: 83 22 c2 fb  	lw	t0, -68(tp)
80006aec: 93 82 f2 ff  	addi	t0, t0, -1
80006af0: 23 2e 52 fa  	sw	t0, -68(tp)
80006af4: 6f 00 40 00  	j	0x80006af8 <.LBB13_17>

80006af8 <.LBB13_17>:
80006af8: 83 22 c2 fc  	lw	t0, -52(tp)
80006afc: 63 8c 02 00  	beqz	t0, 0x80006b14 <.LBB13_19>
80006b00: 6f 00 40 00  	j	0x80006b04 <.LBB13_18>

80006b04 <.LBB13_18>:
80006b04: 83 22 c2 fb  	lw	t0, -68(tp)
80006b08: 93 82 f2 ff  	addi	t0, t0, -1
80006b0c: 23 2e 52 fa  	sw	t0, -68(tp)
80006b10: 6f 00 40 00  	j	0x80006b14 <.LBB13_19>

80006b14 <.LBB13_19>:
80006b14: 83 22 02 fc  	lw	t0, -64(tp)
80006b18: 63 8e 02 00  	beqz	t0, 0x80006b34 <.LBB13_21>
80006b1c: 6f 00 40 00  	j	0x80006b20 <.LBB13_20>

80006b20 <.LBB13_20>:
80006b20: 83 22 c2 fb  	lw	t0, -68(tp)
80006b24: 13 03 20 00  	li	t1, 2
80006b28: b3 82 62 40  	sub	t0, t0, t1
80006b2c: 23 2e 52 fa  	sw	t0, -68(tp)
80006b30: 6f 00 40 00  	j	0x80006b34 <.LBB13_21>

80006b34 <.LBB13_21>:
80006b34: 83 22 42 fc  	lw	t0, -60(tp)
80006b38: 63 8c 02 00  	beqz	t0, 0x80006b50 <.LBB13_23>
80006b3c: 6f 00 40 00  	j	0x80006b40 <.LBB13_22>

80006b40 <.LBB13_22>:
80006b40: 83 22 c2 fb  	lw	t0, -68(tp)
80006b44: 93 82 f2 ff  	addi	t0, t0, -1
80006b48: 23 2e 52 fa  	sw	t0, -68(tp)
80006b4c: 6f 00 40 00  	j	0x80006b50 <.LBB13_23>

80006b50 <.LBB13_23>:
80006b50: 83 22 42 fb  	lw	t0, -76(tp)
80006b54: 83 c2 c2 01  	lbu	t0, 28(t0)
80006b58: 93 f2 12 00  	andi	t0, t0, 1
80006b5c: 63 9c 02 04  	bnez	t0, 0x80006bb4 <.LBB13_29>
80006b60: 6f 00 40 00  	j	0x80006b64 <.LBB13_24>

80006b64 <.LBB13_24>:
80006b64: 83 22 42 fb  	lw	t0, -76(tp)
80006b68: 83 82 c2 01  	lb	t0, 28(t0)
80006b6c: 93 92 d2 01  	slli	t0, t0, 29
80006b70: 93 d2 f2 41  	srai	t0, t0, 31
80006b74: 63 90 02 04  	bnez	t0, 0x80006bb4 <.LBB13_29>
80006b78: 6f 00 40 00  	j	0x80006b7c <.LBB13_25>

80006b7c <.LBB13_25>:
80006b7c: 6f 00 40 00  	j	0x80006b80 <.LBB13_26>

80006b80 <.LBB13_26>:
80006b80: 03 23 c2 fb  	lw	t1, -68(tp)
80006b84: 93 02 f3 ff  	addi	t0, t1, -1
80006b88: 23 2e 52 fa  	sw	t0, -68(tp)
80006b8c: 93 02 00 00  	li	t0, 0
80006b90: 63 d0 62 02  	bge	t0, t1, 0x80006bb0 <.LBB13_28>
80006b94: 6f 00 40 00  	j	0x80006b98 <.LBB13_27>

80006b98 <.LBB13_27>:
80006b98: 03 23 42 fb  	lw	t1, -76(tp)
80006b9c: 93 02 00 02  	li	t0, 32
80006ba0: 57 40 03 5e  	<unknown>
80006ba4: d7 c0 02 5e  	<unknown>
80006ba8: ef e0 4f f4  	jal	0x800052ec <printf_putcf>
80006bac: 6f f0 5f fd  	j	0x80006b80 <.LBB13_26>

80006bb0 <.LBB13_28>:
80006bb0: 6f 00 40 00  	j	0x80006bb4 <.LBB13_29>

80006bb4 <.LBB13_29>:
80006bb4: 83 22 c2 fc  	lw	t0, -52(tp)
80006bb8: 63 80 02 02  	beqz	t0, 0x80006bd8 <.LBB13_31>
80006bbc: 6f 00 40 00  	j	0x80006bc0 <.LBB13_30>

80006bc0 <.LBB13_30>:
80006bc0: 03 23 42 fb  	lw	t1, -76(tp)
80006bc4: 93 02 00 02  	li	t0, 32
80006bc8: 57 40 03 5e  	<unknown>
80006bcc: d7 c0 02 5e  	<unknown>
80006bd0: ef e0 cf f1  	jal	0x800052ec <printf_putcf>
80006bd4: 6f 00 40 00  	j	0x80006bd8 <.LBB13_31>

80006bd8 <.LBB13_31>:
80006bd8: 83 22 82 fc  	lw	t0, -56(tp)
80006bdc: 63 8c 02 04  	beqz	t0, 0x80006c34 <.LBB13_35>
80006be0: 6f 00 40 00  	j	0x80006be4 <.LBB13_32>

80006be4 <.LBB13_32>:
80006be4: 83 22 42 fb  	lw	t0, -76(tp)
80006be8: 23 28 51 00  	sw	t0, 16(sp)
80006bec: 83 82 c2 01  	lb	t0, 28(t0)
80006bf0: 93 92 a2 01  	slli	t0, t0, 26
80006bf4: 93 d2 82 41  	srai	t0, t0, 24
80006bf8: 93 d2 72 00  	srli	t0, t0, 7
80006bfc: 93 f2 f2 0f  	andi	t0, t0, 255
80006c00: 13 03 b0 02  	li	t1, 43
80006c04: 23 26 61 00  	sw	t1, 12(sp)
80006c08: 13 03 d0 02  	li	t1, 45
80006c0c: 23 24 61 00  	sw	t1, 8(sp)
80006c10: 63 96 02 00  	bnez	t0, 0x80006c1c <.LBB13_34>
80006c14: 83 22 c1 00  	lw	t0, 12(sp)
80006c18: 23 24 51 00  	sw	t0, 8(sp)

80006c1c <.LBB13_34>:
80006c1c: 03 23 01 01  	lw	t1, 16(sp)
80006c20: 83 22 81 00  	lw	t0, 8(sp)
80006c24: 57 40 03 5e  	<unknown>
80006c28: d7 c0 02 5e  	<unknown>
80006c2c: ef e0 0f ec  	jal	0x800052ec <printf_putcf>
80006c30: 6f 00 40 00  	j	0x80006c34 <.LBB13_35>

80006c34 <.LBB13_35>:
80006c34: 83 22 02 fc  	lw	t0, -64(tp)
80006c38: 63 86 02 06  	beqz	t0, 0x80006ca4 <.LBB13_39>
80006c3c: 6f 00 40 00  	j	0x80006c40 <.LBB13_36>

80006c40 <.LBB13_36>:
80006c40: 03 23 42 fb  	lw	t1, -76(tp)
80006c44: 93 02 00 03  	li	t0, 48
80006c48: 57 40 03 5e  	<unknown>
80006c4c: d7 c0 02 5e  	<unknown>
80006c50: ef e0 cf e9  	jal	0x800052ec <printf_putcf>
80006c54: 83 22 42 fb  	lw	t0, -76(tp)
80006c58: 23 2e 51 00  	sw	t0, 28(sp)
80006c5c: 83 82 c2 01  	lb	t0, 28(t0)
80006c60: 93 92 c2 01  	slli	t0, t0, 28
80006c64: 93 d2 82 41  	srai	t0, t0, 24
80006c68: 93 d2 72 00  	srli	t0, t0, 7
80006c6c: 93 f2 f2 0f  	andi	t0, t0, 255
80006c70: 13 03 80 07  	li	t1, 120
80006c74: 23 2c 61 00  	sw	t1, 24(sp)
80006c78: 13 03 80 05  	li	t1, 88
80006c7c: 23 2a 61 00  	sw	t1, 20(sp)
80006c80: 63 96 02 00  	bnez	t0, 0x80006c8c <.LBB13_38>
80006c84: 83 22 81 01  	lw	t0, 24(sp)
80006c88: 23 2a 51 00  	sw	t0, 20(sp)

80006c8c <.LBB13_38>:
80006c8c: 03 23 c1 01  	lw	t1, 28(sp)
80006c90: 83 22 41 01  	lw	t0, 20(sp)
80006c94: 57 40 03 5e  	<unknown>
80006c98: d7 c0 02 5e  	<unknown>
80006c9c: ef e0 0f e5  	jal	0x800052ec <printf_putcf>
80006ca0: 6f 00 c0 02  	j	0x80006ccc <.LBB13_42>

80006ca4 <.LBB13_39>:
80006ca4: 83 22 42 fc  	lw	t0, -60(tp)
80006ca8: 63 80 02 02  	beqz	t0, 0x80006cc8 <.LBB13_41>
80006cac: 6f 00 40 00  	j	0x80006cb0 <.LBB13_40>

80006cb0 <.LBB13_40>:
80006cb0: 03 23 42 fb  	lw	t1, -76(tp)
80006cb4: 93 02 00 03  	li	t0, 48
80006cb8: 57 40 03 5e  	<unknown>
80006cbc: d7 c0 02 5e  	<unknown>
80006cc0: ef e0 cf e2  	jal	0x800052ec <printf_putcf>
80006cc4: 6f 00 40 00  	j	0x80006cc8 <.LBB13_41>

80006cc8 <.LBB13_41>:
80006cc8: 6f 00 40 00  	j	0x80006ccc <.LBB13_42>

80006ccc <.LBB13_42>:
80006ccc: 83 22 42 fb  	lw	t0, -76(tp)
80006cd0: 83 c2 c2 01  	lbu	t0, 28(t0)
80006cd4: 93 f2 12 00  	andi	t0, t0, 1
80006cd8: 63 80 02 04  	beqz	t0, 0x80006d18 <.LBB13_47>
80006cdc: 6f 00 40 00  	j	0x80006ce0 <.LBB13_43>

80006ce0 <.LBB13_43>:
80006ce0: 6f 00 40 00  	j	0x80006ce4 <.LBB13_44>

80006ce4 <.LBB13_44>:
80006ce4: 03 23 c2 fb  	lw	t1, -68(tp)
80006ce8: 93 02 f3 ff  	addi	t0, t1, -1
80006cec: 23 2e 52 fa  	sw	t0, -68(tp)
80006cf0: 93 02 00 00  	li	t0, 0
80006cf4: 63 d0 62 02  	bge	t0, t1, 0x80006d14 <.LBB13_46>
80006cf8: 6f 00 40 00  	j	0x80006cfc <.LBB13_45>

80006cfc <.LBB13_45>:
80006cfc: 03 23 42 fb  	lw	t1, -76(tp)
80006d00: 93 02 00 03  	li	t0, 48
80006d04: 57 40 03 5e  	<unknown>
80006d08: d7 c0 02 5e  	<unknown>
80006d0c: ef e0 0f de  	jal	0x800052ec <printf_putcf>
80006d10: 6f f0 5f fd  	j	0x80006ce4 <.LBB13_44>

80006d14 <.LBB13_46>:
80006d14: 6f 00 40 00  	j	0x80006d18 <.LBB13_47>

80006d18 <.LBB13_47>:
80006d18: 03 23 42 fb  	lw	t1, -76(tp)
80006d1c: 83 22 03 00  	lw	t0, 0(t1)
80006d20: 57 40 03 5e  	<unknown>
80006d24: d7 c0 02 5e  	<unknown>
80006d28: ef e0 0f e3  	jal	0x80005358 <printf_puts>
80006d2c: 83 22 42 fb  	lw	t0, -76(tp)
80006d30: 83 c2 c2 01  	lbu	t0, 28(t0)
80006d34: 93 f2 12 00  	andi	t0, t0, 1
80006d38: 63 90 02 06  	bnez	t0, 0x80006d98 <.LBB13_53>
80006d3c: 6f 00 40 00  	j	0x80006d40 <.LBB13_48>

80006d40 <.LBB13_48>:
80006d40: 83 22 42 fb  	lw	t0, -76(tp)
80006d44: 83 82 c2 01  	lb	t0, 28(t0)
80006d48: 93 92 d2 01  	slli	t0, t0, 29
80006d4c: 93 d2 82 41  	srai	t0, t0, 24
80006d50: 93 d2 72 00  	srli	t0, t0, 7
80006d54: 93 f2 f2 0f  	andi	t0, t0, 255
80006d58: 63 80 02 04  	beqz	t0, 0x80006d98 <.LBB13_53>
80006d5c: 6f 00 40 00  	j	0x80006d60 <.LBB13_49>

80006d60 <.LBB13_49>:
80006d60: 6f 00 40 00  	j	0x80006d64 <.LBB13_50>

80006d64 <.LBB13_50>:
80006d64: 03 23 c2 fb  	lw	t1, -68(tp)
80006d68: 93 02 f3 ff  	addi	t0, t1, -1
80006d6c: 23 2e 52 fa  	sw	t0, -68(tp)
80006d70: 93 02 00 00  	li	t0, 0
80006d74: 63 d0 62 02  	bge	t0, t1, 0x80006d94 <.LBB13_52>
80006d78: 6f 00 40 00  	j	0x80006d7c <.LBB13_51>

80006d7c <.LBB13_51>:
80006d7c: 03 23 42 fb  	lw	t1, -76(tp)
80006d80: 93 02 00 02  	li	t0, 32
80006d84: 57 40 03 5e  	<unknown>
80006d88: d7 c0 02 5e  	<unknown>
80006d8c: ef e0 0f d6  	jal	0x800052ec <printf_putcf>
80006d90: 6f f0 5f fd  	j	0x80006d64 <.LBB13_50>

80006d94 <.LBB13_52>:
80006d94: 6f 00 40 00  	j	0x80006d98 <.LBB13_53>

80006d98 <.LBB13_53>:
80006d98: 83 20 01 fd  	lw	ra, -48(sp)
80006d9c: 0b c0 00 04  	barrier	x0, x0, 1
80006da0: 13 01 01 fd  	addi	sp, sp, -48
80006da4: 13 02 02 fe  	addi	tp, tp, -32
80006da8: 67 80 00 00  	ret

80006dac <printf_puts_ljust>:
80006dac: 13 01 41 00  	addi	sp, sp, 4
80006db0: 13 02 82 01  	addi	tp, tp, 24
80006db4: 0b 20 10 00  	regext	zero, zero, 1
80006db8: 57 40 02 5e  	<unknown>
80006dbc: 23 2e 11 fe  	sw	ra, -4(sp)
80006dc0: 0b 20 80 00  	regext	zero, zero, 8
80006dc4: 7b 64 00 fe  	vsw12.v	v0, -24(v0)
80006dc8: 0b 20 80 00  	regext	zero, zero, 8
80006dcc: 7b 66 10 fe  	vsw12.v	v1, -20(v0)
80006dd0: 0b 20 80 00  	regext	zero, zero, 8
80006dd4: 7b 68 20 fe  	vsw12.v	v2, -16(v0)
80006dd8: 0b 20 80 00  	regext	zero, zero, 8
80006ddc: 7b 6a 30 fe  	vsw12.v	v3, -12(v0)
80006de0: 93 02 00 00  	li	t0, 0
80006de4: 23 2e 52 fe  	sw	t0, -4(tp)
80006de8: 83 22 42 ff  	lw	t0, -12(tp)
80006dec: 63 dc 02 00  	bgez	t0, 0x80006e04 <.LBB14_2>
80006df0: 6f 00 40 00  	j	0x80006df4 <.LBB14_1>

80006df4 <.LBB14_1>:
80006df4: b7 02 00 80  	lui	t0, 524288
80006df8: 93 82 f2 ff  	addi	t0, t0, -1
80006dfc: 23 2a 52 fe  	sw	t0, -12(tp)
80006e00: 6f 00 40 00  	j	0x80006e04 <.LBB14_2>

80006e04 <.LBB14_2>:
80006e04: 6f 00 40 00  	j	0x80006e08 <.LBB14_3>

80006e08 <.LBB14_3>:
80006e08: 83 22 c2 fe  	lw	t0, -20(tp)
80006e0c: 13 83 12 00  	addi	t1, t0, 1
80006e10: 23 26 62 fe  	sw	t1, -20(tp)
80006e14: 83 c2 02 00  	lbu	t0, 0(t0)
80006e18: 23 0c 52 fe  	sb	t0, -8(tp)
80006e1c: 63 80 02 04  	beqz	t0, 0x80006e5c <.LBB14_7>
80006e20: 6f 00 40 00  	j	0x80006e24 <.LBB14_4>

80006e24 <.LBB14_4>:
80006e24: 83 22 c2 ff  	lw	t0, -4(tp)
80006e28: 03 23 42 ff  	lw	t1, -12(tp)
80006e2c: 63 d0 62 02  	bge	t0, t1, 0x80006e4c <.LBB14_6>
80006e30: 6f 00 40 00  	j	0x80006e34 <.LBB14_5>

80006e34 <.LBB14_5>:
80006e34: 03 23 82 fe  	lw	t1, -24(tp)
80006e38: 83 02 82 ff  	lb	t0, -8(tp)
80006e3c: 57 40 03 5e  	<unknown>
80006e40: d7 c0 02 5e  	<unknown>
80006e44: ef e0 8f ca  	jal	0x800052ec <printf_putcf>
80006e48: 6f 00 40 00  	j	0x80006e4c <.LBB14_6>

80006e4c <.LBB14_6>:
80006e4c: 83 22 c2 ff  	lw	t0, -4(tp)
80006e50: 93 82 12 00  	addi	t0, t0, 1
80006e54: 23 2e 52 fe  	sw	t0, -4(tp)
80006e58: 6f f0 1f fb  	j	0x80006e08 <.LBB14_3>

80006e5c <.LBB14_7>:
80006e5c: 6f 00 40 00  	j	0x80006e60 <.LBB14_8>

80006e60 <.LBB14_8>:
80006e60: 83 22 c2 ff  	lw	t0, -4(tp)
80006e64: 03 23 02 ff  	lw	t1, -16(tp)
80006e68: 63 d0 62 04  	bge	t0, t1, 0x80006ea8 <.LBB14_12>
80006e6c: 6f 00 40 00  	j	0x80006e70 <.LBB14_9>

80006e70 <.LBB14_9>:
80006e70: 83 22 c2 ff  	lw	t0, -4(tp)
80006e74: 03 23 42 ff  	lw	t1, -12(tp)
80006e78: 63 d0 62 02  	bge	t0, t1, 0x80006e98 <.LBB14_11>
80006e7c: 6f 00 40 00  	j	0x80006e80 <.LBB14_10>

80006e80 <.LBB14_10>:
80006e80: 03 23 82 fe  	lw	t1, -24(tp)
80006e84: 93 02 00 02  	li	t0, 32
80006e88: 57 40 03 5e  	<unknown>
80006e8c: d7 c0 02 5e  	<unknown>
80006e90: ef e0 cf c5  	jal	0x800052ec <printf_putcf>
80006e94: 6f 00 40 00  	j	0x80006e98 <.LBB14_11>

80006e98 <.LBB14_11>:
80006e98: 83 22 c2 ff  	lw	t0, -4(tp)
80006e9c: 93 82 12 00  	addi	t0, t0, 1
80006ea0: 23 2e 52 fe  	sw	t0, -4(tp)
80006ea4: 6f f0 df fb  	j	0x80006e60 <.LBB14_8>

80006ea8 <.LBB14_12>:
80006ea8: 83 20 c1 ff  	lw	ra, -4(sp)
80006eac: 0b c0 00 04  	barrier	x0, x0, 1
80006eb0: 13 01 c1 ff  	addi	sp, sp, -4
80006eb4: 13 02 82 fe  	addi	tp, tp, -24
80006eb8: 67 80 00 00  	ret

80006ebc <printf_puts_rjust>:
80006ebc: 13 01 41 00  	addi	sp, sp, 4
80006ec0: 13 02 42 02  	addi	tp, tp, 36
80006ec4: 0b 20 10 00  	regext	zero, zero, 1
80006ec8: 57 40 02 5e  	<unknown>
80006ecc: 23 2e 11 fe  	sw	ra, -4(sp)
80006ed0: 0b 20 80 00  	regext	zero, zero, 8
80006ed4: 7b 6e 00 fc  	vsw12.v	v0, -36(v0)
80006ed8: 0b 20 80 00  	regext	zero, zero, 8
80006edc: 7b 60 10 fe  	vsw12.v	v1, -32(v0)
80006ee0: 0b 20 80 00  	regext	zero, zero, 8
80006ee4: 7b 62 20 fe  	vsw12.v	v2, -28(v0)
80006ee8: 0b 20 80 00  	regext	zero, zero, 8
80006eec: 7b 64 30 fe  	vsw12.v	v3, -24(v0)
80006ef0: 93 02 00 00  	li	t0, 0
80006ef4: 23 2a 52 fe  	sw	t0, -12(tp)
80006ef8: 23 2c 52 fe  	sw	t0, -8(tp)
80006efc: 83 22 82 fe  	lw	t0, -24(tp)
80006f00: 63 dc 02 00  	bgez	t0, 0x80006f18 <.LBB15_2>
80006f04: 6f 00 40 00  	j	0x80006f08 <.LBB15_1>

80006f08 <.LBB15_1>:
80006f08: b7 02 00 80  	lui	t0, 524288
80006f0c: 93 82 f2 ff  	addi	t0, t0, -1
80006f10: 23 24 52 fe  	sw	t0, -24(tp)
80006f14: 6f 00 40 00  	j	0x80006f18 <.LBB15_2>

80006f18 <.LBB15_2>:
80006f18: 83 22 02 fe  	lw	t0, -32(tp)
80006f1c: 23 2e 52 fe  	sw	t0, -4(tp)
80006f20: 6f 00 40 00  	j	0x80006f24 <.LBB15_3>

80006f24 <.LBB15_3>:
80006f24: 83 22 c2 ff  	lw	t0, -4(tp)
80006f28: 13 83 12 00  	addi	t1, t0, 1
80006f2c: 23 2e 62 fe  	sw	t1, -4(tp)
80006f30: 83 c2 02 00  	lbu	t0, 0(t0)
80006f34: 23 06 52 fe  	sb	t0, -20(tp)
80006f38: 63 8c 02 00  	beqz	t0, 0x80006f50 <.LBB15_5>
80006f3c: 6f 00 40 00  	j	0x80006f40 <.LBB15_4>

80006f40 <.LBB15_4>:
80006f40: 83 22 42 ff  	lw	t0, -12(tp)
80006f44: 93 82 12 00  	addi	t0, t0, 1
80006f48: 23 2a 52 fe  	sw	t0, -12(tp)
80006f4c: 6f f0 9f fd  	j	0x80006f24 <.LBB15_3>

80006f50 <.LBB15_5>:
80006f50: 83 22 42 ff  	lw	t0, -12(tp)
80006f54: 23 28 52 fe  	sw	t0, -16(tp)
80006f58: 6f 00 40 00  	j	0x80006f5c <.LBB15_6>

80006f5c <.LBB15_6>:
80006f5c: 83 22 02 ff  	lw	t0, -16(tp)
80006f60: 03 23 42 fe  	lw	t1, -28(tp)
80006f64: 63 d8 62 04  	bge	t0, t1, 0x80006fb4 <.LBB15_11>
80006f68: 6f 00 40 00  	j	0x80006f6c <.LBB15_7>

80006f6c <.LBB15_7>:
80006f6c: 83 22 82 ff  	lw	t0, -8(tp)
80006f70: 03 23 82 fe  	lw	t1, -24(tp)
80006f74: 63 d0 62 02  	bge	t0, t1, 0x80006f94 <.LBB15_9>
80006f78: 6f 00 40 00  	j	0x80006f7c <.LBB15_8>

80006f7c <.LBB15_8>:
80006f7c: 03 23 c2 fd  	lw	t1, -36(tp)
80006f80: 93 02 00 02  	li	t0, 32
80006f84: 57 40 03 5e  	<unknown>
80006f88: d7 c0 02 5e  	<unknown>
80006f8c: ef e0 0f b6  	jal	0x800052ec <printf_putcf>
80006f90: 6f 00 40 00  	j	0x80006f94 <.LBB15_9>

80006f94 <.LBB15_9>:
80006f94: 83 22 82 ff  	lw	t0, -8(tp)
80006f98: 93 82 12 00  	addi	t0, t0, 1
80006f9c: 23 2c 52 fe  	sw	t0, -8(tp)
80006fa0: 6f 00 40 00  	j	0x80006fa4 <.LBB15_10>

80006fa4 <.LBB15_10>:
80006fa4: 83 22 02 ff  	lw	t0, -16(tp)
80006fa8: 93 82 12 00  	addi	t0, t0, 1
80006fac: 23 28 52 fe  	sw	t0, -16(tp)
80006fb0: 6f f0 df fa  	j	0x80006f5c <.LBB15_6>

80006fb4 <.LBB15_11>:
80006fb4: 6f 00 40 00  	j	0x80006fb8 <.LBB15_12>

80006fb8 <.LBB15_12>:
80006fb8: 83 22 02 fe  	lw	t0, -32(tp)
80006fbc: 13 83 12 00  	addi	t1, t0, 1
80006fc0: 23 20 62 fe  	sw	t1, -32(tp)
80006fc4: 83 c2 02 00  	lbu	t0, 0(t0)
80006fc8: 23 06 52 fe  	sb	t0, -20(tp)
80006fcc: 63 80 02 04  	beqz	t0, 0x8000700c <.LBB15_16>
80006fd0: 6f 00 40 00  	j	0x80006fd4 <.LBB15_13>

80006fd4 <.LBB15_13>:
80006fd4: 83 22 82 ff  	lw	t0, -8(tp)
80006fd8: 03 23 82 fe  	lw	t1, -24(tp)
80006fdc: 63 d0 62 02  	bge	t0, t1, 0x80006ffc <.LBB15_15>
80006fe0: 6f 00 40 00  	j	0x80006fe4 <.LBB15_14>

80006fe4 <.LBB15_14>:
80006fe4: 03 23 c2 fd  	lw	t1, -36(tp)
80006fe8: 83 02 c2 fe  	lb	t0, -20(tp)
80006fec: 57 40 03 5e  	<unknown>
80006ff0: d7 c0 02 5e  	<unknown>
80006ff4: ef e0 8f af  	jal	0x800052ec <printf_putcf>
80006ff8: 6f 00 40 00  	j	0x80006ffc <.LBB15_15>

80006ffc <.LBB15_15>:
80006ffc: 83 22 82 ff  	lw	t0, -8(tp)
80007000: 93 82 12 00  	addi	t0, t0, 1
80007004: 23 2c 52 fe  	sw	t0, -8(tp)
80007008: 6f f0 1f fb  	j	0x80006fb8 <.LBB15_12>

8000700c <.LBB15_16>:
8000700c: 83 20 c1 ff  	lw	ra, -4(sp)
80007010: 0b c0 00 04  	barrier	x0, x0, 1
80007014: 13 01 c1 ff  	addi	sp, sp, -4
80007018: 13 02 c2 fd  	addi	tp, tp, -36
8000701c: 67 80 00 00  	ret

80007020 <printf_ptr>:
80007020: 13 01 41 00  	addi	sp, sp, 4
80007024: 13 02 82 00  	addi	tp, tp, 8
80007028: 0b 20 10 00  	regext	zero, zero, 1
8000702c: 57 40 02 5e  	<unknown>
80007030: 23 2e 11 fe  	sw	ra, -4(sp)
80007034: 0b 20 80 00  	regext	zero, zero, 8
80007038: 7b 6c 00 fe  	vsw12.v	v0, -8(v0)
8000703c: 0b 20 80 00  	regext	zero, zero, 8
80007040: 7b 6e 10 fe  	vsw12.v	v1, -4(v0)
80007044: 03 23 82 ff  	lw	t1, -8(tp)
80007048: 93 02 00 01  	li	t0, 16
8000704c: 23 2c 53 00  	sw	t0, 24(t1)
80007050: 03 23 82 ff  	lw	t1, -8(tp)
80007054: 83 42 c3 01  	lbu	t0, 28(t1)
80007058: 93 f2 72 0f  	andi	t0, t0, 247
8000705c: 23 0e 53 00  	sb	t0, 28(t1)
80007060: 03 23 82 ff  	lw	t1, -8(tp)
80007064: 83 02 c3 01  	lb	t0, 28(t1)
80007068: 93 e2 22 00  	ori	t0, t0, 2
8000706c: 23 0e 53 00  	sb	t0, 28(t1)
80007070: 03 23 82 ff  	lw	t1, -8(tp)
80007074: 83 42 c3 01  	lbu	t0, 28(t1)
80007078: 93 f2 f2 0d  	andi	t0, t0, 223
8000707c: 23 0e 53 00  	sb	t0, 28(t1)
80007080: 03 23 82 ff  	lw	t1, -8(tp)
80007084: 83 02 c3 01  	lb	t0, 28(t1)
80007088: 93 e2 02 08  	ori	t0, t0, 128
8000708c: 23 0e 53 00  	sb	t0, 28(t1)
80007090: 03 23 82 ff  	lw	t1, -8(tp)
80007094: 83 22 c2 ff  	lw	t0, -4(tp)
80007098: 57 40 03 5e  	<unknown>
8000709c: d7 c0 02 5e  	<unknown>
800070a0: ef e0 4f cb  	jal	0x80005554 <printf_ul16>
800070a4: 83 22 82 ff  	lw	t0, -8(tp)
800070a8: 57 c0 02 5e  	<unknown>
800070ac: ef f0 df 81  	jal	0x800068c8 <printf_putchw>
800070b0: 83 20 c1 ff  	lw	ra, -4(sp)
800070b4: 0b c0 00 04  	barrier	x0, x0, 1
800070b8: 13 01 c1 ff  	addi	sp, sp, -4
800070bc: 13 02 82 ff  	addi	tp, tp, -8
800070c0: 67 80 00 00  	ret

800070c4 <printf_nonfinite>:
800070c4: 13 01 41 00  	addi	sp, sp, 4
800070c8: 13 02 02 01  	addi	tp, tp, 16
800070cc: 0b 20 10 00  	regext	zero, zero, 1
800070d0: 57 40 02 5e  	<unknown>
800070d4: 23 2e 11 fe  	sw	ra, -4(sp)
800070d8: 0b 20 80 00  	regext	zero, zero, 8
800070dc: 7b 68 00 fe  	vsw12.v	v0, -16(v0)
800070e0: 0b 20 80 00  	regext	zero, zero, 8
800070e4: 7b 6a 10 fe  	vsw12.v	v1, -12(v0)
800070e8: 83 22 02 ff  	lw	t0, -16(tp)
800070ec: 83 a2 02 00  	lw	t0, 0(t0)
800070f0: 23 2e 52 fe  	sw	t0, -4(tp)
800070f4: 6f 00 40 00  	j	0x800070f8 <.LBB17_1>

800070f8 <.LBB17_1>:
800070f8: 83 22 42 ff  	lw	t0, -12(tp)
800070fc: 13 83 12 00  	addi	t1, t0, 1
80007100: 23 2a 62 fe  	sw	t1, -12(tp)
80007104: 83 c2 02 00  	lbu	t0, 0(t0)
80007108: 23 0c 52 fe  	sb	t0, -8(tp)
8000710c: 63 80 02 02  	beqz	t0, 0x8000712c <.LBB17_3>
80007110: 6f 00 40 00  	j	0x80007114 <.LBB17_2>

80007114 <.LBB17_2>:
80007114: 83 02 82 ff  	lb	t0, -8(tp)
80007118: 03 23 c2 ff  	lw	t1, -4(tp)
8000711c: 93 03 13 00  	addi	t2, t1, 1
80007120: 23 2e 72 fe  	sw	t2, -4(tp)
80007124: 23 00 53 00  	sb	t0, 0(t1)
80007128: 6f f0 1f fd  	j	0x800070f8 <.LBB17_1>

8000712c <.LBB17_3>:
8000712c: 03 23 c2 ff  	lw	t1, -4(tp)
80007130: 93 02 00 00  	li	t0, 0
80007134: 23 00 53 00  	sb	t0, 0(t1)
80007138: 03 23 02 ff  	lw	t1, -16(tp)
8000713c: 83 42 c3 01  	lbu	t0, 28(t1)
80007140: 93 f2 e2 0f  	andi	t0, t0, 254
80007144: 23 0e 53 00  	sb	t0, 28(t1)
80007148: 83 22 02 ff  	lw	t0, -16(tp)
8000714c: 57 c0 02 5e  	<unknown>
80007150: ef f0 8f f7  	jal	0x800068c8 <printf_putchw>
80007154: 83 20 c1 ff  	lw	ra, -4(sp)
80007158: 0b c0 00 04  	barrier	x0, x0, 1
8000715c: 13 01 c1 ff  	addi	sp, sp, -4
80007160: 13 02 02 ff  	addi	tp, tp, -16
80007164: 67 80 00 00  	ret

80007168 <printf_ulong>:
80007168: 13 01 41 00  	addi	sp, sp, 4
8000716c: 13 02 82 00  	addi	tp, tp, 8
80007170: 0b 20 10 00  	regext	zero, zero, 1
80007174: 57 40 02 5e  	<unknown>
80007178: 23 2e 11 fe  	sw	ra, -4(sp)
8000717c: 0b 20 80 00  	regext	zero, zero, 8
80007180: 7b 6c 00 fe  	vsw12.v	v0, -8(v0)
80007184: 0b 20 80 00  	regext	zero, zero, 8
80007188: 7b 6e 10 fe  	vsw12.v	v1, -4(v0)
8000718c: 83 22 82 ff  	lw	t0, -8(tp)
80007190: 83 a2 82 01  	lw	t0, 24(t0)
80007194: 13 03 00 01  	li	t1, 16
80007198: 63 90 62 04  	bne	t0, t1, 0x800071d8 <.LBB18_2>
8000719c: 6f 00 40 00  	j	0x800071a0 <.LBB18_1>

800071a0 <.LBB18_1>:
800071a0: 83 22 c2 ff  	lw	t0, -4(tp)
800071a4: b3 33 50 00  	snez	t2, t0
800071a8: 03 23 82 ff  	lw	t1, -8(tp)
800071ac: 83 42 c3 01  	lbu	t0, 28(t1)
800071b0: 93 93 73 00  	slli	t2, t2, 7
800071b4: 93 f2 f2 07  	andi	t0, t0, 127
800071b8: b3 e2 72 00  	or	t0, t0, t2
800071bc: 23 0e 53 00  	sb	t0, 28(t1)
800071c0: 03 23 82 ff  	lw	t1, -8(tp)
800071c4: 83 22 c2 ff  	lw	t0, -4(tp)
800071c8: 57 40 03 5e  	<unknown>
800071cc: d7 c0 02 5e  	<unknown>
800071d0: ef e0 4f b8  	jal	0x80005554 <printf_ul16>
800071d4: 6f 00 c0 01  	j	0x800071f0 <.LBB18_3>

800071d8 <.LBB18_2>:
800071d8: 03 23 82 ff  	lw	t1, -8(tp)
800071dc: 83 22 c2 ff  	lw	t0, -4(tp)
800071e0: 57 40 03 5e  	<unknown>
800071e4: d7 c0 02 5e  	<unknown>
800071e8: ef e0 4f a0  	jal	0x800053ec <printf_ul_base>
800071ec: 6f 00 40 00  	j	0x800071f0 <.LBB18_3>

800071f0 <.LBB18_3>:
800071f0: 83 22 82 ff  	lw	t0, -8(tp)
800071f4: 57 c0 02 5e  	<unknown>
800071f8: ef f0 0f ed  	jal	0x800068c8 <printf_putchw>
800071fc: 83 20 c1 ff  	lw	ra, -4(sp)
80007200: 0b c0 00 04  	barrier	x0, x0, 1
80007204: 13 01 c1 ff  	addi	sp, sp, -4
80007208: 13 02 82 ff  	addi	tp, tp, -8
8000720c: 67 80 00 00  	ret

80007210 <printf_long>:
80007210: 13 01 41 00  	addi	sp, sp, 4
80007214: 13 02 82 00  	addi	tp, tp, 8
80007218: 0b 20 10 00  	regext	zero, zero, 1
8000721c: 57 40 02 5e  	<unknown>
80007220: 23 2e 11 fe  	sw	ra, -4(sp)
80007224: 0b 20 80 00  	regext	zero, zero, 8
80007228: 7b 6c 00 fe  	vsw12.v	v0, -8(v0)
8000722c: 0b 20 80 00  	regext	zero, zero, 8
80007230: 7b 6e 10 fe  	vsw12.v	v1, -4(v0)
80007234: 03 23 82 ff  	lw	t1, -8(tp)
80007238: 83 22 c2 ff  	lw	t0, -4(tp)
8000723c: 57 40 03 5e  	<unknown>
80007240: d7 c0 02 5e  	<unknown>
80007244: ef e0 0f ce  	jal	0x80005724 <printf_l_base>
80007248: 83 22 82 ff  	lw	t0, -8(tp)
8000724c: 57 c0 02 5e  	<unknown>
80007250: ef f0 8f e7  	jal	0x800068c8 <printf_putchw>
80007254: 83 20 c1 ff  	lw	ra, -4(sp)
80007258: 0b c0 00 04  	barrier	x0, x0, 1
8000725c: 13 01 c1 ff  	addi	sp, sp, -4
80007260: 13 02 82 ff  	addi	tp, tp, -8
80007264: 67 80 00 00  	ret

80007268 <printf_float>:
80007268: 13 01 81 00  	addi	sp, sp, 8
8000726c: 13 02 c2 4d  	addi	tp, tp, 1244
80007270: 0b 20 10 00  	regext	zero, zero, 1
80007274: 57 40 02 5e  	<unknown>
80007278: 23 2c 11 fe  	sw	ra, -8(sp)
8000727c: 0b 20 80 00  	regext	zero, zero, 8
80007280: 7b 60 00 32  	vsw12.v	v0, 800(v0)
80007284: 0b 20 80 00  	regext	zero, zero, 8
80007288: 7b 62 10 32  	vsw12.v	v1, 804(v0)
8000728c: 93 02 00 00  	li	t0, 0
80007290: 23 24 52 32  	sw	t0, 808(tp)
80007294: 83 22 02 32  	lw	t0, 800(tp)
80007298: 83 a2 02 01  	lw	t0, 16(t0)
8000729c: 63 98 02 02  	bnez	t0, 0x800072cc <.LBB20_4>
800072a0: 6f 00 40 00  	j	0x800072a4 <.LBB20_1>

800072a4 <.LBB20_1>:
800072a4: 83 22 02 32  	lw	t0, 800(tp)
800072a8: 83 82 c2 01  	lb	t0, 28(t0)
800072ac: 93 92 e2 01  	slli	t0, t0, 30
800072b0: 93 d2 f2 41  	srai	t0, t0, 31
800072b4: 63 8a 02 00  	beqz	t0, 0x800072c8 <.LBB20_3>
800072b8: 6f 00 40 00  	j	0x800072bc <.LBB20_2>

800072bc <.LBB20_2>:
800072bc: 93 02 10 00  	li	t0, 1
800072c0: 23 24 52 32  	sw	t0, 808(tp)
800072c4: 6f 00 40 00  	j	0x800072c8 <.LBB20_3>

800072c8 <.LBB20_3>:
800072c8: 6f 00 40 00  	j	0x800072cc <.LBB20_4>

800072cc <.LBB20_4>:
800072cc: 83 23 42 32  	lw	t2, 804(tp)
800072d0: 03 23 02 32  	lw	t1, 800(tp)
800072d4: 83 42 c3 01  	lbu	t0, 28(t1)
800072d8: 93 d3 a3 01  	srli	t2, t2, 26
800072dc: 93 f3 03 02  	andi	t2, t2, 32
800072e0: 93 f2 f2 0d  	andi	t0, t0, 223
800072e4: b3 e2 72 00  	or	t0, t0, t2
800072e8: 23 0e 53 00  	sb	t0, 28(t1)
800072ec: 83 22 02 32  	lw	t0, 800(tp)
800072f0: 83 82 c2 01  	lb	t0, 28(t0)
800072f4: 93 92 a2 01  	slli	t0, t0, 26
800072f8: 93 d2 f2 41  	srai	t0, t0, 31
800072fc: 63 8e 02 00  	beqz	t0, 0x80007318 <.LBB20_6>
80007300: 6f 00 40 00  	j	0x80007304 <.LBB20_5>

80007304 <.LBB20_5>:
80007304: 83 22 42 32  	lw	t0, 804(tp)
80007308: 37 03 00 80  	lui	t1, 524288
8000730c: b3 c2 62 00  	xor	t0, t0, t1
80007310: 23 22 52 32  	sw	t0, 804(tp)
80007314: 6f 00 40 00  	j	0x80007318 <.LBB20_6>

80007318 <.LBB20_6>:
80007318: 83 22 02 32  	lw	t0, 800(tp)
8000731c: 83 82 d2 01  	lb	t0, 29(t0)
80007320: 13 03 10 06  	li	t1, 97
80007324: 63 9a 62 02  	bne	t0, t1, 0x80007358 <.LBB20_8>
80007328: 6f 00 40 00  	j	0x8000732c <.LBB20_7>

8000732c <.LBB20_7>:
8000732c: 83 23 02 32  	lw	t2, 800(tp)
80007330: 03 23 82 32  	lw	t1, 808(tp)
80007334: 83 22 42 32  	lw	t0, 804(tp)
80007338: 57 c0 03 5e  	<unknown>
8000733c: d7 40 03 5e  	<unknown>
80007340: 57 c1 02 5e  	<unknown>
80007344: ef e0 9f 95  	jal	0x80005c9c <printf_float_a>
80007348: 83 22 02 32  	lw	t0, 800(tp)
8000734c: 57 c0 02 5e  	<unknown>
80007350: ef f0 8f d7  	jal	0x800068c8 <printf_putchw>
80007354: 6f 00 c0 37  	j	0x800076d0 <.LBB20_33>

80007358 <.LBB20_8>:
80007358: 93 02 02 00  	mv	t0, tp
8000735c: 23 2e 52 fc  	sw	t0, -36(tp)
80007360: 93 02 00 00  	li	t0, 0
80007364: 23 26 52 fe  	sw	t0, -20(tp)
80007368: 23 28 52 fe  	sw	t0, -16(tp)
8000736c: 83 22 02 32  	lw	t0, 800(tp)
80007370: 83 a2 02 01  	lw	t0, 16(t0)
80007374: 23 2a 52 fe  	sw	t0, -12(tp)
80007378: 83 22 02 32  	lw	t0, 800(tp)
8000737c: 83 a2 02 01  	lw	t0, 16(t0)
80007380: 63 dc 02 00  	bgez	t0, 0x80007398 <.LBB20_10>
80007384: 6f 00 40 00  	j	0x80007388 <.LBB20_9>

80007388 <.LBB20_9>:
80007388: 03 23 02 32  	lw	t1, 800(tp)
8000738c: 93 02 60 00  	li	t0, 6
80007390: 23 28 53 00  	sw	t0, 16(t1)
80007394: 6f 00 40 00  	j	0x80007398 <.LBB20_10>

80007398 <.LBB20_10>:
80007398: 83 22 42 32  	lw	t0, 804(tp)
8000739c: 37 83 01 80  	lui	t1, 524312
800073a0: 03 23 43 25  	lw	t1, 596(t1)
800073a4: d3 a2 62 a0  	feq.s	t0, t0, t1
800073a8: 93 c2 12 00  	xori	t0, t0, 1
800073ac: 23 2c 52 fe  	sw	t0, -8(tp)
800073b0: 93 02 00 03  	li	t0, 48
800073b4: 23 06 52 32  	sb	t0, 812(tp)
800073b8: 93 02 00 00  	li	t0, 0
800073bc: a3 06 52 32  	sb	t0, 813(tp)
800073c0: 83 22 82 ff  	lw	t0, -8(tp)
800073c4: 63 84 02 02  	beqz	t0, 0x800073ec <.LBB20_12>
800073c8: 6f 00 40 00  	j	0x800073cc <.LBB20_11>

800073cc <.LBB20_11>:
800073cc: 03 23 42 32  	lw	t1, 804(tp)
800073d0: 93 02 02 00  	mv	t0, tp
800073d4: 57 40 03 5e  	<unknown>
800073d8: d7 c0 02 5e  	<unknown>
800073dc: ef d0 1f ec  	jal	0x8000529c <generate_float_digits>
800073e0: 0b 20 80 00  	regext	zero, zero, 8
800073e4: 7b 68 00 fe  	vsw12.v	v0, -16(v0)
800073e8: 6f 00 40 00  	j	0x800073ec <.LBB20_12>

800073ec <.LBB20_12>:
800073ec: 83 22 02 ff  	lw	t0, -16(tp)
800073f0: 93 82 12 00  	addi	t0, t0, 1
800073f4: 23 26 52 fe  	sw	t0, -20(tp)
800073f8: 83 22 02 32  	lw	t0, 800(tp)
800073fc: 83 82 d2 01  	lb	t0, 29(t0)
80007400: 23 2c 51 cc  	sw	t0, -808(sp)
80007404: 13 03 50 06  	li	t1, 101
80007408: 63 84 62 02  	beq	t0, t1, 0x80007430 <.LBB20_15>
8000740c: 6f 00 40 00  	j	0x80007410 <.LBB20_13>

80007410 <.LBB20_13>:
80007410: 83 22 81 cd  	lw	t0, -808(sp)
80007414: 13 03 60 06  	li	t1, 102
80007418: 63 88 62 08  	beq	t0, t1, 0x800074a8 <.LBB20_18>
8000741c: 6f 00 40 00  	j	0x80007420 <.LBB20_14>

80007420 <.LBB20_14>:
80007420: 83 22 81 cd  	lw	t0, -808(sp)
80007424: 13 03 70 06  	li	t1, 103
80007428: 63 8c 62 0e  	beq	t0, t1, 0x80007520 <.LBB20_21>
8000742c: 6f 00 80 28  	j	0x800076b4 <.LBB20_32>

80007430 <.LBB20_15>:
80007430: 83 22 82 ff  	lw	t0, -8(tp)
80007434: 63 82 02 04  	beqz	t0, 0x80007478 <.LBB20_17>
80007438: 6f 00 40 00  	j	0x8000743c <.LBB20_16>

8000743c <.LBB20_16>:
8000743c: 83 24 42 32  	lw	s1, 804(tp)
80007440: 83 22 02 32  	lw	t0, 800(tp)
80007444: 03 a3 02 01  	lw	t1, 16(t0)
80007448: 13 04 02 00  	mv	s0, tp
8000744c: 93 03 c2 fe  	addi	t2, tp, -20
80007450: 93 02 10 00  	li	t0, 1
80007454: 57 c0 04 5e  	<unknown>
80007458: d7 40 04 5e  	<unknown>
8000745c: 57 c1 03 5e  	<unknown>
80007460: d7 41 03 5e  	<unknown>
80007464: 57 c2 02 5e  	<unknown>
80007468: ef e0 5f da  	jal	0x8000620c <printf_float_round_buf>
8000746c: 0b 20 80 00  	regext	zero, zero, 8
80007470: 7b 6e 00 fc  	vsw12.v	v0, -36(v0)
80007474: 6f 00 40 00  	j	0x80007478 <.LBB20_17>

80007478 <.LBB20_17>:
80007478: 83 24 02 32  	lw	s1, 800(tp)
8000747c: 03 24 c2 fd  	lw	s0, -36(tp)
80007480: 83 23 c2 fe  	lw	t2, -20(tp)
80007484: 03 23 82 32  	lw	t1, 808(tp)
80007488: 93 02 00 00  	li	t0, 0
8000748c: 57 c0 04 5e  	<unknown>
80007490: d7 40 04 5e  	<unknown>
80007494: 57 c1 03 5e  	<unknown>
80007498: d7 41 03 5e  	<unknown>
8000749c: 57 c2 02 5e  	<unknown>
800074a0: ef e0 df e3  	jal	0x800062dc <printf_float_e>
800074a4: 6f 00 00 21  	j	0x800076b4 <.LBB20_32>

800074a8 <.LBB20_18>:
800074a8: 83 22 82 ff  	lw	t0, -8(tp)
800074ac: 63 82 02 04  	beqz	t0, 0x800074f0 <.LBB20_20>
800074b0: 6f 00 40 00  	j	0x800074b4 <.LBB20_19>

800074b4 <.LBB20_19>:
800074b4: 83 24 42 32  	lw	s1, 804(tp)
800074b8: 83 22 02 32  	lw	t0, 800(tp)
800074bc: 03 a3 02 01  	lw	t1, 16(t0)
800074c0: 13 04 02 00  	mv	s0, tp
800074c4: 93 03 c2 fe  	addi	t2, tp, -20
800074c8: 93 02 00 00  	li	t0, 0
800074cc: 57 c0 04 5e  	<unknown>
800074d0: d7 40 04 5e  	<unknown>
800074d4: 57 c1 03 5e  	<unknown>
800074d8: d7 41 03 5e  	<unknown>
800074dc: 57 c2 02 5e  	<unknown>
800074e0: ef e0 df d2  	jal	0x8000620c <printf_float_round_buf>
800074e4: 0b 20 80 00  	regext	zero, zero, 8
800074e8: 7b 6e 00 fc  	vsw12.v	v0, -36(v0)
800074ec: 6f 00 40 00  	j	0x800074f0 <.LBB20_20>

800074f0 <.LBB20_20>:
800074f0: 83 24 02 32  	lw	s1, 800(tp)
800074f4: 03 24 c2 fd  	lw	s0, -36(tp)
800074f8: 83 23 c2 fe  	lw	t2, -20(tp)
800074fc: 03 23 82 32  	lw	t1, 808(tp)
80007500: 93 02 00 00  	li	t0, 0
80007504: 57 c0 04 5e  	<unknown>
80007508: d7 40 04 5e  	<unknown>
8000750c: 57 c1 03 5e  	<unknown>
80007510: d7 41 03 5e  	<unknown>
80007514: 57 c2 02 5e  	<unknown>
80007518: ef f0 8f 84  	jal	0x80006560 <printf_float_f>
8000751c: 6f 00 80 19  	j	0x800076b4 <.LBB20_32>

80007520 <.LBB20_21>:
80007520: 83 22 02 32  	lw	t0, 800(tp)
80007524: 83 82 c2 01  	lb	t0, 28(t0)
80007528: 93 92 e2 01  	slli	t0, t0, 30
8000752c: 93 d2 82 41  	srai	t0, t0, 24
80007530: 93 d2 72 00  	srli	t0, t0, 7
80007534: 93 f2 f2 0f  	andi	t0, t0, 255
80007538: 93 b2 12 00  	seqz	t0, t0
8000753c: 23 24 52 fe  	sw	t0, -24(tp)
80007540: 83 22 02 32  	lw	t0, 800(tp)
80007544: 83 a2 02 01  	lw	t0, 16(t0)
80007548: 23 20 52 fe  	sw	t0, -32(tp)
8000754c: 83 22 02 fe  	lw	t0, -32(tp)
80007550: 63 9a 02 00  	bnez	t0, 0x80007564 <.LBB20_23>
80007554: 6f 00 40 00  	j	0x80007558 <.LBB20_22>

80007558 <.LBB20_22>:
80007558: 93 02 10 00  	li	t0, 1
8000755c: 23 20 52 fe  	sw	t0, -32(tp)
80007560: 6f 00 40 00  	j	0x80007564 <.LBB20_23>

80007564 <.LBB20_23>:
80007564: 83 22 02 ff  	lw	t0, -16(tp)
80007568: 13 03 10 00  	li	t1, 1
8000756c: b3 82 62 40  	sub	t0, t0, t1
80007570: 23 22 52 fe  	sw	t0, -28(tp)
80007574: 03 23 02 fe  	lw	t1, -32(tp)
80007578: 83 22 42 fe  	lw	t0, -28(tp)
8000757c: 63 d4 62 0a  	bge	t0, t1, 0x80007624 <.LBB20_28>
80007580: 6f 00 40 00  	j	0x80007584 <.LBB20_24>

80007584 <.LBB20_24>:
80007584: 83 22 42 fe  	lw	t0, -28(tp)
80007588: 13 03 c0 ff  	li	t1, -4
8000758c: 63 cc 62 08  	blt	t0, t1, 0x80007624 <.LBB20_28>
80007590: 6f 00 40 00  	j	0x80007594 <.LBB20_25>

80007594 <.LBB20_25>:
80007594: 03 23 02 fe  	lw	t1, -32(tp)
80007598: 83 22 42 fe  	lw	t0, -28(tp)
8000759c: 93 c2 f2 ff  	not	t0, t0
800075a0: b3 82 62 00  	add	t0, t0, t1
800075a4: 03 23 02 32  	lw	t1, 800(tp)
800075a8: 23 28 53 00  	sw	t0, 16(t1)
800075ac: 83 22 82 ff  	lw	t0, -8(tp)
800075b0: 63 82 02 04  	beqz	t0, 0x800075f4 <.LBB20_27>
800075b4: 6f 00 40 00  	j	0x800075b8 <.LBB20_26>

800075b8 <.LBB20_26>:
800075b8: 83 24 42 32  	lw	s1, 804(tp)
800075bc: 83 22 02 32  	lw	t0, 800(tp)
800075c0: 03 a3 02 01  	lw	t1, 16(t0)
800075c4: 13 04 02 00  	mv	s0, tp
800075c8: 93 03 c2 fe  	addi	t2, tp, -20
800075cc: 93 02 00 00  	li	t0, 0
800075d0: 57 c0 04 5e  	<unknown>
800075d4: d7 40 04 5e  	<unknown>
800075d8: 57 c1 03 5e  	<unknown>
800075dc: d7 41 03 5e  	<unknown>
800075e0: 57 c2 02 5e  	<unknown>
800075e4: ef e0 9f c2  	jal	0x8000620c <printf_float_round_buf>
800075e8: 0b 20 80 00  	regext	zero, zero, 8
800075ec: 7b 6e 00 fc  	vsw12.v	v0, -36(v0)
800075f0: 6f 00 40 00  	j	0x800075f4 <.LBB20_27>

800075f4 <.LBB20_27>:
800075f4: 83 24 02 32  	lw	s1, 800(tp)
800075f8: 03 24 c2 fd  	lw	s0, -36(tp)
800075fc: 83 23 c2 fe  	lw	t2, -20(tp)
80007600: 03 23 82 32  	lw	t1, 808(tp)
80007604: 83 22 82 fe  	lw	t0, -24(tp)
80007608: 57 c0 04 5e  	<unknown>
8000760c: d7 40 04 5e  	<unknown>
80007610: 57 c1 03 5e  	<unknown>
80007614: d7 41 03 5e  	<unknown>
80007618: 57 c2 02 5e  	<unknown>
8000761c: ef e0 5f f4  	jal	0x80006560 <printf_float_f>
80007620: 6f 00 00 09  	j	0x800076b0 <.LBB20_31>

80007624 <.LBB20_28>:
80007624: 83 22 02 fe  	lw	t0, -32(tp)
80007628: 13 03 10 00  	li	t1, 1
8000762c: b3 82 62 40  	sub	t0, t0, t1
80007630: 03 23 02 32  	lw	t1, 800(tp)
80007634: 23 28 53 00  	sw	t0, 16(t1)
80007638: 83 22 82 ff  	lw	t0, -8(tp)
8000763c: 63 82 02 04  	beqz	t0, 0x80007680 <.LBB20_30>
80007640: 6f 00 40 00  	j	0x80007644 <.LBB20_29>

80007644 <.LBB20_29>:
80007644: 83 24 42 32  	lw	s1, 804(tp)
80007648: 83 22 02 32  	lw	t0, 800(tp)
8000764c: 03 a3 02 01  	lw	t1, 16(t0)
80007650: 13 04 02 00  	mv	s0, tp
80007654: 93 03 c2 fe  	addi	t2, tp, -20
80007658: 93 02 10 00  	li	t0, 1
8000765c: 57 c0 04 5e  	<unknown>
80007660: d7 40 04 5e  	<unknown>
80007664: 57 c1 03 5e  	<unknown>
80007668: d7 41 03 5e  	<unknown>
8000766c: 57 c2 02 5e  	<unknown>
80007670: ef e0 df b9  	jal	0x8000620c <printf_float_round_buf>
80007674: 0b 20 80 00  	regext	zero, zero, 8
80007678: 7b 6e 00 fc  	vsw12.v	v0, -36(v0)
8000767c: 6f 00 40 00  	j	0x80007680 <.LBB20_30>

80007680 <.LBB20_30>:
80007680: 83 24 02 32  	lw	s1, 800(tp)
80007684: 03 24 c2 fd  	lw	s0, -36(tp)
80007688: 83 23 c2 fe  	lw	t2, -20(tp)
8000768c: 03 23 82 32  	lw	t1, 808(tp)
80007690: 83 22 82 fe  	lw	t0, -24(tp)
80007694: 57 c0 04 5e  	<unknown>
80007698: d7 40 04 5e  	<unknown>
8000769c: 57 c1 03 5e  	<unknown>
800076a0: d7 41 03 5e  	<unknown>
800076a4: 57 c2 02 5e  	<unknown>
800076a8: ef e0 5f c3  	jal	0x800062dc <printf_float_e>
800076ac: 6f 00 40 00  	j	0x800076b0 <.LBB20_31>

800076b0 <.LBB20_31>:
800076b0: 6f 00 40 00  	j	0x800076b4 <.LBB20_32>

800076b4 <.LBB20_32>:
800076b4: 83 22 42 ff  	lw	t0, -12(tp)
800076b8: 03 23 02 32  	lw	t1, 800(tp)
800076bc: 23 28 53 00  	sw	t0, 16(t1)
800076c0: 83 22 02 32  	lw	t0, 800(tp)
800076c4: 57 c0 02 5e  	<unknown>
800076c8: ef f0 0f a0  	jal	0x800068c8 <printf_putchw>
800076cc: 6f 00 40 00  	j	0x800076d0 <.LBB20_33>

800076d0 <.LBB20_33>:
800076d0: 83 20 81 ff  	lw	ra, -8(sp)
800076d4: 0b c0 00 04  	barrier	x0, x0, 1
800076d8: 13 01 81 ff  	addi	sp, sp, -8
800076dc: 13 02 42 b2  	addi	tp, tp, -1244
800076e0: 67 80 00 00  	ret

800076e4 <u32toa>:
800076e4: 13 01 81 00  	addi	sp, sp, 8
800076e8: 13 02 82 04  	addi	tp, tp, 72
800076ec: 0b 20 10 00  	regext	zero, zero, 1
800076f0: 57 40 02 5e  	<unknown>
800076f4: 23 2c 11 fe  	sw	ra, -8(sp)
800076f8: 0b 20 80 00  	regext	zero, zero, 8
800076fc: 7b 6a 00 fa  	vsw12.v	v0, -76(v0)
80007700: 0b 20 80 00  	regext	zero, zero, 8
80007704: 7b 6c 10 fa  	vsw12.v	v1, -72(v0)
80007708: 03 23 42 fb  	lw	t1, -76(tp)
8000770c: b7 22 00 00  	lui	t0, 2
80007710: 93 82 f2 70  	addi	t0, t0, 1807
80007714: 63 c2 62 12  	blt	t0, t1, 0x80007838 <.LBB0_8>
80007718: 6f 00 40 00  	j	0x8000771c <.LBB0_1>

8000771c <.LBB0_1>:
8000771c: 83 22 42 fb  	lw	t0, -76(tp)
80007720: 37 83 eb 51  	lui	t1, 335544
80007724: 13 03 f3 51  	addi	t1, t1, 1311
80007728: b3 92 62 02  	mulh	t0, t0, t1
8000772c: 93 d3 f2 01  	srli	t2, t0, 31
80007730: 93 d2 52 40  	srai	t0, t0, 5
80007734: b3 82 72 00  	add	t0, t0, t2
80007738: 93 92 12 00  	slli	t0, t0, 1
8000773c: 23 2e 52 fa  	sw	t0, -68(tp)
80007740: 83 22 42 fb  	lw	t0, -76(tp)
80007744: 33 93 62 02  	mulh	t1, t0, t1
80007748: 93 53 f3 01  	srli	t2, t1, 31
8000774c: 13 53 53 40  	srai	t1, t1, 5
80007750: 33 03 73 00  	add	t1, t1, t2
80007754: 93 03 40 06  	li	t2, 100
80007758: 33 03 73 02  	mul	t1, t1, t2
8000775c: b3 82 62 40  	sub	t0, t0, t1
80007760: 93 92 12 00  	slli	t0, t0, 1
80007764: 23 20 52 fc  	sw	t0, -64(tp)
80007768: 83 22 42 fb  	lw	t0, -76(tp)
8000776c: 13 03 80 3e  	li	t1, 1000
80007770: 63 c8 62 02  	blt	t0, t1, 0x800077a0 <.LBB0_3>
80007774: 6f 00 40 00  	j	0x80007778 <.LBB0_2>

80007778 <.LBB0_2>:
80007778: 03 23 c2 fb  	lw	t1, -68(tp)
8000777c: b7 12 01 80  	lui	t0, 524305
80007780: 93 82 82 5e  	addi	t0, t0, 1512
80007784: b3 82 62 00  	add	t0, t0, t1
80007788: 83 82 02 00  	lb	t0, 0(t0)
8000778c: 03 23 82 fb  	lw	t1, -72(tp)
80007790: 93 03 13 00  	addi	t2, t1, 1
80007794: 23 2c 72 fa  	sw	t2, -72(tp)
80007798: 23 00 53 00  	sb	t0, 0(t1)
8000779c: 6f 00 40 00  	j	0x800077a0 <.LBB0_3>

800077a0 <.LBB0_3>:
800077a0: 83 22 42 fb  	lw	t0, -76(tp)
800077a4: 13 03 40 06  	li	t1, 100
800077a8: 63 c8 62 02  	blt	t0, t1, 0x800077d8 <.LBB0_5>
800077ac: 6f 00 40 00  	j	0x800077b0 <.LBB0_4>

800077b0 <.LBB0_4>:
800077b0: 83 22 c2 fb  	lw	t0, -68(tp)
800077b4: 37 13 01 80  	lui	t1, 524305
800077b8: 13 03 83 5e  	addi	t1, t1, 1512
800077bc: b3 82 62 00  	add	t0, t0, t1
800077c0: 83 82 12 00  	lb	t0, 1(t0)
800077c4: 03 23 82 fb  	lw	t1, -72(tp)
800077c8: 93 03 13 00  	addi	t2, t1, 1
800077cc: 23 2c 72 fa  	sw	t2, -72(tp)
800077d0: 23 00 53 00  	sb	t0, 0(t1)
800077d4: 6f 00 40 00  	j	0x800077d8 <.LBB0_5>

800077d8 <.LBB0_5>:
800077d8: 83 22 42 fb  	lw	t0, -76(tp)
800077dc: 13 03 a0 00  	li	t1, 10
800077e0: 63 c8 62 02  	blt	t0, t1, 0x80007810 <.LBB0_7>
800077e4: 6f 00 40 00  	j	0x800077e8 <.LBB0_6>

800077e8 <.LBB0_6>:
800077e8: 03 23 02 fc  	lw	t1, -64(tp)
800077ec: b7 12 01 80  	lui	t0, 524305
800077f0: 93 82 82 5e  	addi	t0, t0, 1512
800077f4: b3 82 62 00  	add	t0, t0, t1
800077f8: 83 82 02 00  	lb	t0, 0(t0)
800077fc: 03 23 82 fb  	lw	t1, -72(tp)
80007800: 93 03 13 00  	addi	t2, t1, 1
80007804: 23 2c 72 fa  	sw	t2, -72(tp)
80007808: 23 00 53 00  	sb	t0, 0(t1)
8000780c: 6f 00 40 00  	j	0x80007810 <.LBB0_7>

80007810 <.LBB0_7>:
80007810: 83 22 02 fc  	lw	t0, -64(tp)
80007814: 37 13 01 80  	lui	t1, 524305
80007818: 13 03 83 5e  	addi	t1, t1, 1512
8000781c: b3 82 62 00  	add	t0, t0, t1
80007820: 83 82 12 00  	lb	t0, 1(t0)
80007824: 03 23 82 fb  	lw	t1, -72(tp)
80007828: 93 03 13 00  	addi	t2, t1, 1
8000782c: 23 2c 72 fa  	sw	t2, -72(tp)
80007830: 23 00 53 00  	sb	t0, 0(t1)
80007834: 6f 00 40 4c  	j	0x80007cf8 <.LBB0_21>

80007838 <.LBB0_8>:
80007838: 03 23 42 fb  	lw	t1, -76(tp)
8000783c: b7 e2 f5 05  	lui	t0, 24414
80007840: 93 82 f2 0f  	addi	t0, t0, 255
80007844: 63 c4 62 22  	blt	t0, t1, 0x80007a6c <.LBB0_16>
80007848: 6f 00 40 00  	j	0x8000784c <.LBB0_9>

8000784c <.LBB0_9>:
8000784c: 83 22 42 fb  	lw	t0, -76(tp)
80007850: 37 93 db 68  	lui	t1, 429497
80007854: 13 03 d3 ba  	addi	t1, t1, -1107
80007858: b3 92 62 02  	mulh	t0, t0, t1
8000785c: 93 d3 f2 01  	srli	t2, t0, 31
80007860: 93 d2 c2 40  	srai	t0, t0, 12
80007864: b3 82 72 00  	add	t0, t0, t2
80007868: 23 22 52 fc  	sw	t0, -60(tp)
8000786c: 83 22 42 fb  	lw	t0, -76(tp)
80007870: 33 93 62 02  	mulh	t1, t0, t1
80007874: 93 53 f3 01  	srli	t2, t1, 31
80007878: 13 53 c3 40  	srai	t1, t1, 12
8000787c: 33 03 73 00  	add	t1, t1, t2
80007880: b7 23 00 00  	lui	t2, 2
80007884: 93 83 03 71  	addi	t2, t2, 1808
80007888: 33 03 73 02  	mul	t1, t1, t2
8000788c: b3 82 62 40  	sub	t0, t0, t1
80007890: 23 24 52 fc  	sw	t0, -56(tp)
80007894: 83 22 42 fc  	lw	t0, -60(tp)
80007898: 37 83 eb 51  	lui	t1, 335544
8000789c: 13 03 f3 51  	addi	t1, t1, 1311
800078a0: b3 92 62 02  	mulh	t0, t0, t1
800078a4: 93 d3 f2 01  	srli	t2, t0, 31
800078a8: 93 d2 52 40  	srai	t0, t0, 5
800078ac: b3 82 72 00  	add	t0, t0, t2
800078b0: 93 92 12 00  	slli	t0, t0, 1
800078b4: 23 26 52 fc  	sw	t0, -52(tp)
800078b8: 83 22 42 fc  	lw	t0, -60(tp)
800078bc: b3 93 62 02  	mulh	t2, t0, t1
800078c0: 93 d4 f3 01  	srli	s1, t2, 31
800078c4: 93 d3 53 40  	srai	t2, t2, 5
800078c8: b3 84 93 00  	add	s1, t2, s1
800078cc: 93 03 40 06  	li	t2, 100
800078d0: b3 84 74 02  	mul	s1, s1, t2
800078d4: b3 82 92 40  	sub	t0, t0, s1
800078d8: 93 92 12 00  	slli	t0, t0, 1
800078dc: 23 28 52 fc  	sw	t0, -48(tp)
800078e0: 83 22 82 fc  	lw	t0, -56(tp)
800078e4: b3 92 62 02  	mulh	t0, t0, t1
800078e8: 93 d4 f2 01  	srli	s1, t0, 31
800078ec: 93 d2 52 40  	srai	t0, t0, 5
800078f0: b3 82 92 00  	add	t0, t0, s1
800078f4: 93 92 12 00  	slli	t0, t0, 1
800078f8: 23 2a 52 fc  	sw	t0, -44(tp)
800078fc: 83 22 82 fc  	lw	t0, -56(tp)
80007900: 33 93 62 02  	mulh	t1, t0, t1
80007904: 93 54 f3 01  	srli	s1, t1, 31
80007908: 13 53 53 40  	srai	t1, t1, 5
8000790c: 33 03 93 00  	add	t1, t1, s1
80007910: 33 03 73 02  	mul	t1, t1, t2
80007914: b3 82 62 40  	sub	t0, t0, t1
80007918: 93 92 12 00  	slli	t0, t0, 1
8000791c: 23 2c 52 fc  	sw	t0, -40(tp)
80007920: 83 22 42 fb  	lw	t0, -76(tp)
80007924: 37 93 98 00  	lui	t1, 2441
80007928: 13 03 03 68  	addi	t1, t1, 1664
8000792c: 63 c8 62 02  	blt	t0, t1, 0x8000795c <.LBB0_11>
80007930: 6f 00 40 00  	j	0x80007934 <.LBB0_10>

80007934 <.LBB0_10>:
80007934: 03 23 c2 fc  	lw	t1, -52(tp)
80007938: b7 12 01 80  	lui	t0, 524305
8000793c: 93 82 82 5e  	addi	t0, t0, 1512
80007940: b3 82 62 00  	add	t0, t0, t1
80007944: 83 82 02 00  	lb	t0, 0(t0)
80007948: 03 23 82 fb  	lw	t1, -72(tp)
8000794c: 93 03 13 00  	addi	t2, t1, 1
80007950: 23 2c 72 fa  	sw	t2, -72(tp)
80007954: 23 00 53 00  	sb	t0, 0(t1)
80007958: 6f 00 40 00  	j	0x8000795c <.LBB0_11>

8000795c <.LBB0_11>:
8000795c: 83 22 42 fb  	lw	t0, -76(tp)
80007960: 37 43 0f 00  	lui	t1, 244
80007964: 13 03 03 24  	addi	t1, t1, 576
80007968: 63 c8 62 02  	blt	t0, t1, 0x80007998 <.LBB0_13>
8000796c: 6f 00 40 00  	j	0x80007970 <.LBB0_12>

80007970 <.LBB0_12>:
80007970: 83 22 c2 fc  	lw	t0, -52(tp)
80007974: 37 13 01 80  	lui	t1, 524305
80007978: 13 03 83 5e  	addi	t1, t1, 1512
8000797c: b3 82 62 00  	add	t0, t0, t1
80007980: 83 82 12 00  	lb	t0, 1(t0)
80007984: 03 23 82 fb  	lw	t1, -72(tp)
80007988: 93 03 13 00  	addi	t2, t1, 1
8000798c: 23 2c 72 fa  	sw	t2, -72(tp)
80007990: 23 00 53 00  	sb	t0, 0(t1)
80007994: 6f 00 40 00  	j	0x80007998 <.LBB0_13>

80007998 <.LBB0_13>:
80007998: 83 22 42 fb  	lw	t0, -76(tp)
8000799c: 37 83 01 00  	lui	t1, 24
800079a0: 13 03 03 6a  	addi	t1, t1, 1696
800079a4: 63 c8 62 02  	blt	t0, t1, 0x800079d4 <.LBB0_15>
800079a8: 6f 00 40 00  	j	0x800079ac <.LBB0_14>

800079ac <.LBB0_14>:
800079ac: 03 23 02 fd  	lw	t1, -48(tp)
800079b0: b7 12 01 80  	lui	t0, 524305
800079b4: 93 82 82 5e  	addi	t0, t0, 1512
800079b8: b3 82 62 00  	add	t0, t0, t1
800079bc: 83 82 02 00  	lb	t0, 0(t0)
800079c0: 03 23 82 fb  	lw	t1, -72(tp)
800079c4: 93 03 13 00  	addi	t2, t1, 1
800079c8: 23 2c 72 fa  	sw	t2, -72(tp)
800079cc: 23 00 53 00  	sb	t0, 0(t1)
800079d0: 6f 00 40 00  	j	0x800079d4 <.LBB0_15>

800079d4 <.LBB0_15>:
800079d4: 83 22 02 fd  	lw	t0, -48(tp)
800079d8: 37 13 01 80  	lui	t1, 524305
800079dc: 13 03 83 5e  	addi	t1, t1, 1512
800079e0: b3 82 62 00  	add	t0, t0, t1
800079e4: 83 82 12 00  	lb	t0, 1(t0)
800079e8: 83 23 82 fb  	lw	t2, -72(tp)
800079ec: 93 84 13 00  	addi	s1, t2, 1
800079f0: 23 2c 92 fa  	sw	s1, -72(tp)
800079f4: 23 80 53 00  	sb	t0, 0(t2)
800079f8: 83 22 42 fd  	lw	t0, -44(tp)
800079fc: b3 02 53 00  	add	t0, t1, t0
80007a00: 83 82 02 00  	lb	t0, 0(t0)
80007a04: 83 23 82 fb  	lw	t2, -72(tp)
80007a08: 93 84 13 00  	addi	s1, t2, 1
80007a0c: 23 2c 92 fa  	sw	s1, -72(tp)
80007a10: 23 80 53 00  	sb	t0, 0(t2)
80007a14: 83 22 42 fd  	lw	t0, -44(tp)
80007a18: b3 82 62 00  	add	t0, t0, t1
80007a1c: 83 82 12 00  	lb	t0, 1(t0)
80007a20: 83 23 82 fb  	lw	t2, -72(tp)
80007a24: 93 84 13 00  	addi	s1, t2, 1
80007a28: 23 2c 92 fa  	sw	s1, -72(tp)
80007a2c: 23 80 53 00  	sb	t0, 0(t2)
80007a30: 83 22 82 fd  	lw	t0, -40(tp)
80007a34: b3 02 53 00  	add	t0, t1, t0
80007a38: 83 82 02 00  	lb	t0, 0(t0)
80007a3c: 83 23 82 fb  	lw	t2, -72(tp)
80007a40: 93 84 13 00  	addi	s1, t2, 1
80007a44: 23 2c 92 fa  	sw	s1, -72(tp)
80007a48: 23 80 53 00  	sb	t0, 0(t2)
80007a4c: 83 22 82 fd  	lw	t0, -40(tp)
80007a50: b3 82 62 00  	add	t0, t0, t1
80007a54: 83 82 12 00  	lb	t0, 1(t0)
80007a58: 03 23 82 fb  	lw	t1, -72(tp)
80007a5c: 93 03 13 00  	addi	t2, t1, 1
80007a60: 23 2c 72 fa  	sw	t2, -72(tp)
80007a64: 23 00 53 00  	sb	t0, 0(t1)
80007a68: 6f 00 c0 28  	j	0x80007cf4 <.LBB0_20>

80007a6c <.LBB0_16>:
80007a6c: 83 22 42 fb  	lw	t0, -76(tp)
80007a70: 37 43 e6 55  	lui	t1, 351844
80007a74: 13 03 93 b8  	addi	t1, t1, -1143
80007a78: b3 92 62 02  	mulh	t0, t0, t1
80007a7c: 93 d3 f2 01  	srli	t2, t0, 31
80007a80: 93 d2 92 41  	srai	t0, t0, 25
80007a84: b3 82 72 00  	add	t0, t0, t2
80007a88: 23 2e 52 fc  	sw	t0, -36(tp)
80007a8c: 83 22 42 fb  	lw	t0, -76(tp)
80007a90: 33 93 62 02  	mulh	t1, t0, t1
80007a94: 93 53 f3 01  	srli	t2, t1, 31
80007a98: 13 53 93 41  	srai	t1, t1, 25
80007a9c: 33 03 73 00  	add	t1, t1, t2
80007aa0: b7 e3 f5 05  	lui	t2, 24414
80007aa4: 93 83 03 10  	addi	t2, t2, 256
80007aa8: 33 03 73 02  	mul	t1, t1, t2
80007aac: b3 82 62 40  	sub	t0, t0, t1
80007ab0: 23 2a 52 fa  	sw	t0, -76(tp)
80007ab4: 83 22 c2 fd  	lw	t0, -36(tp)
80007ab8: 13 03 a0 00  	li	t1, 10
80007abc: 63 cc 62 04  	blt	t0, t1, 0x80007b14 <.LBB0_18>
80007ac0: 6f 00 40 00  	j	0x80007ac4 <.LBB0_17>

80007ac4 <.LBB0_17>:
80007ac4: 83 22 c2 fd  	lw	t0, -36(tp)
80007ac8: 93 92 12 00  	slli	t0, t0, 1
80007acc: 23 20 52 fe  	sw	t0, -32(tp)
80007ad0: 83 22 02 fe  	lw	t0, -32(tp)
80007ad4: 37 13 01 80  	lui	t1, 524305
80007ad8: 13 03 83 5e  	addi	t1, t1, 1512
80007adc: b3 02 53 00  	add	t0, t1, t0
80007ae0: 83 82 02 00  	lb	t0, 0(t0)
80007ae4: 83 23 82 fb  	lw	t2, -72(tp)
80007ae8: 93 84 13 00  	addi	s1, t2, 1
80007aec: 23 2c 92 fa  	sw	s1, -72(tp)
80007af0: 23 80 53 00  	sb	t0, 0(t2)
80007af4: 83 22 02 fe  	lw	t0, -32(tp)
80007af8: b3 82 62 00  	add	t0, t0, t1
80007afc: 83 82 12 00  	lb	t0, 1(t0)
80007b00: 03 23 82 fb  	lw	t1, -72(tp)
80007b04: 93 03 13 00  	addi	t2, t1, 1
80007b08: 23 2c 72 fa  	sw	t2, -72(tp)
80007b0c: 23 00 53 00  	sb	t0, 0(t1)
80007b10: 6f 00 00 02  	j	0x80007b30 <.LBB0_19>

80007b14 <.LBB0_18>:
80007b14: 83 22 c2 fd  	lw	t0, -36(tp)
80007b18: 93 82 02 03  	addi	t0, t0, 48
80007b1c: 03 23 82 fb  	lw	t1, -72(tp)
80007b20: 93 03 13 00  	addi	t2, t1, 1
80007b24: 23 2c 72 fa  	sw	t2, -72(tp)
80007b28: 23 00 53 00  	sb	t0, 0(t1)
80007b2c: 6f 00 40 00  	j	0x80007b30 <.LBB0_19>

80007b30 <.LBB0_19>:
80007b30: 83 22 42 fb  	lw	t0, -76(tp)
80007b34: 37 93 db 68  	lui	t1, 429497
80007b38: 13 03 d3 ba  	addi	t1, t1, -1107
80007b3c: b3 92 62 02  	mulh	t0, t0, t1
80007b40: 93 d3 f2 01  	srli	t2, t0, 31
80007b44: 93 d2 c2 40  	srai	t0, t0, 12
80007b48: b3 82 72 00  	add	t0, t0, t2
80007b4c: 23 22 52 fe  	sw	t0, -28(tp)
80007b50: 83 22 42 fb  	lw	t0, -76(tp)
80007b54: 33 93 62 02  	mulh	t1, t0, t1
80007b58: 93 53 f3 01  	srli	t2, t1, 31
80007b5c: 13 53 c3 40  	srai	t1, t1, 12
80007b60: 33 03 73 00  	add	t1, t1, t2
80007b64: b7 23 00 00  	lui	t2, 2
80007b68: 93 83 03 71  	addi	t2, t2, 1808
80007b6c: 33 03 73 02  	mul	t1, t1, t2
80007b70: b3 82 62 40  	sub	t0, t0, t1
80007b74: 23 24 52 fe  	sw	t0, -24(tp)
80007b78: 83 22 42 fe  	lw	t0, -28(tp)
80007b7c: 37 83 eb 51  	lui	t1, 335544
80007b80: 13 03 f3 51  	addi	t1, t1, 1311
80007b84: b3 92 62 02  	mulh	t0, t0, t1
80007b88: 93 d3 f2 01  	srli	t2, t0, 31
80007b8c: 93 d2 52 40  	srai	t0, t0, 5
80007b90: b3 82 72 00  	add	t0, t0, t2
80007b94: 93 92 12 00  	slli	t0, t0, 1
80007b98: 23 26 52 fe  	sw	t0, -20(tp)
80007b9c: 83 22 42 fe  	lw	t0, -28(tp)
80007ba0: b3 93 62 02  	mulh	t2, t0, t1
80007ba4: 93 d4 f3 01  	srli	s1, t2, 31
80007ba8: 93 d3 53 40  	srai	t2, t2, 5
80007bac: b3 84 93 00  	add	s1, t2, s1
80007bb0: 93 03 40 06  	li	t2, 100
80007bb4: b3 84 74 02  	mul	s1, s1, t2
80007bb8: b3 82 92 40  	sub	t0, t0, s1
80007bbc: 93 92 12 00  	slli	t0, t0, 1
80007bc0: 23 28 52 fe  	sw	t0, -16(tp)
80007bc4: 83 22 82 fe  	lw	t0, -24(tp)
80007bc8: b3 92 62 02  	mulh	t0, t0, t1
80007bcc: 93 d4 f2 01  	srli	s1, t0, 31
80007bd0: 93 d2 52 40  	srai	t0, t0, 5
80007bd4: b3 82 92 00  	add	t0, t0, s1
80007bd8: 93 92 12 00  	slli	t0, t0, 1
80007bdc: 23 2a 52 fe  	sw	t0, -12(tp)
80007be0: 83 22 82 fe  	lw	t0, -24(tp)
80007be4: 33 93 62 02  	mulh	t1, t0, t1
80007be8: 93 54 f3 01  	srli	s1, t1, 31
80007bec: 13 53 53 40  	srai	t1, t1, 5
80007bf0: 33 03 93 00  	add	t1, t1, s1
80007bf4: 33 03 73 02  	mul	t1, t1, t2
80007bf8: b3 82 62 40  	sub	t0, t0, t1
80007bfc: 93 92 12 00  	slli	t0, t0, 1
80007c00: 23 2c 52 fe  	sw	t0, -8(tp)
80007c04: 83 22 c2 fe  	lw	t0, -20(tp)
80007c08: 37 13 01 80  	lui	t1, 524305
80007c0c: 13 03 83 5e  	addi	t1, t1, 1512
80007c10: 23 22 61 04  	sw	t1, 68(sp)
80007c14: b3 02 53 00  	add	t0, t1, t0
80007c18: 83 82 02 00  	lb	t0, 0(t0)
80007c1c: 83 23 82 fb  	lw	t2, -72(tp)
80007c20: 93 84 13 00  	addi	s1, t2, 1
80007c24: 23 2c 92 fa  	sw	s1, -72(tp)
80007c28: 23 80 53 00  	sb	t0, 0(t2)
80007c2c: 83 22 c2 fe  	lw	t0, -20(tp)
80007c30: b3 82 62 00  	add	t0, t0, t1
80007c34: 83 82 12 00  	lb	t0, 1(t0)
80007c38: 83 23 82 fb  	lw	t2, -72(tp)
80007c3c: 93 84 13 00  	addi	s1, t2, 1
80007c40: 23 2c 92 fa  	sw	s1, -72(tp)
80007c44: 23 80 53 00  	sb	t0, 0(t2)
80007c48: 83 22 02 ff  	lw	t0, -16(tp)
80007c4c: b3 02 53 00  	add	t0, t1, t0
80007c50: 83 82 02 00  	lb	t0, 0(t0)
80007c54: 83 23 82 fb  	lw	t2, -72(tp)
80007c58: 93 84 13 00  	addi	s1, t2, 1
80007c5c: 23 2c 92 fa  	sw	s1, -72(tp)
80007c60: 23 80 53 00  	sb	t0, 0(t2)
80007c64: 83 22 02 ff  	lw	t0, -16(tp)
80007c68: b3 82 62 00  	add	t0, t0, t1
80007c6c: 83 82 12 00  	lb	t0, 1(t0)
80007c70: 83 23 82 fb  	lw	t2, -72(tp)
80007c74: 93 84 13 00  	addi	s1, t2, 1
80007c78: 23 2c 92 fa  	sw	s1, -72(tp)
80007c7c: 23 80 53 00  	sb	t0, 0(t2)
80007c80: 83 22 42 ff  	lw	t0, -12(tp)
80007c84: b3 02 53 00  	add	t0, t1, t0
80007c88: 83 82 02 00  	lb	t0, 0(t0)
80007c8c: 83 23 82 fb  	lw	t2, -72(tp)
80007c90: 93 84 13 00  	addi	s1, t2, 1
80007c94: 23 2c 92 fa  	sw	s1, -72(tp)
80007c98: 23 80 53 00  	sb	t0, 0(t2)
80007c9c: 83 22 42 ff  	lw	t0, -12(tp)
80007ca0: b3 82 62 00  	add	t0, t0, t1
80007ca4: 83 82 12 00  	lb	t0, 1(t0)
80007ca8: 83 23 82 fb  	lw	t2, -72(tp)
80007cac: 93 84 13 00  	addi	s1, t2, 1
80007cb0: 23 2c 92 fa  	sw	s1, -72(tp)
80007cb4: 23 80 53 00  	sb	t0, 0(t2)
80007cb8: 83 22 82 ff  	lw	t0, -8(tp)
80007cbc: b3 02 53 00  	add	t0, t1, t0
80007cc0: 83 82 02 00  	lb	t0, 0(t0)
80007cc4: 83 23 82 fb  	lw	t2, -72(tp)
80007cc8: 93 84 13 00  	addi	s1, t2, 1
80007ccc: 23 2c 92 fa  	sw	s1, -72(tp)
80007cd0: 23 80 53 00  	sb	t0, 0(t2)
80007cd4: 83 22 82 ff  	lw	t0, -8(tp)
80007cd8: b3 82 62 00  	add	t0, t0, t1
80007cdc: 83 82 12 00  	lb	t0, 1(t0)
80007ce0: 03 23 82 fb  	lw	t1, -72(tp)
80007ce4: 93 03 13 00  	addi	t2, t1, 1
80007ce8: 23 2c 72 fa  	sw	t2, -72(tp)
80007cec: 23 00 53 00  	sb	t0, 0(t1)
80007cf0: 6f 00 40 00  	j	0x80007cf4 <.LBB0_20>

80007cf4 <.LBB0_20>:
80007cf4: 6f 00 40 00  	j	0x80007cf8 <.LBB0_21>

80007cf8 <.LBB0_21>:
80007cf8: 83 22 82 fb  	lw	t0, -72(tp)
80007cfc: 57 c0 02 5e  	<unknown>
80007d00: 83 20 81 ff  	lw	ra, -8(sp)
80007d04: 0b c0 00 04  	barrier	x0, x0, 1
80007d08: 13 01 81 ff  	addi	sp, sp, -8
80007d0c: 13 02 82 fb  	addi	tp, tp, -72
80007d10: 67 80 00 00  	ret

80007d14 <u64toa>:
80007d14: 13 01 41 01  	addi	sp, sp, 20
80007d18: 13 02 42 0d  	addi	tp, tp, 212
80007d1c: 0b 20 10 00  	regext	zero, zero, 1
80007d20: 57 40 02 5e  	<unknown>
80007d24: 23 26 11 fe  	sw	ra, -20(sp)
80007d28: 0b 20 80 00  	regext	zero, zero, 8
80007d2c: 7b 6e 00 f0  	vsw12.v	v0, -228(v0)
80007d30: 0b 20 80 00  	regext	zero, zero, 8
80007d34: 7b 60 10 f2  	vsw12.v	v1, -224(v0)
80007d38: b7 e2 f5 05  	lui	t0, 24414
80007d3c: 13 83 02 10  	addi	t1, t0, 256
80007d40: 23 22 62 f2  	sw	t1, -220(tp)
80007d44: 37 d3 9a 3b  	lui	t1, 244141
80007d48: 13 03 03 a0  	addi	t1, t1, -1536
80007d4c: 23 24 62 f2  	sw	t1, -216(tp)
80007d50: 37 e3 0b 54  	lui	t1, 344254
80007d54: 13 03 03 40  	addi	t1, t1, 1024
80007d58: 23 26 62 f2  	sw	t1, -212(tp)
80007d5c: 37 f3 76 48  	lui	t1, 296815
80007d60: 13 03 03 80  	addi	t1, t1, -2048
80007d64: 23 28 62 f2  	sw	t1, -208(tp)
80007d68: 37 13 a5 d4  	lui	t1, 870993
80007d6c: 23 2a 62 f2  	sw	t1, -204(tp)
80007d70: 37 a3 72 4e  	lui	t1, 321322
80007d74: 23 2c 62 f2  	sw	t1, -200(tp)
80007d78: 37 43 7a 10  	lui	t1, 67492
80007d7c: 23 2e 62 f2  	sw	t1, -196(tp)
80007d80: 37 83 c6 a4  	lui	t1, 674920
80007d84: 23 20 62 f4  	sw	t1, -192(tp)
80007d88: 37 03 c1 6f  	lui	t1, 457744
80007d8c: 23 22 62 f4  	sw	t1, -188(tp)
80007d90: 03 23 c2 f1  	lw	t1, -228(tp)
80007d94: 93 82 f2 0f  	addi	t0, t0, 255
80007d98: 63 c2 62 36  	blt	t0, t1, 0x800080fc <.LBB1_17>
80007d9c: 6f 00 40 00  	j	0x80007da0 <.LBB1_1>

80007da0 <.LBB1_1>:
80007da0: 83 22 c2 f1  	lw	t0, -228(tp)
80007da4: 23 24 52 f4  	sw	t0, -184(tp)
80007da8: 03 23 82 f4  	lw	t1, -184(tp)
80007dac: b7 22 00 00  	lui	t0, 2
80007db0: 93 82 f2 70  	addi	t0, t0, 1807
80007db4: 63 c2 62 12  	blt	t0, t1, 0x80007ed8 <.LBB1_9>
80007db8: 6f 00 40 00  	j	0x80007dbc <.LBB1_2>

80007dbc <.LBB1_2>:
80007dbc: 83 22 82 f4  	lw	t0, -184(tp)
80007dc0: 37 83 eb 51  	lui	t1, 335544
80007dc4: 13 03 f3 51  	addi	t1, t1, 1311
80007dc8: b3 92 62 02  	mulh	t0, t0, t1
80007dcc: 93 d3 f2 01  	srli	t2, t0, 31
80007dd0: 93 d2 52 40  	srai	t0, t0, 5
80007dd4: b3 82 72 00  	add	t0, t0, t2
80007dd8: 93 92 12 00  	slli	t0, t0, 1
80007ddc: 23 26 52 f4  	sw	t0, -180(tp)
80007de0: 83 22 82 f4  	lw	t0, -184(tp)
80007de4: 33 93 62 02  	mulh	t1, t0, t1
80007de8: 93 53 f3 01  	srli	t2, t1, 31
80007dec: 13 53 53 40  	srai	t1, t1, 5
80007df0: 33 03 73 00  	add	t1, t1, t2
80007df4: 93 03 40 06  	li	t2, 100
80007df8: 33 03 73 02  	mul	t1, t1, t2
80007dfc: b3 82 62 40  	sub	t0, t0, t1
80007e00: 93 92 12 00  	slli	t0, t0, 1
80007e04: 23 28 52 f4  	sw	t0, -176(tp)
80007e08: 83 22 82 f4  	lw	t0, -184(tp)
80007e0c: 13 03 80 3e  	li	t1, 1000
80007e10: 63 c8 62 02  	blt	t0, t1, 0x80007e40 <.LBB1_4>
80007e14: 6f 00 40 00  	j	0x80007e18 <.LBB1_3>

80007e18 <.LBB1_3>:
80007e18: 03 23 c2 f4  	lw	t1, -180(tp)
80007e1c: b7 12 01 80  	lui	t0, 524305
80007e20: 93 82 82 5e  	addi	t0, t0, 1512
80007e24: b3 82 62 00  	add	t0, t0, t1
80007e28: 83 82 02 00  	lb	t0, 0(t0)
80007e2c: 03 23 02 f2  	lw	t1, -224(tp)
80007e30: 93 03 13 00  	addi	t2, t1, 1
80007e34: 23 20 72 f2  	sw	t2, -224(tp)
80007e38: 23 00 53 00  	sb	t0, 0(t1)
80007e3c: 6f 00 40 00  	j	0x80007e40 <.LBB1_4>

80007e40 <.LBB1_4>:
80007e40: 83 22 82 f4  	lw	t0, -184(tp)
80007e44: 13 03 40 06  	li	t1, 100
80007e48: 63 c8 62 02  	blt	t0, t1, 0x80007e78 <.LBB1_6>
80007e4c: 6f 00 40 00  	j	0x80007e50 <.LBB1_5>

80007e50 <.LBB1_5>:
80007e50: 83 22 c2 f4  	lw	t0, -180(tp)
80007e54: 37 13 01 80  	lui	t1, 524305
80007e58: 13 03 83 5e  	addi	t1, t1, 1512
80007e5c: b3 82 62 00  	add	t0, t0, t1
80007e60: 83 82 12 00  	lb	t0, 1(t0)
80007e64: 03 23 02 f2  	lw	t1, -224(tp)
80007e68: 93 03 13 00  	addi	t2, t1, 1
80007e6c: 23 20 72 f2  	sw	t2, -224(tp)
80007e70: 23 00 53 00  	sb	t0, 0(t1)
80007e74: 6f 00 40 00  	j	0x80007e78 <.LBB1_6>

80007e78 <.LBB1_6>:
80007e78: 83 22 82 f4  	lw	t0, -184(tp)
80007e7c: 13 03 a0 00  	li	t1, 10
80007e80: 63 c8 62 02  	blt	t0, t1, 0x80007eb0 <.LBB1_8>
80007e84: 6f 00 40 00  	j	0x80007e88 <.LBB1_7>

80007e88 <.LBB1_7>:
80007e88: 03 23 02 f5  	lw	t1, -176(tp)
80007e8c: b7 12 01 80  	lui	t0, 524305
80007e90: 93 82 82 5e  	addi	t0, t0, 1512
80007e94: b3 82 62 00  	add	t0, t0, t1
80007e98: 83 82 02 00  	lb	t0, 0(t0)
80007e9c: 03 23 02 f2  	lw	t1, -224(tp)
80007ea0: 93 03 13 00  	addi	t2, t1, 1
80007ea4: 23 20 72 f2  	sw	t2, -224(tp)
80007ea8: 23 00 53 00  	sb	t0, 0(t1)
80007eac: 6f 00 40 00  	j	0x80007eb0 <.LBB1_8>

80007eb0 <.LBB1_8>:
80007eb0: 83 22 02 f5  	lw	t0, -176(tp)
80007eb4: 37 13 01 80  	lui	t1, 524305
80007eb8: 13 03 83 5e  	addi	t1, t1, 1512
80007ebc: b3 82 62 00  	add	t0, t0, t1
80007ec0: 83 82 12 00  	lb	t0, 1(t0)
80007ec4: 03 23 02 f2  	lw	t1, -224(tp)
80007ec8: 93 03 13 00  	addi	t2, t1, 1
80007ecc: 23 20 72 f2  	sw	t2, -224(tp)
80007ed0: 23 00 53 00  	sb	t0, 0(t1)
80007ed4: 6f 00 40 22  	j	0x800080f8 <.LBB1_16>

80007ed8 <.LBB1_9>:
80007ed8: 83 22 82 f4  	lw	t0, -184(tp)
80007edc: 37 93 db 68  	lui	t1, 429497
80007ee0: 13 03 d3 ba  	addi	t1, t1, -1107
80007ee4: b3 92 62 02  	mulh	t0, t0, t1
80007ee8: 93 d3 f2 01  	srli	t2, t0, 31
80007eec: 93 d2 c2 40  	srai	t0, t0, 12
80007ef0: b3 82 72 00  	add	t0, t0, t2
80007ef4: 23 2a 52 f4  	sw	t0, -172(tp)
80007ef8: 83 22 82 f4  	lw	t0, -184(tp)
80007efc: 33 93 62 02  	mulh	t1, t0, t1
80007f00: 93 53 f3 01  	srli	t2, t1, 31
80007f04: 13 53 c3 40  	srai	t1, t1, 12
80007f08: 33 03 73 00  	add	t1, t1, t2
80007f0c: b7 23 00 00  	lui	t2, 2
80007f10: 93 83 03 71  	addi	t2, t2, 1808
80007f14: 33 03 73 02  	mul	t1, t1, t2
80007f18: b3 82 62 40  	sub	t0, t0, t1
80007f1c: 23 2c 52 f4  	sw	t0, -168(tp)
80007f20: 83 22 42 f5  	lw	t0, -172(tp)
80007f24: 37 83 eb 51  	lui	t1, 335544
80007f28: 13 03 f3 51  	addi	t1, t1, 1311
80007f2c: b3 92 62 02  	mulh	t0, t0, t1
80007f30: 93 d3 f2 01  	srli	t2, t0, 31
80007f34: 93 d2 52 40  	srai	t0, t0, 5
80007f38: b3 82 72 00  	add	t0, t0, t2
80007f3c: 93 92 12 00  	slli	t0, t0, 1
80007f40: 23 2e 52 f4  	sw	t0, -164(tp)
80007f44: 83 22 42 f5  	lw	t0, -172(tp)
80007f48: b3 93 62 02  	mulh	t2, t0, t1
80007f4c: 93 d4 f3 01  	srli	s1, t2, 31
80007f50: 93 d3 53 40  	srai	t2, t2, 5
80007f54: b3 84 93 00  	add	s1, t2, s1
80007f58: 93 03 40 06  	li	t2, 100
80007f5c: b3 84 74 02  	mul	s1, s1, t2
80007f60: b3 82 92 40  	sub	t0, t0, s1
80007f64: 93 92 12 00  	slli	t0, t0, 1
80007f68: 23 20 52 f6  	sw	t0, -160(tp)
80007f6c: 83 22 82 f5  	lw	t0, -168(tp)
80007f70: b3 92 62 02  	mulh	t0, t0, t1
80007f74: 93 d4 f2 01  	srli	s1, t0, 31
80007f78: 93 d2 52 40  	srai	t0, t0, 5
80007f7c: b3 82 92 00  	add	t0, t0, s1
80007f80: 93 92 12 00  	slli	t0, t0, 1
80007f84: 23 22 52 f6  	sw	t0, -156(tp)
80007f88: 83 22 82 f5  	lw	t0, -168(tp)
80007f8c: 33 93 62 02  	mulh	t1, t0, t1
80007f90: 93 54 f3 01  	srli	s1, t1, 31
80007f94: 13 53 53 40  	srai	t1, t1, 5
80007f98: 33 03 93 00  	add	t1, t1, s1
80007f9c: 33 03 73 02  	mul	t1, t1, t2
80007fa0: b3 82 62 40  	sub	t0, t0, t1
80007fa4: 93 92 12 00  	slli	t0, t0, 1
80007fa8: 23 24 52 f6  	sw	t0, -152(tp)
80007fac: 83 22 c2 f1  	lw	t0, -228(tp)
80007fb0: 37 93 98 00  	lui	t1, 2441
80007fb4: 13 03 03 68  	addi	t1, t1, 1664
80007fb8: 63 c8 62 02  	blt	t0, t1, 0x80007fe8 <.LBB1_11>
80007fbc: 6f 00 40 00  	j	0x80007fc0 <.LBB1_10>

80007fc0 <.LBB1_10>:
80007fc0: 03 23 c2 f5  	lw	t1, -164(tp)
80007fc4: b7 12 01 80  	lui	t0, 524305
80007fc8: 93 82 82 5e  	addi	t0, t0, 1512
80007fcc: b3 82 62 00  	add	t0, t0, t1
80007fd0: 83 82 02 00  	lb	t0, 0(t0)
80007fd4: 03 23 02 f2  	lw	t1, -224(tp)
80007fd8: 93 03 13 00  	addi	t2, t1, 1
80007fdc: 23 20 72 f2  	sw	t2, -224(tp)
80007fe0: 23 00 53 00  	sb	t0, 0(t1)
80007fe4: 6f 00 40 00  	j	0x80007fe8 <.LBB1_11>

80007fe8 <.LBB1_11>:
80007fe8: 83 22 c2 f1  	lw	t0, -228(tp)
80007fec: 37 43 0f 00  	lui	t1, 244
80007ff0: 13 03 03 24  	addi	t1, t1, 576
80007ff4: 63 c8 62 02  	blt	t0, t1, 0x80008024 <.LBB1_13>
80007ff8: 6f 00 40 00  	j	0x80007ffc <.LBB1_12>

80007ffc <.LBB1_12>:
80007ffc: 83 22 c2 f5  	lw	t0, -164(tp)
80008000: 37 13 01 80  	lui	t1, 524305
80008004: 13 03 83 5e  	addi	t1, t1, 1512
80008008: b3 82 62 00  	add	t0, t0, t1
8000800c: 83 82 12 00  	lb	t0, 1(t0)
80008010: 03 23 02 f2  	lw	t1, -224(tp)
80008014: 93 03 13 00  	addi	t2, t1, 1
80008018: 23 20 72 f2  	sw	t2, -224(tp)
8000801c: 23 00 53 00  	sb	t0, 0(t1)
80008020: 6f 00 40 00  	j	0x80008024 <.LBB1_13>

80008024 <.LBB1_13>:
80008024: 83 22 c2 f1  	lw	t0, -228(tp)
80008028: 37 83 01 00  	lui	t1, 24
8000802c: 13 03 03 6a  	addi	t1, t1, 1696
80008030: 63 c8 62 02  	blt	t0, t1, 0x80008060 <.LBB1_15>
80008034: 6f 00 40 00  	j	0x80008038 <.LBB1_14>

80008038 <.LBB1_14>:
80008038: 03 23 02 f6  	lw	t1, -160(tp)
8000803c: b7 12 01 80  	lui	t0, 524305
80008040: 93 82 82 5e  	addi	t0, t0, 1512
80008044: b3 82 62 00  	add	t0, t0, t1
80008048: 83 82 02 00  	lb	t0, 0(t0)
8000804c: 03 23 02 f2  	lw	t1, -224(tp)
80008050: 93 03 13 00  	addi	t2, t1, 1
80008054: 23 20 72 f2  	sw	t2, -224(tp)
80008058: 23 00 53 00  	sb	t0, 0(t1)
8000805c: 6f 00 40 00  	j	0x80008060 <.LBB1_15>

80008060 <.LBB1_15>:
80008060: 83 22 02 f6  	lw	t0, -160(tp)
80008064: 37 13 01 80  	lui	t1, 524305
80008068: 13 03 83 5e  	addi	t1, t1, 1512
8000806c: b3 82 62 00  	add	t0, t0, t1
80008070: 83 82 12 00  	lb	t0, 1(t0)
80008074: 83 23 02 f2  	lw	t2, -224(tp)
80008078: 93 84 13 00  	addi	s1, t2, 1
8000807c: 23 20 92 f2  	sw	s1, -224(tp)
80008080: 23 80 53 00  	sb	t0, 0(t2)
80008084: 83 22 42 f6  	lw	t0, -156(tp)
80008088: b3 02 53 00  	add	t0, t1, t0
8000808c: 83 82 02 00  	lb	t0, 0(t0)
80008090: 83 23 02 f2  	lw	t2, -224(tp)
80008094: 93 84 13 00  	addi	s1, t2, 1
80008098: 23 20 92 f2  	sw	s1, -224(tp)
8000809c: 23 80 53 00  	sb	t0, 0(t2)
800080a0: 83 22 42 f6  	lw	t0, -156(tp)
800080a4: b3 82 62 00  	add	t0, t0, t1
800080a8: 83 82 12 00  	lb	t0, 1(t0)
800080ac: 83 23 02 f2  	lw	t2, -224(tp)
800080b0: 93 84 13 00  	addi	s1, t2, 1
800080b4: 23 20 92 f2  	sw	s1, -224(tp)
800080b8: 23 80 53 00  	sb	t0, 0(t2)
800080bc: 83 22 82 f6  	lw	t0, -152(tp)
800080c0: b3 02 53 00  	add	t0, t1, t0
800080c4: 83 82 02 00  	lb	t0, 0(t0)
800080c8: 83 23 02 f2  	lw	t2, -224(tp)
800080cc: 93 84 13 00  	addi	s1, t2, 1
800080d0: 23 20 92 f2  	sw	s1, -224(tp)
800080d4: 23 80 53 00  	sb	t0, 0(t2)
800080d8: 83 22 82 f6  	lw	t0, -152(tp)
800080dc: b3 82 62 00  	add	t0, t0, t1
800080e0: 83 82 12 00  	lb	t0, 1(t0)
800080e4: 03 23 02 f2  	lw	t1, -224(tp)
800080e8: 93 03 13 00  	addi	t2, t1, 1
800080ec: 23 20 72 f2  	sw	t2, -224(tp)
800080f0: 23 00 53 00  	sb	t0, 0(t1)
800080f4: 6f 00 40 00  	j	0x800080f8 <.LBB1_16>

800080f8 <.LBB1_16>:
800080f8: 6f 00 10 2b  	j	0x80008ba8 <.LBB1_46>

800080fc <.LBB1_17>:
800080fc: 03 23 c2 f1  	lw	t1, -228(tp)
80008100: b7 02 c1 6f  	lui	t0, 457744
80008104: 93 82 f2 ff  	addi	t0, t0, -1
80008108: 63 c0 62 4a  	blt	t0, t1, 0x800085a8 <.LBB1_35>
8000810c: 6f 00 40 00  	j	0x80008110 <.LBB1_18>

80008110 <.LBB1_18>:
80008110: 83 22 c2 f1  	lw	t0, -228(tp)
80008114: 37 43 e6 55  	lui	t1, 351844
80008118: 13 03 93 b8  	addi	t1, t1, -1143
8000811c: b3 92 62 02  	mulh	t0, t0, t1
80008120: 93 d3 f2 01  	srli	t2, t0, 31
80008124: 93 d2 92 41  	srai	t0, t0, 25
80008128: b3 82 72 00  	add	t0, t0, t2
8000812c: 23 26 52 f6  	sw	t0, -148(tp)
80008130: 83 22 c2 f1  	lw	t0, -228(tp)
80008134: 33 93 62 02  	mulh	t1, t0, t1
80008138: 93 53 f3 01  	srli	t2, t1, 31
8000813c: 13 53 93 41  	srai	t1, t1, 25
80008140: 33 03 73 00  	add	t1, t1, t2
80008144: b7 e3 f5 05  	lui	t2, 24414
80008148: 93 83 03 10  	addi	t2, t2, 256
8000814c: 33 03 73 02  	mul	t1, t1, t2
80008150: b3 82 62 40  	sub	t0, t0, t1
80008154: 23 28 52 f6  	sw	t0, -144(tp)
80008158: 83 22 c2 f6  	lw	t0, -148(tp)
8000815c: 37 93 db 68  	lui	t1, 429497
80008160: 93 04 d3 ba  	addi	s1, t1, -1107
80008164: b3 92 92 02  	mulh	t0, t0, s1
80008168: 13 d3 f2 01  	srli	t1, t0, 31
8000816c: 93 d2 c2 40  	srai	t0, t0, 12
80008170: b3 82 62 00  	add	t0, t0, t1
80008174: 23 2a 52 f6  	sw	t0, -140(tp)
80008178: 83 22 c2 f6  	lw	t0, -148(tp)
8000817c: 33 93 92 02  	mulh	t1, t0, s1
80008180: 93 53 f3 01  	srli	t2, t1, 31
80008184: 13 53 c3 40  	srai	t1, t1, 12
80008188: 33 03 73 00  	add	t1, t1, t2
8000818c: b7 23 00 00  	lui	t2, 2
80008190: 13 85 03 71  	addi	a0, t2, 1808
80008194: 33 03 a3 02  	mul	t1, t1, a0
80008198: b3 82 62 40  	sub	t0, t0, t1
8000819c: 23 2c 52 f6  	sw	t0, -136(tp)
800081a0: 83 22 42 f7  	lw	t0, -140(tp)
800081a4: 37 83 eb 51  	lui	t1, 335544
800081a8: 13 03 f3 51  	addi	t1, t1, 1311
800081ac: 23 22 61 0c  	sw	t1, 196(sp)
800081b0: b3 92 62 02  	mulh	t0, t0, t1
800081b4: 93 d3 f2 01  	srli	t2, t0, 31
800081b8: 93 d2 52 40  	srai	t0, t0, 5
800081bc: b3 82 72 00  	add	t0, t0, t2
800081c0: 93 92 12 00  	slli	t0, t0, 1
800081c4: 23 2e 52 f6  	sw	t0, -132(tp)
800081c8: 83 22 42 f7  	lw	t0, -140(tp)
800081cc: b3 93 62 02  	mulh	t2, t0, t1
800081d0: 93 d5 f3 01  	srli	a1, t2, 31
800081d4: 93 d3 53 40  	srai	t2, t2, 5
800081d8: b3 85 b3 00  	add	a1, t2, a1
800081dc: 93 03 40 06  	li	t2, 100
800081e0: b3 85 75 02  	mul	a1, a1, t2
800081e4: b3 82 b2 40  	sub	t0, t0, a1
800081e8: 93 92 12 00  	slli	t0, t0, 1
800081ec: 23 20 52 f8  	sw	t0, -128(tp)
800081f0: 83 22 82 f7  	lw	t0, -136(tp)
800081f4: b3 92 62 02  	mulh	t0, t0, t1
800081f8: 93 d5 f2 01  	srli	a1, t0, 31
800081fc: 93 d2 52 40  	srai	t0, t0, 5
80008200: b3 82 b2 00  	add	t0, t0, a1
80008204: 93 92 12 00  	slli	t0, t0, 1
80008208: 23 22 52 f8  	sw	t0, -124(tp)
8000820c: 83 22 82 f7  	lw	t0, -136(tp)
80008210: b3 95 62 02  	mulh	a1, t0, t1
80008214: 13 d6 f5 01  	srli	a2, a1, 31
80008218: 93 d5 55 40  	srai	a1, a1, 5
8000821c: b3 85 c5 00  	add	a1, a1, a2
80008220: b3 85 75 02  	mul	a1, a1, t2
80008224: b3 82 b2 40  	sub	t0, t0, a1
80008228: 93 92 12 00  	slli	t0, t0, 1
8000822c: 23 24 52 f8  	sw	t0, -120(tp)
80008230: 83 22 02 f7  	lw	t0, -144(tp)
80008234: b3 92 92 02  	mulh	t0, t0, s1
80008238: 93 d5 f2 01  	srli	a1, t0, 31
8000823c: 93 d2 c2 40  	srai	t0, t0, 12
80008240: b3 82 b2 00  	add	t0, t0, a1
80008244: 23 26 52 f8  	sw	t0, -116(tp)
80008248: 83 22 02 f7  	lw	t0, -144(tp)
8000824c: b3 94 92 02  	mulh	s1, t0, s1
80008250: 93 d5 f4 01  	srli	a1, s1, 31
80008254: 93 d4 c4 40  	srai	s1, s1, 12
80008258: b3 84 b4 00  	add	s1, s1, a1
8000825c: b3 84 a4 02  	mul	s1, s1, a0
80008260: b3 82 92 40  	sub	t0, t0, s1
80008264: 23 28 52 f8  	sw	t0, -112(tp)
80008268: 83 22 c2 f8  	lw	t0, -116(tp)
8000826c: b3 92 62 02  	mulh	t0, t0, t1
80008270: 93 d4 f2 01  	srli	s1, t0, 31
80008274: 93 d2 52 40  	srai	t0, t0, 5
80008278: b3 82 92 00  	add	t0, t0, s1
8000827c: 93 92 12 00  	slli	t0, t0, 1
80008280: 23 2a 52 f8  	sw	t0, -108(tp)
80008284: 83 22 c2 f8  	lw	t0, -116(tp)
80008288: b3 94 62 02  	mulh	s1, t0, t1
8000828c: 13 d5 f4 01  	srli	a0, s1, 31
80008290: 93 d4 54 40  	srai	s1, s1, 5
80008294: b3 84 a4 00  	add	s1, s1, a0
80008298: b3 84 74 02  	mul	s1, s1, t2
8000829c: b3 82 92 40  	sub	t0, t0, s1
800082a0: 93 92 12 00  	slli	t0, t0, 1
800082a4: 23 2c 52 f8  	sw	t0, -104(tp)
800082a8: 83 22 02 f9  	lw	t0, -112(tp)
800082ac: b3 92 62 02  	mulh	t0, t0, t1
800082b0: 93 d4 f2 01  	srli	s1, t0, 31
800082b4: 93 d2 52 40  	srai	t0, t0, 5
800082b8: b3 82 92 00  	add	t0, t0, s1
800082bc: 93 92 12 00  	slli	t0, t0, 1
800082c0: 23 2e 52 f8  	sw	t0, -100(tp)
800082c4: 83 22 02 f9  	lw	t0, -112(tp)
800082c8: 33 93 62 02  	mulh	t1, t0, t1
800082cc: 93 54 f3 01  	srli	s1, t1, 31
800082d0: 13 53 53 40  	srai	t1, t1, 5
800082d4: 33 03 93 00  	add	t1, t1, s1
800082d8: 33 03 73 02  	mul	t1, t1, t2
800082dc: b3 82 62 40  	sub	t0, t0, t1
800082e0: 93 92 12 00  	slli	t0, t0, 1
800082e4: 23 20 52 fa  	sw	t0, -96(tp)
800082e8: 83 22 c2 f1  	lw	t0, -228(tp)
800082ec: 37 83 c6 a4  	lui	t1, 674920
800082f0: 63 c8 62 02  	blt	t0, t1, 0x80008320 <.LBB1_20>
800082f4: 6f 00 40 00  	j	0x800082f8 <.LBB1_19>

800082f8 <.LBB1_19>:
800082f8: 03 23 c2 f7  	lw	t1, -132(tp)
800082fc: b7 12 01 80  	lui	t0, 524305
80008300: 93 82 82 5e  	addi	t0, t0, 1512
80008304: b3 82 62 00  	add	t0, t0, t1
80008308: 83 82 02 00  	lb	t0, 0(t0)
8000830c: 03 23 02 f2  	lw	t1, -224(tp)
80008310: 93 03 13 00  	addi	t2, t1, 1
80008314: 23 20 72 f2  	sw	t2, -224(tp)
80008318: 23 00 53 00  	sb	t0, 0(t1)
8000831c: 6f 00 40 00  	j	0x80008320 <.LBB1_20>

80008320 <.LBB1_20>:
80008320: 83 22 c2 f1  	lw	t0, -228(tp)
80008324: 37 43 7a 10  	lui	t1, 67492
80008328: 63 c8 62 02  	blt	t0, t1, 0x80008358 <.LBB1_22>
8000832c: 6f 00 40 00  	j	0x80008330 <.LBB1_21>

80008330 <.LBB1_21>:
80008330: 83 22 c2 f7  	lw	t0, -132(tp)
80008334: 37 13 01 80  	lui	t1, 524305
80008338: 13 03 83 5e  	addi	t1, t1, 1512
8000833c: b3 82 62 00  	add	t0, t0, t1
80008340: 83 82 12 00  	lb	t0, 1(t0)
80008344: 03 23 02 f2  	lw	t1, -224(tp)
80008348: 93 03 13 00  	addi	t2, t1, 1
8000834c: 23 20 72 f2  	sw	t2, -224(tp)
80008350: 23 00 53 00  	sb	t0, 0(t1)
80008354: 6f 00 40 00  	j	0x80008358 <.LBB1_22>

80008358 <.LBB1_22>:
80008358: 83 22 c2 f1  	lw	t0, -228(tp)
8000835c: 37 a3 72 4e  	lui	t1, 321322
80008360: 63 c8 62 02  	blt	t0, t1, 0x80008390 <.LBB1_24>
80008364: 6f 00 40 00  	j	0x80008368 <.LBB1_23>

80008368 <.LBB1_23>:
80008368: 03 23 02 f8  	lw	t1, -128(tp)
8000836c: b7 12 01 80  	lui	t0, 524305
80008370: 93 82 82 5e  	addi	t0, t0, 1512
80008374: b3 82 62 00  	add	t0, t0, t1
80008378: 83 82 02 00  	lb	t0, 0(t0)
8000837c: 03 23 02 f2  	lw	t1, -224(tp)
80008380: 93 03 13 00  	addi	t2, t1, 1
80008384: 23 20 72 f2  	sw	t2, -224(tp)
80008388: 23 00 53 00  	sb	t0, 0(t1)
8000838c: 6f 00 40 00  	j	0x80008390 <.LBB1_24>

80008390 <.LBB1_24>:
80008390: 83 22 c2 f1  	lw	t0, -228(tp)
80008394: 37 13 a5 d4  	lui	t1, 870993
80008398: 63 c8 62 02  	blt	t0, t1, 0x800083c8 <.LBB1_26>
8000839c: 6f 00 40 00  	j	0x800083a0 <.LBB1_25>

800083a0 <.LBB1_25>:
800083a0: 83 22 02 f8  	lw	t0, -128(tp)
800083a4: 37 13 01 80  	lui	t1, 524305
800083a8: 13 03 83 5e  	addi	t1, t1, 1512
800083ac: b3 82 62 00  	add	t0, t0, t1
800083b0: 83 82 12 00  	lb	t0, 1(t0)
800083b4: 03 23 02 f2  	lw	t1, -224(tp)
800083b8: 93 03 13 00  	addi	t2, t1, 1
800083bc: 23 20 72 f2  	sw	t2, -224(tp)
800083c0: 23 00 53 00  	sb	t0, 0(t1)
800083c4: 6f 00 40 00  	j	0x800083c8 <.LBB1_26>

800083c8 <.LBB1_26>:
800083c8: 83 22 c2 f1  	lw	t0, -228(tp)
800083cc: 37 f3 76 48  	lui	t1, 296815
800083d0: 13 03 03 80  	addi	t1, t1, -2048
800083d4: 63 c8 62 02  	blt	t0, t1, 0x80008404 <.LBB1_28>
800083d8: 6f 00 40 00  	j	0x800083dc <.LBB1_27>

800083dc <.LBB1_27>:
800083dc: 03 23 42 f8  	lw	t1, -124(tp)
800083e0: b7 12 01 80  	lui	t0, 524305
800083e4: 93 82 82 5e  	addi	t0, t0, 1512
800083e8: b3 82 62 00  	add	t0, t0, t1
800083ec: 83 82 02 00  	lb	t0, 0(t0)
800083f0: 03 23 02 f2  	lw	t1, -224(tp)
800083f4: 93 03 13 00  	addi	t2, t1, 1
800083f8: 23 20 72 f2  	sw	t2, -224(tp)
800083fc: 23 00 53 00  	sb	t0, 0(t1)
80008400: 6f 00 40 00  	j	0x80008404 <.LBB1_28>

80008404 <.LBB1_28>:
80008404: 83 22 c2 f1  	lw	t0, -228(tp)
80008408: 37 e3 0b 54  	lui	t1, 344254
8000840c: 13 03 03 40  	addi	t1, t1, 1024
80008410: 63 c8 62 02  	blt	t0, t1, 0x80008440 <.LBB1_30>
80008414: 6f 00 40 00  	j	0x80008418 <.LBB1_29>

80008418 <.LBB1_29>:
80008418: 83 22 42 f8  	lw	t0, -124(tp)
8000841c: 37 13 01 80  	lui	t1, 524305
80008420: 13 03 83 5e  	addi	t1, t1, 1512
80008424: b3 82 62 00  	add	t0, t0, t1
80008428: 83 82 12 00  	lb	t0, 1(t0)
8000842c: 03 23 02 f2  	lw	t1, -224(tp)
80008430: 93 03 13 00  	addi	t2, t1, 1
80008434: 23 20 72 f2  	sw	t2, -224(tp)
80008438: 23 00 53 00  	sb	t0, 0(t1)
8000843c: 6f 00 40 00  	j	0x80008440 <.LBB1_30>

80008440 <.LBB1_30>:
80008440: 83 22 c2 f1  	lw	t0, -228(tp)
80008444: 37 d3 9a 3b  	lui	t1, 244141
80008448: 13 03 03 a0  	addi	t1, t1, -1536
8000844c: 63 c8 62 02  	blt	t0, t1, 0x8000847c <.LBB1_32>
80008450: 6f 00 40 00  	j	0x80008454 <.LBB1_31>

80008454 <.LBB1_31>:
80008454: 03 23 82 f8  	lw	t1, -120(tp)
80008458: b7 12 01 80  	lui	t0, 524305
8000845c: 93 82 82 5e  	addi	t0, t0, 1512
80008460: b3 82 62 00  	add	t0, t0, t1
80008464: 83 82 02 00  	lb	t0, 0(t0)
80008468: 03 23 02 f2  	lw	t1, -224(tp)
8000846c: 93 03 13 00  	addi	t2, t1, 1
80008470: 23 20 72 f2  	sw	t2, -224(tp)
80008474: 23 00 53 00  	sb	t0, 0(t1)
80008478: 6f 00 40 00  	j	0x8000847c <.LBB1_32>

8000847c <.LBB1_32>:
8000847c: 83 22 c2 f1  	lw	t0, -228(tp)
80008480: 37 e3 f5 05  	lui	t1, 24414
80008484: 13 03 03 10  	addi	t1, t1, 256
80008488: 63 c8 62 02  	blt	t0, t1, 0x800084b8 <.LBB1_34>
8000848c: 6f 00 40 00  	j	0x80008490 <.LBB1_33>

80008490 <.LBB1_33>:
80008490: 83 22 82 f8  	lw	t0, -120(tp)
80008494: 37 13 01 80  	lui	t1, 524305
80008498: 13 03 83 5e  	addi	t1, t1, 1512
8000849c: b3 82 62 00  	add	t0, t0, t1
800084a0: 83 82 12 00  	lb	t0, 1(t0)
800084a4: 03 23 02 f2  	lw	t1, -224(tp)
800084a8: 93 03 13 00  	addi	t2, t1, 1
800084ac: 23 20 72 f2  	sw	t2, -224(tp)
800084b0: 23 00 53 00  	sb	t0, 0(t1)
800084b4: 6f 00 40 00  	j	0x800084b8 <.LBB1_34>

800084b8 <.LBB1_34>:
800084b8: 83 22 42 f9  	lw	t0, -108(tp)
800084bc: 37 13 01 80  	lui	t1, 524305
800084c0: 13 03 83 5e  	addi	t1, t1, 1512
800084c4: 23 24 61 0c  	sw	t1, 200(sp)
800084c8: b3 02 53 00  	add	t0, t1, t0
800084cc: 83 82 02 00  	lb	t0, 0(t0)
800084d0: 83 23 02 f2  	lw	t2, -224(tp)
800084d4: 93 84 13 00  	addi	s1, t2, 1
800084d8: 23 20 92 f2  	sw	s1, -224(tp)
800084dc: 23 80 53 00  	sb	t0, 0(t2)
800084e0: 83 22 42 f9  	lw	t0, -108(tp)
800084e4: b3 82 62 00  	add	t0, t0, t1
800084e8: 83 82 12 00  	lb	t0, 1(t0)
800084ec: 83 23 02 f2  	lw	t2, -224(tp)
800084f0: 93 84 13 00  	addi	s1, t2, 1
800084f4: 23 20 92 f2  	sw	s1, -224(tp)
800084f8: 23 80 53 00  	sb	t0, 0(t2)
800084fc: 83 22 82 f9  	lw	t0, -104(tp)
80008500: b3 02 53 00  	add	t0, t1, t0
80008504: 83 82 02 00  	lb	t0, 0(t0)
80008508: 83 23 02 f2  	lw	t2, -224(tp)
8000850c: 93 84 13 00  	addi	s1, t2, 1
80008510: 23 20 92 f2  	sw	s1, -224(tp)
80008514: 23 80 53 00  	sb	t0, 0(t2)
80008518: 83 22 82 f9  	lw	t0, -104(tp)
8000851c: b3 82 62 00  	add	t0, t0, t1
80008520: 83 82 12 00  	lb	t0, 1(t0)
80008524: 83 23 02 f2  	lw	t2, -224(tp)
80008528: 93 84 13 00  	addi	s1, t2, 1
8000852c: 23 20 92 f2  	sw	s1, -224(tp)
80008530: 23 80 53 00  	sb	t0, 0(t2)
80008534: 83 22 c2 f9  	lw	t0, -100(tp)
80008538: b3 02 53 00  	add	t0, t1, t0
8000853c: 83 82 02 00  	lb	t0, 0(t0)
80008540: 83 23 02 f2  	lw	t2, -224(tp)
80008544: 93 84 13 00  	addi	s1, t2, 1
80008548: 23 20 92 f2  	sw	s1, -224(tp)
8000854c: 23 80 53 00  	sb	t0, 0(t2)
80008550: 83 22 c2 f9  	lw	t0, -100(tp)
80008554: b3 82 62 00  	add	t0, t0, t1
80008558: 83 82 12 00  	lb	t0, 1(t0)
8000855c: 83 23 02 f2  	lw	t2, -224(tp)
80008560: 93 84 13 00  	addi	s1, t2, 1
80008564: 23 20 92 f2  	sw	s1, -224(tp)
80008568: 23 80 53 00  	sb	t0, 0(t2)
8000856c: 83 22 02 fa  	lw	t0, -96(tp)
80008570: b3 02 53 00  	add	t0, t1, t0
80008574: 83 82 02 00  	lb	t0, 0(t0)
80008578: 83 23 02 f2  	lw	t2, -224(tp)
8000857c: 93 84 13 00  	addi	s1, t2, 1
80008580: 23 20 92 f2  	sw	s1, -224(tp)
80008584: 23 80 53 00  	sb	t0, 0(t2)
80008588: 83 22 02 fa  	lw	t0, -96(tp)
8000858c: b3 82 62 00  	add	t0, t0, t1
80008590: 83 82 12 00  	lb	t0, 1(t0)
80008594: 03 23 02 f2  	lw	t1, -224(tp)
80008598: 93 03 13 00  	addi	t2, t1, 1
8000859c: 23 20 72 f2  	sw	t2, -224(tp)
800085a0: 23 00 53 00  	sb	t0, 0(t1)
800085a4: 6f 00 00 60  	j	0x80008ba4 <.LBB1_45>

800085a8 <.LBB1_35>:
800085a8: 83 23 c2 f1  	lw	t2, -228(tp)
800085ac: b7 a2 9b 92  	lui	t0, 600506
800085b0: 13 83 b2 c1  	addi	t1, t0, -997
800085b4: b3 92 63 02  	mulh	t0, t2, t1
800085b8: b3 82 72 00  	add	t0, t0, t2
800085bc: 93 d3 f2 01  	srli	t2, t0, 31
800085c0: 93 d2 e2 41  	srai	t0, t0, 30
800085c4: b3 82 72 00  	add	t0, t0, t2
800085c8: 23 22 52 fa  	sw	t0, -92(tp)
800085cc: 83 22 c2 f1  	lw	t0, -228(tp)
800085d0: 33 93 62 02  	mulh	t1, t0, t1
800085d4: 33 03 53 00  	add	t1, t1, t0
800085d8: 93 53 f3 01  	srli	t2, t1, 31
800085dc: 13 53 e3 41  	srai	t1, t1, 30
800085e0: 33 03 73 00  	add	t1, t1, t2
800085e4: b7 03 c1 6f  	lui	t2, 457744
800085e8: 33 03 73 02  	mul	t1, t1, t2
800085ec: b3 82 62 40  	sub	t0, t0, t1
800085f0: 23 2e 52 f0  	sw	t0, -228(tp)
800085f4: 03 23 42 fa  	lw	t1, -92(tp)
800085f8: 93 02 90 00  	li	t0, 9
800085fc: 63 c2 62 02  	blt	t0, t1, 0x80008620 <.LBB1_37>
80008600: 6f 00 40 00  	j	0x80008604 <.LBB1_36>

80008604 <.LBB1_36>:
80008604: 83 22 42 fa  	lw	t0, -92(tp)
80008608: 93 82 02 03  	addi	t0, t0, 48
8000860c: 03 23 02 f2  	lw	t1, -224(tp)
80008610: 93 03 13 00  	addi	t2, t1, 1
80008614: 23 20 72 f2  	sw	t2, -224(tp)
80008618: 23 00 53 00  	sb	t0, 0(t1)
8000861c: 6f 00 00 1e  	j	0x800087fc <.LBB1_44>

80008620 <.LBB1_37>:
80008620: 03 23 42 fa  	lw	t1, -92(tp)
80008624: 93 02 30 06  	li	t0, 99
80008628: 63 cc 62 04  	blt	t0, t1, 0x80008680 <.LBB1_39>
8000862c: 6f 00 40 00  	j	0x80008630 <.LBB1_38>

80008630 <.LBB1_38>:
80008630: 83 22 42 fa  	lw	t0, -92(tp)
80008634: 93 92 12 00  	slli	t0, t0, 1
80008638: 23 24 52 fa  	sw	t0, -88(tp)
8000863c: 83 22 82 fa  	lw	t0, -88(tp)
80008640: 37 13 01 80  	lui	t1, 524305
80008644: 13 03 83 5e  	addi	t1, t1, 1512
80008648: b3 02 53 00  	add	t0, t1, t0
8000864c: 83 82 02 00  	lb	t0, 0(t0)
80008650: 83 23 02 f2  	lw	t2, -224(tp)
80008654: 93 84 13 00  	addi	s1, t2, 1
80008658: 23 20 92 f2  	sw	s1, -224(tp)
8000865c: 23 80 53 00  	sb	t0, 0(t2)
80008660: 83 22 82 fa  	lw	t0, -88(tp)
80008664: b3 82 62 00  	add	t0, t0, t1
80008668: 83 82 12 00  	lb	t0, 1(t0)
8000866c: 03 23 02 f2  	lw	t1, -224(tp)
80008670: 93 03 13 00  	addi	t2, t1, 1
80008674: 23 20 72 f2  	sw	t2, -224(tp)
80008678: 23 00 53 00  	sb	t0, 0(t1)
8000867c: 6f 00 c0 17  	j	0x800087f8 <.LBB1_43>

80008680 <.LBB1_39>:
80008680: 03 23 42 fa  	lw	t1, -92(tp)
80008684: 93 02 70 3e  	li	t0, 999
80008688: 63 c2 62 0a  	blt	t0, t1, 0x8000872c <.LBB1_41>
8000868c: 6f 00 40 00  	j	0x80008690 <.LBB1_40>

80008690 <.LBB1_40>:
80008690: 83 22 42 fa  	lw	t0, -92(tp)
80008694: 37 83 eb 51  	lui	t1, 335544
80008698: 13 03 f3 51  	addi	t1, t1, 1311
8000869c: b3 92 62 02  	mulh	t0, t0, t1
800086a0: 93 d3 f2 01  	srli	t2, t0, 31
800086a4: 93 d2 52 00  	srli	t0, t0, 5
800086a8: b3 82 72 00  	add	t0, t0, t2
800086ac: 93 82 02 03  	addi	t0, t0, 48
800086b0: 83 23 02 f2  	lw	t2, -224(tp)
800086b4: 93 84 13 00  	addi	s1, t2, 1
800086b8: 23 20 92 f2  	sw	s1, -224(tp)
800086bc: 23 80 53 00  	sb	t0, 0(t2)
800086c0: 83 22 42 fa  	lw	t0, -92(tp)
800086c4: 33 93 62 02  	mulh	t1, t0, t1
800086c8: 93 53 f3 01  	srli	t2, t1, 31
800086cc: 13 53 53 40  	srai	t1, t1, 5
800086d0: 33 03 73 00  	add	t1, t1, t2
800086d4: 93 03 40 06  	li	t2, 100
800086d8: 33 03 73 02  	mul	t1, t1, t2
800086dc: b3 82 62 40  	sub	t0, t0, t1
800086e0: 93 92 12 00  	slli	t0, t0, 1
800086e4: 23 26 52 fa  	sw	t0, -84(tp)
800086e8: 83 22 c2 fa  	lw	t0, -84(tp)
800086ec: 37 13 01 80  	lui	t1, 524305
800086f0: 13 03 83 5e  	addi	t1, t1, 1512
800086f4: b3 02 53 00  	add	t0, t1, t0
800086f8: 83 82 02 00  	lb	t0, 0(t0)
800086fc: 83 23 02 f2  	lw	t2, -224(tp)
80008700: 93 84 13 00  	addi	s1, t2, 1
80008704: 23 20 92 f2  	sw	s1, -224(tp)
80008708: 23 80 53 00  	sb	t0, 0(t2)
8000870c: 83 22 c2 fa  	lw	t0, -84(tp)
80008710: b3 82 62 00  	add	t0, t0, t1
80008714: 83 82 12 00  	lb	t0, 1(t0)
80008718: 03 23 02 f2  	lw	t1, -224(tp)
8000871c: 93 03 13 00  	addi	t2, t1, 1
80008720: 23 20 72 f2  	sw	t2, -224(tp)
80008724: 23 00 53 00  	sb	t0, 0(t1)
80008728: 6f 00 c0 0c  	j	0x800087f4 <.LBB1_42>

8000872c <.LBB1_41>:
8000872c: 83 22 42 fa  	lw	t0, -92(tp)
80008730: 37 83 eb 51  	lui	t1, 335544
80008734: 13 03 f3 51  	addi	t1, t1, 1311
80008738: b3 92 62 02  	mulh	t0, t0, t1
8000873c: 93 d3 f2 01  	srli	t2, t0, 31
80008740: 93 d2 52 40  	srai	t0, t0, 5
80008744: b3 82 72 00  	add	t0, t0, t2
80008748: 93 92 12 00  	slli	t0, t0, 1
8000874c: 23 28 52 fa  	sw	t0, -80(tp)
80008750: 83 22 42 fa  	lw	t0, -92(tp)
80008754: 33 93 62 02  	mulh	t1, t0, t1
80008758: 93 53 f3 01  	srli	t2, t1, 31
8000875c: 13 53 53 40  	srai	t1, t1, 5
80008760: 33 03 73 00  	add	t1, t1, t2
80008764: 93 03 40 06  	li	t2, 100
80008768: 33 03 73 02  	mul	t1, t1, t2
8000876c: b3 82 62 40  	sub	t0, t0, t1
80008770: 93 92 12 00  	slli	t0, t0, 1
80008774: 23 2a 52 fa  	sw	t0, -76(tp)
80008778: 83 22 02 fb  	lw	t0, -80(tp)
8000877c: 37 13 01 80  	lui	t1, 524305
80008780: 13 03 83 5e  	addi	t1, t1, 1512
80008784: b3 02 53 00  	add	t0, t1, t0
80008788: 83 82 02 00  	lb	t0, 0(t0)
8000878c: 83 23 02 f2  	lw	t2, -224(tp)
80008790: 93 84 13 00  	addi	s1, t2, 1
80008794: 23 20 92 f2  	sw	s1, -224(tp)
80008798: 23 80 53 00  	sb	t0, 0(t2)
8000879c: 83 22 02 fb  	lw	t0, -80(tp)
800087a0: b3 82 62 00  	add	t0, t0, t1
800087a4: 83 82 12 00  	lb	t0, 1(t0)
800087a8: 83 23 02 f2  	lw	t2, -224(tp)
800087ac: 93 84 13 00  	addi	s1, t2, 1
800087b0: 23 20 92 f2  	sw	s1, -224(tp)
800087b4: 23 80 53 00  	sb	t0, 0(t2)
800087b8: 83 22 42 fb  	lw	t0, -76(tp)
800087bc: b3 02 53 00  	add	t0, t1, t0
800087c0: 83 82 02 00  	lb	t0, 0(t0)
800087c4: 83 23 02 f2  	lw	t2, -224(tp)
800087c8: 93 84 13 00  	addi	s1, t2, 1
800087cc: 23 20 92 f2  	sw	s1, -224(tp)
800087d0: 23 80 53 00  	sb	t0, 0(t2)
800087d4: 83 22 42 fb  	lw	t0, -76(tp)
800087d8: b3 82 62 00  	add	t0, t0, t1
800087dc: 83 82 12 00  	lb	t0, 1(t0)
800087e0: 03 23 02 f2  	lw	t1, -224(tp)
800087e4: 93 03 13 00  	addi	t2, t1, 1
800087e8: 23 20 72 f2  	sw	t2, -224(tp)
800087ec: 23 00 53 00  	sb	t0, 0(t1)
800087f0: 6f 00 40 00  	j	0x800087f4 <.LBB1_42>

800087f4 <.LBB1_42>:
800087f4: 6f 00 40 00  	j	0x800087f8 <.LBB1_43>

800087f8 <.LBB1_43>:
800087f8: 6f 00 40 00  	j	0x800087fc <.LBB1_44>

800087fc <.LBB1_44>:
800087fc: 83 22 c2 f1  	lw	t0, -228(tp)
80008800: 37 43 e6 55  	lui	t1, 351844
80008804: 13 03 93 b8  	addi	t1, t1, -1143
80008808: b3 92 62 02  	mulh	t0, t0, t1
8000880c: 93 d3 f2 01  	srli	t2, t0, 31
80008810: 93 d2 92 41  	srai	t0, t0, 25
80008814: b3 82 72 00  	add	t0, t0, t2
80008818: 23 2c 52 fa  	sw	t0, -72(tp)
8000881c: 83 22 c2 f1  	lw	t0, -228(tp)
80008820: 33 93 62 02  	mulh	t1, t0, t1
80008824: 93 53 f3 01  	srli	t2, t1, 31
80008828: 13 53 93 41  	srai	t1, t1, 25
8000882c: 33 03 73 00  	add	t1, t1, t2
80008830: b7 e3 f5 05  	lui	t2, 24414
80008834: 93 83 03 10  	addi	t2, t2, 256
80008838: 33 03 73 02  	mul	t1, t1, t2
8000883c: b3 82 62 40  	sub	t0, t0, t1
80008840: 23 2e 52 fa  	sw	t0, -68(tp)
80008844: 83 22 82 fb  	lw	t0, -72(tp)
80008848: 37 93 db 68  	lui	t1, 429497
8000884c: 93 04 d3 ba  	addi	s1, t1, -1107
80008850: b3 92 92 02  	mulh	t0, t0, s1
80008854: 13 d3 f2 01  	srli	t1, t0, 31
80008858: 93 d2 c2 40  	srai	t0, t0, 12
8000885c: b3 82 62 00  	add	t0, t0, t1
80008860: 23 20 52 fc  	sw	t0, -64(tp)
80008864: 83 22 82 fb  	lw	t0, -72(tp)
80008868: 33 93 92 02  	mulh	t1, t0, s1
8000886c: 93 53 f3 01  	srli	t2, t1, 31
80008870: 13 53 c3 40  	srai	t1, t1, 12
80008874: 33 03 73 00  	add	t1, t1, t2
80008878: b7 23 00 00  	lui	t2, 2
8000887c: 13 85 03 71  	addi	a0, t2, 1808
80008880: 33 03 a3 02  	mul	t1, t1, a0
80008884: b3 82 62 40  	sub	t0, t0, t1
80008888: 23 22 52 fc  	sw	t0, -60(tp)
8000888c: 83 22 02 fc  	lw	t0, -64(tp)
80008890: 37 83 eb 51  	lui	t1, 335544
80008894: 13 03 f3 51  	addi	t1, t1, 1311
80008898: 23 28 61 0c  	sw	t1, 208(sp)
8000889c: b3 92 62 02  	mulh	t0, t0, t1
800088a0: 93 d3 f2 01  	srli	t2, t0, 31
800088a4: 93 d2 52 40  	srai	t0, t0, 5
800088a8: b3 82 72 00  	add	t0, t0, t2
800088ac: 93 92 12 00  	slli	t0, t0, 1
800088b0: 23 24 52 fc  	sw	t0, -56(tp)
800088b4: 83 22 02 fc  	lw	t0, -64(tp)
800088b8: b3 93 62 02  	mulh	t2, t0, t1
800088bc: 93 d5 f3 01  	srli	a1, t2, 31
800088c0: 93 d3 53 40  	srai	t2, t2, 5
800088c4: b3 85 b3 00  	add	a1, t2, a1
800088c8: 93 03 40 06  	li	t2, 100
800088cc: b3 85 75 02  	mul	a1, a1, t2
800088d0: b3 82 b2 40  	sub	t0, t0, a1
800088d4: 93 92 12 00  	slli	t0, t0, 1
800088d8: 23 26 52 fc  	sw	t0, -52(tp)
800088dc: 83 22 42 fc  	lw	t0, -60(tp)
800088e0: b3 92 62 02  	mulh	t0, t0, t1
800088e4: 93 d5 f2 01  	srli	a1, t0, 31
800088e8: 93 d2 52 40  	srai	t0, t0, 5
800088ec: b3 82 b2 00  	add	t0, t0, a1
800088f0: 93 92 12 00  	slli	t0, t0, 1
800088f4: 23 28 52 fc  	sw	t0, -48(tp)
800088f8: 83 22 42 fc  	lw	t0, -60(tp)
800088fc: b3 95 62 02  	mulh	a1, t0, t1
80008900: 13 d6 f5 01  	srli	a2, a1, 31
80008904: 93 d5 55 40  	srai	a1, a1, 5
80008908: b3 85 c5 00  	add	a1, a1, a2
8000890c: b3 85 75 02  	mul	a1, a1, t2
80008910: b3 82 b2 40  	sub	t0, t0, a1
80008914: 93 92 12 00  	slli	t0, t0, 1
80008918: 23 2a 52 fc  	sw	t0, -44(tp)
8000891c: 83 22 c2 fb  	lw	t0, -68(tp)
80008920: b3 92 92 02  	mulh	t0, t0, s1
80008924: 93 d5 f2 01  	srli	a1, t0, 31
80008928: 93 d2 c2 40  	srai	t0, t0, 12
8000892c: b3 82 b2 00  	add	t0, t0, a1
80008930: 23 2c 52 fc  	sw	t0, -40(tp)
80008934: 83 22 c2 fb  	lw	t0, -68(tp)
80008938: b3 94 92 02  	mulh	s1, t0, s1
8000893c: 93 d5 f4 01  	srli	a1, s1, 31
80008940: 93 d4 c4 40  	srai	s1, s1, 12
80008944: b3 84 b4 00  	add	s1, s1, a1
80008948: b3 84 a4 02  	mul	s1, s1, a0
8000894c: b3 82 92 40  	sub	t0, t0, s1
80008950: 23 2e 52 fc  	sw	t0, -36(tp)
80008954: 83 22 82 fd  	lw	t0, -40(tp)
80008958: b3 92 62 02  	mulh	t0, t0, t1
8000895c: 93 d4 f2 01  	srli	s1, t0, 31
80008960: 93 d2 52 40  	srai	t0, t0, 5
80008964: b3 82 92 00  	add	t0, t0, s1
80008968: 93 92 12 00  	slli	t0, t0, 1
8000896c: 23 20 52 fe  	sw	t0, -32(tp)
80008970: 83 22 82 fd  	lw	t0, -40(tp)
80008974: b3 94 62 02  	mulh	s1, t0, t1
80008978: 13 d5 f4 01  	srli	a0, s1, 31
8000897c: 93 d4 54 40  	srai	s1, s1, 5
80008980: b3 84 a4 00  	add	s1, s1, a0
80008984: b3 84 74 02  	mul	s1, s1, t2
80008988: b3 82 92 40  	sub	t0, t0, s1
8000898c: 93 92 12 00  	slli	t0, t0, 1
80008990: 23 22 52 fe  	sw	t0, -28(tp)
80008994: 83 22 c2 fd  	lw	t0, -36(tp)
80008998: b3 92 62 02  	mulh	t0, t0, t1
8000899c: 93 d4 f2 01  	srli	s1, t0, 31
800089a0: 93 d2 52 40  	srai	t0, t0, 5
800089a4: b3 82 92 00  	add	t0, t0, s1
800089a8: 93 92 12 00  	slli	t0, t0, 1
800089ac: 23 24 52 fe  	sw	t0, -24(tp)
800089b0: 83 22 c2 fd  	lw	t0, -36(tp)
800089b4: 33 93 62 02  	mulh	t1, t0, t1
800089b8: 93 54 f3 01  	srli	s1, t1, 31
800089bc: 13 53 53 40  	srai	t1, t1, 5
800089c0: 33 03 93 00  	add	t1, t1, s1
800089c4: 33 03 73 02  	mul	t1, t1, t2
800089c8: b3 82 62 40  	sub	t0, t0, t1
800089cc: 93 92 12 00  	slli	t0, t0, 1
800089d0: 23 26 52 fe  	sw	t0, -20(tp)
800089d4: 83 22 82 fc  	lw	t0, -56(tp)
800089d8: 37 13 01 80  	lui	t1, 524305
800089dc: 13 03 83 5e  	addi	t1, t1, 1512
800089e0: 23 26 61 0c  	sw	t1, 204(sp)
800089e4: b3 02 53 00  	add	t0, t1, t0
800089e8: 83 82 02 00  	lb	t0, 0(t0)
800089ec: 83 23 02 f2  	lw	t2, -224(tp)
800089f0: 93 84 13 00  	addi	s1, t2, 1
800089f4: 23 20 92 f2  	sw	s1, -224(tp)
800089f8: 23 80 53 00  	sb	t0, 0(t2)
800089fc: 83 22 82 fc  	lw	t0, -56(tp)
80008a00: b3 82 62 00  	add	t0, t0, t1
80008a04: 83 82 12 00  	lb	t0, 1(t0)
80008a08: 83 23 02 f2  	lw	t2, -224(tp)
80008a0c: 93 84 13 00  	addi	s1, t2, 1
80008a10: 23 20 92 f2  	sw	s1, -224(tp)
80008a14: 23 80 53 00  	sb	t0, 0(t2)
80008a18: 83 22 c2 fc  	lw	t0, -52(tp)
80008a1c: b3 02 53 00  	add	t0, t1, t0
80008a20: 83 82 02 00  	lb	t0, 0(t0)
80008a24: 83 23 02 f2  	lw	t2, -224(tp)
80008a28: 93 84 13 00  	addi	s1, t2, 1
80008a2c: 23 20 92 f2  	sw	s1, -224(tp)
80008a30: 23 80 53 00  	sb	t0, 0(t2)
80008a34: 83 22 c2 fc  	lw	t0, -52(tp)
80008a38: b3 82 62 00  	add	t0, t0, t1
80008a3c: 83 82 12 00  	lb	t0, 1(t0)
80008a40: 83 23 02 f2  	lw	t2, -224(tp)
80008a44: 93 84 13 00  	addi	s1, t2, 1
80008a48: 23 20 92 f2  	sw	s1, -224(tp)
80008a4c: 23 80 53 00  	sb	t0, 0(t2)
80008a50: 83 22 02 fd  	lw	t0, -48(tp)
80008a54: b3 02 53 00  	add	t0, t1, t0
80008a58: 83 82 02 00  	lb	t0, 0(t0)
80008a5c: 83 23 02 f2  	lw	t2, -224(tp)
80008a60: 93 84 13 00  	addi	s1, t2, 1
80008a64: 23 20 92 f2  	sw	s1, -224(tp)
80008a68: 23 80 53 00  	sb	t0, 0(t2)
80008a6c: 83 22 02 fd  	lw	t0, -48(tp)
80008a70: b3 82 62 00  	add	t0, t0, t1
80008a74: 83 82 12 00  	lb	t0, 1(t0)
80008a78: 83 23 02 f2  	lw	t2, -224(tp)
80008a7c: 93 84 13 00  	addi	s1, t2, 1
80008a80: 23 20 92 f2  	sw	s1, -224(tp)
80008a84: 23 80 53 00  	sb	t0, 0(t2)
80008a88: 83 22 42 fd  	lw	t0, -44(tp)
80008a8c: b3 02 53 00  	add	t0, t1, t0
80008a90: 83 82 02 00  	lb	t0, 0(t0)
80008a94: 83 23 02 f2  	lw	t2, -224(tp)
80008a98: 93 84 13 00  	addi	s1, t2, 1
80008a9c: 23 20 92 f2  	sw	s1, -224(tp)
80008aa0: 23 80 53 00  	sb	t0, 0(t2)
80008aa4: 83 22 42 fd  	lw	t0, -44(tp)
80008aa8: b3 82 62 00  	add	t0, t0, t1
80008aac: 83 82 12 00  	lb	t0, 1(t0)
80008ab0: 83 23 02 f2  	lw	t2, -224(tp)
80008ab4: 93 84 13 00  	addi	s1, t2, 1
80008ab8: 23 20 92 f2  	sw	s1, -224(tp)
80008abc: 23 80 53 00  	sb	t0, 0(t2)
80008ac0: 83 22 02 fe  	lw	t0, -32(tp)
80008ac4: b3 02 53 00  	add	t0, t1, t0
80008ac8: 83 82 02 00  	lb	t0, 0(t0)
80008acc: 83 23 02 f2  	lw	t2, -224(tp)
80008ad0: 93 84 13 00  	addi	s1, t2, 1
80008ad4: 23 20 92 f2  	sw	s1, -224(tp)
80008ad8: 23 80 53 00  	sb	t0, 0(t2)
80008adc: 83 22 02 fe  	lw	t0, -32(tp)
80008ae0: b3 82 62 00  	add	t0, t0, t1
80008ae4: 83 82 12 00  	lb	t0, 1(t0)
80008ae8: 83 23 02 f2  	lw	t2, -224(tp)
80008aec: 93 84 13 00  	addi	s1, t2, 1
80008af0: 23 20 92 f2  	sw	s1, -224(tp)
80008af4: 23 80 53 00  	sb	t0, 0(t2)
80008af8: 83 22 42 fe  	lw	t0, -28(tp)
80008afc: b3 02 53 00  	add	t0, t1, t0
80008b00: 83 82 02 00  	lb	t0, 0(t0)
80008b04: 83 23 02 f2  	lw	t2, -224(tp)
80008b08: 93 84 13 00  	addi	s1, t2, 1
80008b0c: 23 20 92 f2  	sw	s1, -224(tp)
80008b10: 23 80 53 00  	sb	t0, 0(t2)
80008b14: 83 22 42 fe  	lw	t0, -28(tp)
80008b18: b3 82 62 00  	add	t0, t0, t1
80008b1c: 83 82 12 00  	lb	t0, 1(t0)
80008b20: 83 23 02 f2  	lw	t2, -224(tp)
80008b24: 93 84 13 00  	addi	s1, t2, 1
80008b28: 23 20 92 f2  	sw	s1, -224(tp)
80008b2c: 23 80 53 00  	sb	t0, 0(t2)
80008b30: 83 22 82 fe  	lw	t0, -24(tp)
80008b34: b3 02 53 00  	add	t0, t1, t0
80008b38: 83 82 02 00  	lb	t0, 0(t0)
80008b3c: 83 23 02 f2  	lw	t2, -224(tp)
80008b40: 93 84 13 00  	addi	s1, t2, 1
80008b44: 23 20 92 f2  	sw	s1, -224(tp)
80008b48: 23 80 53 00  	sb	t0, 0(t2)
80008b4c: 83 22 82 fe  	lw	t0, -24(tp)
80008b50: b3 82 62 00  	add	t0, t0, t1
80008b54: 83 82 12 00  	lb	t0, 1(t0)
80008b58: 83 23 02 f2  	lw	t2, -224(tp)
80008b5c: 93 84 13 00  	addi	s1, t2, 1
80008b60: 23 20 92 f2  	sw	s1, -224(tp)
80008b64: 23 80 53 00  	sb	t0, 0(t2)
80008b68: 83 22 c2 fe  	lw	t0, -20(tp)
80008b6c: b3 02 53 00  	add	t0, t1, t0
80008b70: 83 82 02 00  	lb	t0, 0(t0)
80008b74: 83 23 02 f2  	lw	t2, -224(tp)
80008b78: 93 84 13 00  	addi	s1, t2, 1
80008b7c: 23 20 92 f2  	sw	s1, -224(tp)
80008b80: 23 80 53 00  	sb	t0, 0(t2)
80008b84: 83 22 c2 fe  	lw	t0, -20(tp)
80008b88: b3 82 62 00  	add	t0, t0, t1
80008b8c: 83 82 12 00  	lb	t0, 1(t0)
80008b90: 03 23 02 f2  	lw	t1, -224(tp)
80008b94: 93 03 13 00  	addi	t2, t1, 1
80008b98: 23 20 72 f2  	sw	t2, -224(tp)
80008b9c: 23 00 53 00  	sb	t0, 0(t1)
80008ba0: 6f 00 40 00  	j	0x80008ba4 <.LBB1_45>

80008ba4 <.LBB1_45>:
80008ba4: 6f 00 40 00  	j	0x80008ba8 <.LBB1_46>

80008ba8 <.LBB1_46>:
80008ba8: 83 22 02 f2  	lw	t0, -224(tp)
80008bac: 57 c0 02 5e  	<unknown>
80008bb0: 83 20 c1 fe  	lw	ra, -20(sp)
80008bb4: 0b c0 00 04  	barrier	x0, x0, 1
80008bb8: 13 01 c1 fe  	addi	sp, sp, -20
80008bbc: 13 02 c2 f2  	addi	tp, tp, -212
80008bc0: 67 80 00 00  	ret

80008bc4 <__udivmodti4>:
80008bc4: 13 01 41 00  	addi	sp, sp, 4
80008bc8: 13 02 c2 05  	addi	tp, tp, 92
80008bcc: 0b 20 10 00  	regext	zero, zero, 1
80008bd0: 57 40 02 5e  	<unknown>
80008bd4: 23 2e 11 fe  	sw	ra, -4(sp)
80008bd8: 0b 20 80 00  	regext	zero, zero, 8
80008bdc: 7b 64 00 fa  	vsw12.v	v0, -88(v0)
80008be0: 0b 20 80 00  	regext	zero, zero, 8
80008be4: 7b 66 10 fa  	vsw12.v	v1, -84(v0)
80008be8: 0b 20 80 00  	regext	zero, zero, 8
80008bec: 7b 68 20 fa  	vsw12.v	v2, -80(v0)
80008bf0: 93 02 00 02  	li	t0, 32
80008bf4: 23 2a 52 fa  	sw	t0, -76(tp)
80008bf8: 83 22 82 fa  	lw	t0, -88(tp)
80008bfc: 23 2c 52 fa  	sw	t0, -72(tp)
80008c00: 83 22 c2 fa  	lw	t0, -84(tp)
80008c04: 23 20 52 fc  	sw	t0, -64(tp)
80008c08: 03 23 02 fc  	lw	t1, -64(tp)
80008c0c: 83 22 82 fb  	lw	t0, -72(tp)
80008c10: 63 f8 62 02  	bgeu	t0, t1, 0x80008c40 <.LBB2_4>
80008c14: 6f 00 40 00  	j	0x80008c18 <.LBB2_1>

80008c18 <.LBB2_1>:
80008c18: 83 22 02 fb  	lw	t0, -80(tp)
80008c1c: 63 8c 02 00  	beqz	t0, 0x80008c34 <.LBB2_3>
80008c20: 6f 00 40 00  	j	0x80008c24 <.LBB2_2>

80008c24 <.LBB2_2>:
80008c24: 83 22 82 fb  	lw	t0, -72(tp)
80008c28: 03 23 02 fb  	lw	t1, -80(tp)
80008c2c: 23 20 53 00  	sw	t0, 0(t1)
80008c30: 6f 00 40 00  	j	0x80008c34 <.LBB2_3>

80008c34 <.LBB2_3>:
80008c34: 93 02 00 00  	li	t0, 0
80008c38: 23 22 52 fa  	sw	t0, -92(tp)
80008c3c: 6f 00 40 28  	j	0x80008ec0 <.LBB2_18>

80008c40 <.LBB2_4>:
80008c40: 83 22 42 fc  	lw	t0, -60(tp)
80008c44: 63 98 02 0c  	bnez	t0, 0x80008d14 <.LBB2_11>
80008c48: 6f 00 40 00  	j	0x80008c4c <.LBB2_5>

80008c4c <.LBB2_5>:
80008c4c: 93 02 00 00  	li	t0, 0
80008c50: 23 2a 52 fc  	sw	t0, -44(tp)
80008c54: 83 22 c2 fb  	lw	t0, -68(tp)
80008c58: 03 23 02 fc  	lw	t1, -64(tp)
80008c5c: 63 f0 62 04  	bgeu	t0, t1, 0x80008c9c <.LBB2_7>
80008c60: 6f 00 40 00  	j	0x80008c64 <.LBB2_6>

80008c64 <.LBB2_6>:
80008c64: 03 24 c2 fb  	lw	s0, -68(tp)
80008c68: 83 23 82 fb  	lw	t2, -72(tp)
80008c6c: 03 23 02 fc  	lw	t1, -64(tp)
80008c70: 93 02 02 fd  	addi	t0, tp, -48
80008c74: 57 40 04 5e  	<unknown>
80008c78: d7 c0 03 5e  	<unknown>
80008c7c: 57 41 03 5e  	<unknown>
80008c80: d7 c1 02 5e  	<unknown>
80008c84: ef 00 80 25  	jal	0x80008edc <udiv128by64to64default>
80008c88: 0b 20 80 00  	regext	zero, zero, 8
80008c8c: 7b 64 00 fc  	vsw12.v	v0, -56(v0)
80008c90: 93 02 00 00  	li	t0, 0
80008c94: 23 26 52 fc  	sw	t0, -52(tp)
80008c98: 6f 00 40 05  	j	0x80008cec <.LBB2_8>

80008c9c <.LBB2_7>:
80008c9c: 83 22 c2 fb  	lw	t0, -68(tp)
80008ca0: 03 23 02 fc  	lw	t1, -64(tp)
80008ca4: b3 d2 62 02  	divu	t0, t0, t1
80008ca8: 23 26 52 fc  	sw	t0, -52(tp)
80008cac: 83 22 c2 fb  	lw	t0, -68(tp)
80008cb0: 03 23 02 fc  	lw	t1, -64(tp)
80008cb4: b3 f2 62 02  	remu	t0, t0, t1
80008cb8: 23 2e 52 fa  	sw	t0, -68(tp)
80008cbc: 03 24 c2 fb  	lw	s0, -68(tp)
80008cc0: 83 23 82 fb  	lw	t2, -72(tp)
80008cc4: 03 23 02 fc  	lw	t1, -64(tp)
80008cc8: 93 02 02 fd  	addi	t0, tp, -48
80008ccc: 57 40 04 5e  	<unknown>
80008cd0: d7 c0 03 5e  	<unknown>
80008cd4: 57 41 03 5e  	<unknown>
80008cd8: d7 c1 02 5e  	<unknown>
80008cdc: ef 00 00 20  	jal	0x80008edc <udiv128by64to64default>
80008ce0: 0b 20 80 00  	regext	zero, zero, 8
80008ce4: 7b 64 00 fc  	vsw12.v	v0, -56(v0)
80008ce8: 6f 00 40 00  	j	0x80008cec <.LBB2_8>

80008cec <.LBB2_8>:
80008cec: 83 22 02 fb  	lw	t0, -80(tp)
80008cf0: 63 8c 02 00  	beqz	t0, 0x80008d08 <.LBB2_10>
80008cf4: 6f 00 40 00  	j	0x80008cf8 <.LBB2_9>

80008cf8 <.LBB2_9>:
80008cf8: 83 22 02 fd  	lw	t0, -48(tp)
80008cfc: 03 23 02 fb  	lw	t1, -80(tp)
80008d00: 23 20 53 00  	sw	t0, 0(t1)
80008d04: 6f 00 40 00  	j	0x80008d08 <.LBB2_10>

80008d08 <.LBB2_10>:
80008d08: 83 22 82 fc  	lw	t0, -56(tp)
80008d0c: 23 22 52 fa  	sw	t0, -92(tp)
80008d10: 6f 00 00 1b  	j	0x80008ec0 <.LBB2_18>

80008d14 <.LBB2_11>:
80008d14: 83 22 42 fc  	lw	t0, -60(tp)
80008d18: 13 d3 12 00  	srli	t1, t0, 1
80008d1c: b3 e2 62 00  	or	t0, t0, t1
80008d20: 13 d3 22 00  	srli	t1, t0, 2
80008d24: b3 e2 62 00  	or	t0, t0, t1
80008d28: 13 d3 42 00  	srli	t1, t0, 4
80008d2c: b3 e2 62 00  	or	t0, t0, t1
80008d30: 13 d3 82 00  	srli	t1, t0, 8
80008d34: b3 e2 62 00  	or	t0, t0, t1
80008d38: 13 d3 02 01  	srli	t1, t0, 16
80008d3c: b3 e2 62 00  	or	t0, t0, t1
80008d40: 93 c2 f2 ff  	not	t0, t0
80008d44: 13 d3 12 00  	srli	t1, t0, 1
80008d48: b7 53 55 55  	lui	t2, 349525
80008d4c: 93 85 53 55  	addi	a1, t2, 1365
80008d50: 33 73 b3 00  	and	t1, t1, a1
80008d54: 33 83 62 40  	sub	t1, t0, t1
80008d58: b7 32 33 33  	lui	t0, 209715
80008d5c: 13 85 32 33  	addi	a0, t0, 819
80008d60: b3 72 a3 00  	and	t0, t1, a0
80008d64: 13 53 23 00  	srli	t1, t1, 2
80008d68: 33 73 a3 00  	and	t1, t1, a0
80008d6c: b3 82 62 00  	add	t0, t0, t1
80008d70: 13 d3 42 00  	srli	t1, t0, 4
80008d74: b3 82 62 00  	add	t0, t0, t1
80008d78: 37 13 0f 0f  	lui	t1, 61681
80008d7c: 13 04 f3 f0  	addi	s0, t1, -241
80008d80: b3 f2 82 00  	and	t0, t0, s0
80008d84: 37 03 01 01  	lui	t1, 4112
80008d88: 93 03 13 10  	addi	t2, t1, 257
80008d8c: b3 82 72 02  	mul	t0, t0, t2
80008d90: 93 d2 82 01  	srli	t0, t0, 24
80008d94: 03 23 c2 fb  	lw	t1, -68(tp)
80008d98: 93 54 13 00  	srli	s1, t1, 1
80008d9c: 33 63 93 00  	or	t1, t1, s1
80008da0: 93 54 23 00  	srli	s1, t1, 2
80008da4: 33 63 93 00  	or	t1, t1, s1
80008da8: 93 54 43 00  	srli	s1, t1, 4
80008dac: 33 63 93 00  	or	t1, t1, s1
80008db0: 93 54 83 00  	srli	s1, t1, 8
80008db4: 33 63 93 00  	or	t1, t1, s1
80008db8: 93 54 03 01  	srli	s1, t1, 16
80008dbc: 33 63 93 00  	or	t1, t1, s1
80008dc0: 13 43 f3 ff  	not	t1, t1
80008dc4: 93 54 13 00  	srli	s1, t1, 1
80008dc8: b3 f4 b4 00  	and	s1, s1, a1
80008dcc: b3 04 93 40  	sub	s1, t1, s1
80008dd0: 33 f3 a4 00  	and	t1, s1, a0
80008dd4: 93 d4 24 00  	srli	s1, s1, 2
80008dd8: b3 f4 a4 00  	and	s1, s1, a0
80008ddc: 33 03 93 00  	add	t1, t1, s1
80008de0: 93 54 43 00  	srli	s1, t1, 4
80008de4: 33 03 93 00  	add	t1, t1, s1
80008de8: 33 73 83 00  	and	t1, t1, s0
80008dec: 33 03 73 02  	mul	t1, t1, t2
80008df0: 13 53 83 01  	srli	t1, t1, 24
80008df4: b3 82 62 40  	sub	t0, t0, t1
80008df8: 23 2c 52 fc  	sw	t0, -40(tp)
80008dfc: 03 23 82 fd  	lw	t1, -40(tp)
80008e00: 83 22 02 fc  	lw	t0, -64(tp)
80008e04: b3 92 62 00  	sll	t0, t0, t1
80008e08: 23 20 52 fc  	sw	t0, -64(tp)
80008e0c: 93 02 00 00  	li	t0, 0
80008e10: 23 26 52 fc  	sw	t0, -52(tp)
80008e14: 23 24 52 fc  	sw	t0, -56(tp)
80008e18: 6f 00 40 00  	j	0x80008e1c <.LBB2_12>

80008e1c <.LBB2_12>:
80008e1c: 83 22 82 fd  	lw	t0, -40(tp)
80008e20: 63 cc 02 06  	bltz	t0, 0x80008e98 <.LBB2_15>
80008e24: 6f 00 40 00  	j	0x80008e28 <.LBB2_13>

80008e28 <.LBB2_13>:
80008e28: 83 22 82 fc  	lw	t0, -56(tp)
80008e2c: 93 92 12 00  	slli	t0, t0, 1
80008e30: 23 24 52 fc  	sw	t0, -56(tp)
80008e34: 03 23 02 fc  	lw	t1, -64(tp)
80008e38: 83 22 82 fb  	lw	t0, -72(tp)
80008e3c: 93 c2 f2 ff  	not	t0, t0
80008e40: b3 82 62 00  	add	t0, t0, t1
80008e44: 93 d2 f2 41  	srai	t0, t0, 31
80008e48: 23 2e 52 fc  	sw	t0, -36(tp)
80008e4c: 83 22 c2 fd  	lw	t0, -36(tp)
80008e50: 13 f3 12 00  	andi	t1, t0, 1
80008e54: 83 22 82 fc  	lw	t0, -56(tp)
80008e58: b3 e2 62 00  	or	t0, t0, t1
80008e5c: 23 24 52 fc  	sw	t0, -56(tp)
80008e60: 83 22 02 fc  	lw	t0, -64(tp)
80008e64: 03 23 c2 fd  	lw	t1, -36(tp)
80008e68: 33 f3 62 00  	and	t1, t0, t1
80008e6c: 83 22 82 fb  	lw	t0, -72(tp)
80008e70: b3 82 62 40  	sub	t0, t0, t1
80008e74: 23 2c 52 fa  	sw	t0, -72(tp)
80008e78: 83 22 02 fc  	lw	t0, -64(tp)
80008e7c: 93 d2 12 00  	srli	t0, t0, 1
80008e80: 23 20 52 fc  	sw	t0, -64(tp)
80008e84: 6f 00 40 00  	j	0x80008e88 <.LBB2_14>

80008e88 <.LBB2_14>:
80008e88: 83 22 82 fd  	lw	t0, -40(tp)
80008e8c: 93 82 f2 ff  	addi	t0, t0, -1
80008e90: 23 2c 52 fc  	sw	t0, -40(tp)
80008e94: 6f f0 9f f8  	j	0x80008e1c <.LBB2_12>

80008e98 <.LBB2_15>:
80008e98: 83 22 02 fb  	lw	t0, -80(tp)
80008e9c: 63 8c 02 00  	beqz	t0, 0x80008eb4 <.LBB2_17>
80008ea0: 6f 00 40 00  	j	0x80008ea4 <.LBB2_16>

80008ea4 <.LBB2_16>:
80008ea4: 83 22 82 fb  	lw	t0, -72(tp)
80008ea8: 03 23 02 fb  	lw	t1, -80(tp)
80008eac: 23 20 53 00  	sw	t0, 0(t1)
80008eb0: 6f 00 40 00  	j	0x80008eb4 <.LBB2_17>

80008eb4 <.LBB2_17>:
80008eb4: 83 22 82 fc  	lw	t0, -56(tp)
80008eb8: 23 22 52 fa  	sw	t0, -92(tp)
80008ebc: 6f 00 40 00  	j	0x80008ec0 <.LBB2_18>

80008ec0 <.LBB2_18>:
80008ec0: 83 22 42 fa  	lw	t0, -92(tp)
80008ec4: 57 c0 02 5e  	<unknown>
80008ec8: 83 20 c1 ff  	lw	ra, -4(sp)
80008ecc: 0b c0 00 04  	barrier	x0, x0, 1
80008ed0: 13 01 c1 ff  	addi	sp, sp, -4
80008ed4: 13 02 42 fa  	addi	tp, tp, -92
80008ed8: 67 80 00 00  	ret

80008edc <udiv128by64to64default>:
80008edc: 13 01 c1 00  	addi	sp, sp, 12
80008ee0: 13 02 42 04  	addi	tp, tp, 68
80008ee4: 0b 20 10 00  	regext	zero, zero, 1
80008ee8: 57 40 02 5e  	<unknown>
80008eec: 23 2a 11 fe  	sw	ra, -12(sp)
80008ef0: 0b 20 80 00  	regext	zero, zero, 8
80008ef4: 7b 6a 00 fa  	vsw12.v	v0, -76(v0)
80008ef8: 0b 20 80 00  	regext	zero, zero, 8
80008efc: 7b 6c 10 fa  	vsw12.v	v1, -72(v0)
80008f00: 0b 20 80 00  	regext	zero, zero, 8
80008f04: 7b 6e 20 fa  	vsw12.v	v2, -68(v0)
80008f08: 0b 20 80 00  	regext	zero, zero, 8
80008f0c: 7b 60 30 fc  	vsw12.v	v3, -64(v0)
80008f10: 93 02 00 02  	li	t0, 32
80008f14: 23 22 52 fc  	sw	t0, -60(tp)
80008f18: b7 02 01 00  	lui	t0, 16
80008f1c: 23 24 52 fc  	sw	t0, -56(tp)
80008f20: 83 22 c2 fb  	lw	t0, -68(tp)
80008f24: 13 d3 12 00  	srli	t1, t0, 1
80008f28: b3 e2 62 00  	or	t0, t0, t1
80008f2c: 13 d3 22 00  	srli	t1, t0, 2
80008f30: b3 e2 62 00  	or	t0, t0, t1
80008f34: 13 d3 42 00  	srli	t1, t0, 4
80008f38: b3 e2 62 00  	or	t0, t0, t1
80008f3c: 13 d3 82 00  	srli	t1, t0, 8
80008f40: b3 e2 62 00  	or	t0, t0, t1
80008f44: 13 d3 02 01  	srli	t1, t0, 16
80008f48: b3 e2 62 00  	or	t0, t0, t1
80008f4c: 93 c2 f2 ff  	not	t0, t0
80008f50: 13 d3 12 00  	srli	t1, t0, 1
80008f54: b7 53 55 55  	lui	t2, 349525
80008f58: 93 83 53 55  	addi	t2, t2, 1365
80008f5c: 33 73 73 00  	and	t1, t1, t2
80008f60: 33 83 62 40  	sub	t1, t0, t1
80008f64: b7 32 33 33  	lui	t0, 209715
80008f68: 93 83 32 33  	addi	t2, t0, 819
80008f6c: b3 72 73 00  	and	t0, t1, t2
80008f70: 13 53 23 00  	srli	t1, t1, 2
80008f74: 33 73 73 00  	and	t1, t1, t2
80008f78: b3 82 62 00  	add	t0, t0, t1
80008f7c: 13 d3 42 00  	srli	t1, t0, 4
80008f80: b3 82 62 00  	add	t0, t0, t1
80008f84: 37 13 0f 0f  	lui	t1, 61681
80008f88: 13 03 f3 f0  	addi	t1, t1, -241
80008f8c: b3 f2 62 00  	and	t0, t0, t1
80008f90: 37 03 01 01  	lui	t1, 4112
80008f94: 13 03 13 10  	addi	t1, t1, 257
80008f98: b3 82 62 02  	mul	t0, t0, t1
80008f9c: 93 d2 82 01  	srli	t0, t0, 24
80008fa0: 93 82 02 02  	addi	t0, t0, 32
80008fa4: 23 2a 52 fe  	sw	t0, -12(tp)
80008fa8: 03 23 42 ff  	lw	t1, -12(tp)
80008fac: 93 02 00 00  	li	t0, 0
80008fb0: 63 d6 62 04  	bge	t0, t1, 0x80008ffc <.LBB3_2>
80008fb4: 6f 00 40 00  	j	0x80008fb8 <.LBB3_1>

80008fb8 <.LBB3_1>:
80008fb8: 83 22 c2 fb  	lw	t0, -68(tp)
80008fbc: 03 23 42 ff  	lw	t1, -12(tp)
80008fc0: b3 92 62 00  	sll	t0, t0, t1
80008fc4: 23 2e 52 fa  	sw	t0, -68(tp)
80008fc8: 83 22 42 fb  	lw	t0, -76(tp)
80008fcc: 83 23 42 ff  	lw	t2, -12(tp)
80008fd0: b3 92 72 00  	sll	t0, t0, t2
80008fd4: 03 23 82 fb  	lw	t1, -72(tp)
80008fd8: b3 03 70 40  	neg	t2, t2
80008fdc: 33 53 73 00  	srl	t1, t1, t2
80008fe0: b3 e2 62 00  	or	t0, t0, t1
80008fe4: 23 22 52 fe  	sw	t0, -28(tp)
80008fe8: 83 22 82 fb  	lw	t0, -72(tp)
80008fec: 03 23 42 ff  	lw	t1, -12(tp)
80008ff0: b3 92 62 00  	sll	t0, t0, t1
80008ff4: 23 26 52 fe  	sw	t0, -20(tp)
80008ff8: 6f 00 80 01  	j	0x80009010 <.LBB3_3>

80008ffc <.LBB3_2>:
80008ffc: 83 22 42 fb  	lw	t0, -76(tp)
80009000: 23 22 52 fe  	sw	t0, -28(tp)
80009004: 83 22 82 fb  	lw	t0, -72(tp)
80009008: 23 26 52 fe  	sw	t0, -20(tp)
8000900c: 6f 00 40 00  	j	0x80009010 <.LBB3_3>

80009010 <.LBB3_3>:
80009010: 83 52 e2 fb  	lhu	t0, -66(tp)
80009014: 23 2a 52 fc  	sw	t0, -44(tp)
80009018: 83 22 c2 fb  	lw	t0, -68(tp)
8000901c: 23 2c 52 fc  	sw	t0, -40(tp)
80009020: 83 52 e2 fe  	lhu	t0, -18(tp)
80009024: 23 26 52 fc  	sw	t0, -52(tp)
80009028: 83 22 c2 fe  	lw	t0, -20(tp)
8000902c: 23 28 52 fc  	sw	t0, -48(tp)
80009030: 83 22 42 fe  	lw	t0, -28(tp)
80009034: 03 23 42 fd  	lw	t1, -44(tp)
80009038: b3 d2 62 02  	divu	t0, t0, t1
8000903c: 23 2e 52 fc  	sw	t0, -36(tp)
80009040: 83 22 42 fe  	lw	t0, -28(tp)
80009044: 03 23 c2 fd  	lw	t1, -36(tp)
80009048: 83 23 42 fd  	lw	t2, -44(tp)
8000904c: 33 03 73 02  	mul	t1, t1, t2
80009050: b3 82 62 40  	sub	t0, t0, t1
80009054: 23 28 52 fe  	sw	t0, -16(tp)
80009058: 6f 00 40 00  	j	0x8000905c <.LBB3_4>

8000905c <.LBB3_4>:
8000905c: 83 52 e2 fd  	lhu	t0, -34(tp)
80009060: 13 03 10 00  	li	t1, 1
80009064: 23 2e 61 02  	sw	t1, 60(sp)
80009068: 63 98 02 02  	bnez	t0, 0x80009098 <.LBB3_6>
8000906c: 6f 00 40 00  	j	0x80009070 <.LBB3_5>

80009070 <.LBB3_5>:
80009070: 83 22 c2 fd  	lw	t0, -36(tp)
80009074: 03 23 82 fd  	lw	t1, -40(tp)
80009078: 33 83 62 02  	mul	t1, t0, t1
8000907c: 83 22 02 ff  	lw	t0, -16(tp)
80009080: 93 92 02 01  	slli	t0, t0, 16
80009084: 83 23 c2 fc  	lw	t2, -52(tp)
80009088: b3 82 72 00  	add	t0, t0, t2
8000908c: b3 b2 62 00  	sltu	t0, t0, t1
80009090: 23 2e 51 02  	sw	t0, 60(sp)
80009094: 6f 00 40 00  	j	0x80009098 <.LBB3_6>

80009098 <.LBB3_6>:
80009098: 83 22 c1 03  	lw	t0, 60(sp)
8000909c: 93 f2 12 00  	andi	t0, t0, 1
800090a0: 63 8e 02 02  	beqz	t0, 0x800090dc <.LBB3_10>
800090a4: 6f 00 40 00  	j	0x800090a8 <.LBB3_7>

800090a8 <.LBB3_7>:
800090a8: 83 22 c2 fd  	lw	t0, -36(tp)
800090ac: 13 03 10 00  	li	t1, 1
800090b0: b3 82 62 40  	sub	t0, t0, t1
800090b4: 23 2e 52 fc  	sw	t0, -36(tp)
800090b8: 83 22 02 ff  	lw	t0, -16(tp)
800090bc: 03 23 42 fd  	lw	t1, -44(tp)
800090c0: b3 82 62 00  	add	t0, t0, t1
800090c4: 23 28 52 fe  	sw	t0, -16(tp)
800090c8: 83 52 22 ff  	lhu	t0, -14(tp)
800090cc: 63 86 02 00  	beqz	t0, 0x800090d8 <.LBB3_9>
800090d0: 6f 00 40 00  	j	0x800090d4 <.LBB3_8>

800090d4 <.LBB3_8>:
800090d4: 6f 00 80 00  	j	0x800090dc <.LBB3_10>

800090d8 <.LBB3_9>:
800090d8: 6f f0 5f f8  	j	0x8000905c <.LBB3_4>

800090dc <.LBB3_10>:
800090dc: 83 22 42 fe  	lw	t0, -28(tp)
800090e0: 93 92 02 01  	slli	t0, t0, 16
800090e4: 03 23 c2 fc  	lw	t1, -52(tp)
800090e8: b3 82 62 00  	add	t0, t0, t1
800090ec: 03 23 c2 fd  	lw	t1, -36(tp)
800090f0: 83 23 c2 fb  	lw	t2, -68(tp)
800090f4: 33 03 73 02  	mul	t1, t1, t2
800090f8: b3 82 62 40  	sub	t0, t0, t1
800090fc: 23 24 52 fe  	sw	t0, -24(tp)
80009100: 83 22 82 fe  	lw	t0, -24(tp)
80009104: 03 23 42 fd  	lw	t1, -44(tp)
80009108: b3 d2 62 02  	divu	t0, t0, t1
8000910c: 23 20 52 fe  	sw	t0, -32(tp)
80009110: 83 22 82 fe  	lw	t0, -24(tp)
80009114: 03 23 02 fe  	lw	t1, -32(tp)
80009118: 83 23 42 fd  	lw	t2, -44(tp)
8000911c: 33 03 73 02  	mul	t1, t1, t2
80009120: b3 82 62 40  	sub	t0, t0, t1
80009124: 23 28 52 fe  	sw	t0, -16(tp)
80009128: 6f 00 40 00  	j	0x8000912c <.LBB3_11>

8000912c <.LBB3_11>:
8000912c: 83 52 22 fe  	lhu	t0, -30(tp)
80009130: 13 03 10 00  	li	t1, 1
80009134: 23 20 61 04  	sw	t1, 64(sp)
80009138: 63 98 02 02  	bnez	t0, 0x80009168 <.LBB3_13>
8000913c: 6f 00 40 00  	j	0x80009140 <.LBB3_12>

80009140 <.LBB3_12>:
80009140: 83 22 02 fe  	lw	t0, -32(tp)
80009144: 03 23 82 fd  	lw	t1, -40(tp)
80009148: 33 83 62 02  	mul	t1, t0, t1
8000914c: 83 22 02 ff  	lw	t0, -16(tp)
80009150: 93 92 02 01  	slli	t0, t0, 16
80009154: 83 23 02 fd  	lw	t2, -48(tp)
80009158: b3 82 72 00  	add	t0, t0, t2
8000915c: b3 b2 62 00  	sltu	t0, t0, t1
80009160: 23 20 51 04  	sw	t0, 64(sp)
80009164: 6f 00 40 00  	j	0x80009168 <.LBB3_13>

80009168 <.LBB3_13>:
80009168: 83 22 01 04  	lw	t0, 64(sp)
8000916c: 93 f2 12 00  	andi	t0, t0, 1
80009170: 63 8e 02 02  	beqz	t0, 0x800091ac <.LBB3_17>
80009174: 6f 00 40 00  	j	0x80009178 <.LBB3_14>

80009178 <.LBB3_14>:
80009178: 83 22 02 fe  	lw	t0, -32(tp)
8000917c: 13 03 10 00  	li	t1, 1
80009180: b3 82 62 40  	sub	t0, t0, t1
80009184: 23 20 52 fe  	sw	t0, -32(tp)
80009188: 83 22 02 ff  	lw	t0, -16(tp)
8000918c: 03 23 42 fd  	lw	t1, -44(tp)
80009190: b3 82 62 00  	add	t0, t0, t1
80009194: 23 28 52 fe  	sw	t0, -16(tp)
80009198: 83 52 22 ff  	lhu	t0, -14(tp)
8000919c: 63 86 02 00  	beqz	t0, 0x800091a8 <.LBB3_16>
800091a0: 6f 00 40 00  	j	0x800091a4 <.LBB3_15>

800091a4 <.LBB3_15>:
800091a4: 6f 00 80 00  	j	0x800091ac <.LBB3_17>

800091a8 <.LBB3_16>:
800091a8: 6f f0 5f f8  	j	0x8000912c <.LBB3_11>

800091ac <.LBB3_17>:
800091ac: 83 22 82 fe  	lw	t0, -24(tp)
800091b0: 93 92 02 01  	slli	t0, t0, 16
800091b4: 03 23 02 fd  	lw	t1, -48(tp)
800091b8: b3 82 62 00  	add	t0, t0, t1
800091bc: 03 23 02 fe  	lw	t1, -32(tp)
800091c0: 83 23 c2 fb  	lw	t2, -68(tp)
800091c4: 33 03 73 02  	mul	t1, t1, t2
800091c8: b3 82 62 40  	sub	t0, t0, t1
800091cc: 03 23 42 ff  	lw	t1, -12(tp)
800091d0: b3 d2 62 00  	srl	t0, t0, t1
800091d4: 03 23 02 fc  	lw	t1, -64(tp)
800091d8: 23 20 53 00  	sw	t0, 0(t1)
800091dc: 83 22 c2 fd  	lw	t0, -36(tp)
800091e0: 93 92 02 01  	slli	t0, t0, 16
800091e4: 03 23 02 fe  	lw	t1, -32(tp)
800091e8: b3 82 62 00  	add	t0, t0, t1
800091ec: 57 c0 02 5e  	<unknown>
800091f0: 83 20 41 ff  	lw	ra, -12(sp)
800091f4: 0b c0 00 04  	barrier	x0, x0, 1
800091f8: 13 01 41 ff  	addi	sp, sp, -12
800091fc: 13 02 c2 fb  	addi	tp, tp, -68
80009200: 67 80 00 00  	ret

80009204 <errol0_dtoa>:
80009204: 13 01 41 08  	addi	sp, sp, 132
80009208: 13 02 42 0a  	addi	tp, tp, 164
8000920c: 0b 20 10 00  	regext	zero, zero, 1
80009210: 57 40 02 5e  	<unknown>
80009214: 23 2e 11 f6  	sw	ra, -132(sp)
80009218: 0b 20 80 00  	regext	zero, zero, 8
8000921c: 7b 62 10 ee  	vsw12.v	v1, -284(v0)
80009220: 0b 20 80 00  	regext	zero, zero, 8
80009224: 7b 60 00 ee  	vsw12.v	v0, -288(v0)
80009228: 0b 20 80 00  	regext	zero, zero, 8
8000922c: 7b 64 20 ee  	vsw12.v	v2, -280(v0)
80009230: 03 24 02 ee  	lw	s0, -288(tp)
80009234: 83 23 42 ee  	lw	t2, -284(tp)
80009238: b7 02 f0 7f  	lui	t0, 524032
8000923c: 93 82 f2 ff  	addi	t0, t0, -1
80009240: 13 03 f0 ff  	li	t1, -1
80009244: 57 40 04 5e  	<unknown>
80009248: d7 c0 03 5e  	<unknown>
8000924c: 57 41 03 5e  	<unknown>
80009250: d7 c1 02 5e  	<unknown>
80009254: ef 80 1f 98  	jal	0x80001bd4 <__nedf2>
80009258: 93 02 00 00  	li	t0, 0
8000925c: d7 c0 02 5e  	<unknown>

80009260 <.Lpcrel_hi0>:
80009260: 17 13 00 00  	auipc	t1, 1
80009264: 5b 30 03 9e  	setrpc	zero, t1, -1568
80009268: 5b 96 00 02  	vbne	v0, v1, 0x80009294 <.LBB4_2>
8000926c: 6f 00 40 00  	j	0x80009270 <.LBB4_1>

80009270 <.LBB4_1>:
80009270: 03 23 82 ee  	lw	t1, -280(tp)
80009274: b7 f2 00 80  	lui	t0, 524303
80009278: 93 82 72 03  	addi	t0, t0, 55
8000927c: 57 40 03 5e  	<unknown>
80009280: d7 c0 02 5e  	<unknown>
80009284: ef 00 d0 1d  	jal	0x80009c60 <strcpy>
80009288: 93 02 50 13  	li	t0, 309
8000928c: 23 2e 52 ec  	sw	t0, -292(tp)
80009290: 6f 00 10 1b  	j	0x80009c40 <.LBB4_44>

80009294 <.LBB4_2>:
80009294: b7 02 f0 3f  	lui	t0, 261888
80009298: 23 2a 52 ee  	sw	t0, -268(tp)
8000929c: 93 02 00 00  	li	t0, 0
800092a0: 23 28 52 ee  	sw	t0, -272(tp)
800092a4: 13 03 10 00  	li	t1, 1
800092a8: 23 2c 62 ee  	sw	t1, -264(tp)
800092ac: 03 23 02 ee  	lw	t1, -288(tp)
800092b0: 83 23 42 ee  	lw	t2, -284(tp)
800092b4: 23 22 72 f0  	sw	t2, -252(tp)
800092b8: 23 20 62 f0  	sw	t1, -256(tp)
800092bc: 23 26 52 f0  	sw	t0, -244(tp)
800092c0: 23 24 52 f0  	sw	t0, -248(tp)
800092c4: 6f 00 40 00  	j	0x800092c8 <.LBB4_3>

800092c8 <.LBB4_3>:
800092c8: 03 24 02 f0  	lw	s0, -256(tp)
800092cc: 83 23 42 f0  	lw	t2, -252(tp)
800092d0: 13 03 00 00  	li	t1, 0
800092d4: 23 22 61 fe  	sw	t1, -28(sp)
800092d8: b7 02 24 40  	lui	t0, 262720
800092dc: 57 40 04 5e  	<unknown>
800092e0: d7 c0 03 5e  	<unknown>
800092e4: 57 41 03 5e  	<unknown>
800092e8: d7 c1 02 5e  	<unknown>
800092ec: ef 80 9f cb  	jal	0x80001fa4 <__gtdf2>
800092f0: 83 22 41 fe  	lw	t0, -28(sp)
800092f4: d7 40 00 02  	vadd.vx	v1, v0, zero
800092f8: 57 c0 02 5e  	<unknown>

800092fc <.Lpcrel_hi1>:
800092fc: 17 03 00 00  	auipc	t1, 0
80009300: 5b 30 c3 0a  	setrpc	zero, t1, 172
80009304: 5b ca 00 08  	vblt	v0, v1, 0x80009398 <.LBB4_6>
80009308: 6f 00 40 00  	j	0x8000930c <.LBB4_4>

8000930c <.LBB4_4>:
8000930c: 03 24 02 f0  	lw	s0, -256(tp)
80009310: 83 23 42 f0  	lw	t2, -252(tp)
80009314: 13 03 00 00  	li	t1, 0
80009318: 23 26 61 fe  	sw	t1, -20(sp)
8000931c: b7 02 24 40  	lui	t0, 262720
80009320: 57 40 04 5e  	<unknown>
80009324: d7 c0 03 5e  	<unknown>
80009328: 57 41 03 5e  	<unknown>
8000932c: d7 c1 02 5e  	<unknown>
80009330: ef 80 5f 8a  	jal	0x80001bd4 <__nedf2>
80009334: 03 23 c1 fe  	lw	t1, -20(sp)
80009338: 93 02 03 00  	mv	t0, t1
8000933c: d7 40 03 5e  	<unknown>
80009340: 23 24 51 fe  	sw	t0, -24(sp)

80009344 <.Lpcrel_hi2>:
80009344: 17 03 00 00  	auipc	t1, 0
80009348: 5b 30 43 06  	setrpc	zero, t1, 100
8000934c: 5b 9e 00 04  	vbne	v0, v1, 0x800093a8 <.LBB4_7>
80009350: 6f 00 40 00  	j	0x80009354 <.LBB4_5>

80009354 <.LBB4_5>:
80009354: 83 23 82 f0  	lw	t2, -248(tp)
80009358: 03 23 c2 f0  	lw	t1, -244(tp)
8000935c: 93 02 00 00  	li	t0, 0
80009360: 23 28 51 fe  	sw	t0, -16(sp)
80009364: 57 c0 03 5e  	<unknown>
80009368: d7 40 03 5e  	<unknown>
8000936c: 57 c1 02 5e  	<unknown>
80009370: d7 c1 02 5e  	<unknown>
80009374: ef 80 9f ae  	jal	0x80001e5c <__gedf2>
80009378: 03 23 01 ff  	lw	t1, -16(sp)
8000937c: 93 02 03 00  	mv	t0, t1
80009380: d7 40 03 5e  	<unknown>
80009384: 23 24 51 fe  	sw	t0, -24(sp)

80009388 <.Lpcrel_hi3>:
80009388: 17 03 00 00  	auipc	t1, 0
8000938c: 5b 30 03 02  	setrpc	zero, t1, 32
80009390: 5b cc 00 00  	vblt	v0, v1, 0x800093a8 <.LBB4_7>
80009394: 6f 00 40 00  	j	0x80009398 <.LBB4_6>

80009398 <.LBB4_6>:
80009398: 83 22 82 ef  	lw	t0, -264(tp)
8000939c: 93 a2 42 13  	slti	t0, t0, 308
800093a0: 23 24 51 fe  	sw	t0, -24(sp)
800093a4: 6f 00 40 00  	j	0x800093a8 <.LBB4_7>

800093a8 <.LBB4_7>:
800093a8: 5b 20 00 00  	join	zero, zero, 0
800093ac: 83 22 81 fe  	lw	t0, -24(sp)
800093b0: 93 f2 12 00  	andi	t0, t0, 1
800093b4: 63 8c 02 04  	beqz	t0, 0x8000940c <.LBB4_9>
800093b8: 6f 00 40 00  	j	0x800093bc <.LBB4_8>

800093bc <.LBB4_8>:
800093bc: 83 22 82 ef  	lw	t0, -264(tp)
800093c0: 93 82 12 00  	addi	t0, t0, 1
800093c4: 23 2c 52 ee  	sw	t0, -264(tp)
800093c8: 93 02 02 f0  	addi	t0, tp, -256
800093cc: 57 c0 02 5e  	<unknown>
800093d0: ef 00 90 10  	jal	0x80009cd8 <hp_div10>
800093d4: 03 24 02 ef  	lw	s0, -272(tp)
800093d8: 83 23 42 ef  	lw	t2, -268(tp)
800093dc: 13 03 00 00  	li	t1, 0
800093e0: b7 02 24 40  	lui	t0, 262720
800093e4: 57 40 04 5e  	<unknown>
800093e8: d7 c0 03 5e  	<unknown>
800093ec: 57 41 03 5e  	<unknown>
800093f0: d7 c1 02 5e  	<unknown>
800093f4: ef 70 8f ea  	jal	0x80000a9c <__divdf3>
800093f8: 0b 20 80 00  	regext	zero, zero, 8
800093fc: 7b 6a 10 ee  	vsw12.v	v1, -268(v0)
80009400: 0b 20 80 00  	regext	zero, zero, 8
80009404: 7b 68 00 ee  	vsw12.v	v0, -272(v0)
80009408: 6f f0 1f ec  	j	0x800092c8 <.LBB4_3>

8000940c <.LBB4_9>:
8000940c: 6f 00 40 00  	j	0x80009410 <.LBB4_10>

80009410 <.LBB4_10>:
80009410: 03 24 02 f0  	lw	s0, -256(tp)
80009414: 83 23 42 f0  	lw	t2, -252(tp)
80009418: 13 03 00 00  	li	t1, 0
8000941c: 23 2a 61 fe  	sw	t1, -12(sp)
80009420: b7 02 f0 3f  	lui	t0, 261888
80009424: 57 40 04 5e  	<unknown>
80009428: d7 c0 03 5e  	<unknown>
8000942c: 57 41 03 5e  	<unknown>
80009430: d7 c1 02 5e  	<unknown>
80009434: ef 80 cf e5  	jal	0x80001a90 <__ltdf2>
80009438: 83 22 41 ff  	lw	t0, -12(sp)
8000943c: d7 c0 02 5e  	<unknown>

80009440 <.Lpcrel_hi4>:
80009440: 17 03 00 00  	auipc	t1, 0
80009444: 5b 30 03 0b  	setrpc	zero, t1, 176
80009448: 5b ca 00 08  	vblt	v0, v1, 0x800094dc <.LBB4_13>
8000944c: 6f 00 40 00  	j	0x80009450 <.LBB4_11>

80009450 <.LBB4_11>:
80009450: 03 24 02 f0  	lw	s0, -256(tp)
80009454: 83 23 42 f0  	lw	t2, -252(tp)
80009458: 13 03 00 00  	li	t1, 0
8000945c: 23 2e 61 fe  	sw	t1, -4(sp)
80009460: b7 02 f0 3f  	lui	t0, 261888
80009464: 57 40 04 5e  	<unknown>
80009468: d7 c0 03 5e  	<unknown>
8000946c: 57 41 03 5e  	<unknown>
80009470: d7 c1 02 5e  	<unknown>
80009474: ef 80 0f f6  	jal	0x80001bd4 <__nedf2>
80009478: 03 23 c1 ff  	lw	t1, -4(sp)
8000947c: 93 02 03 00  	mv	t0, t1
80009480: d7 40 03 5e  	<unknown>
80009484: 23 2c 51 fe  	sw	t0, -8(sp)

80009488 <.Lpcrel_hi5>:
80009488: 17 03 00 00  	auipc	t1, 0
8000948c: 5b 30 83 06  	setrpc	zero, t1, 104
80009490: 5b 90 00 06  	vbne	v0, v1, 0x800094f0 <.LBB4_14>
80009494: 6f 00 40 00  	j	0x80009498 <.LBB4_12>

80009498 <.LBB4_12>:
80009498: 83 23 82 f0  	lw	t2, -248(tp)
8000949c: 03 23 c2 f0  	lw	t1, -244(tp)
800094a0: 93 02 00 00  	li	t0, 0
800094a4: 23 20 51 00  	sw	t0, 0(sp)
800094a8: 57 c0 03 5e  	<unknown>
800094ac: d7 40 03 5e  	<unknown>
800094b0: 57 c1 02 5e  	<unknown>
800094b4: d7 c1 02 5e  	<unknown>
800094b8: ef 80 8f dd  	jal	0x80001a90 <__ltdf2>
800094bc: 03 23 01 00  	lw	t1, 0(sp)
800094c0: 93 02 03 00  	mv	t0, t1
800094c4: d7 40 03 5e  	<unknown>
800094c8: 23 2c 51 fe  	sw	t0, -8(sp)

800094cc <.Lpcrel_hi6>:
800094cc: 17 03 00 00  	auipc	t1, 0
800094d0: 5b 30 43 02  	setrpc	zero, t1, 36
800094d4: 5b de 00 00  	vbge	v0, v1, 0x800094f0 <.LBB4_14>
800094d8: 6f 00 40 00  	j	0x800094dc <.LBB4_13>

800094dc <.LBB4_13>:
800094dc: 83 22 82 ef  	lw	t0, -264(tp)
800094e0: 93 a2 e2 ec  	slti	t0, t0, -306
800094e4: 93 c2 12 00  	xori	t0, t0, 1
800094e8: 23 2c 51 fe  	sw	t0, -8(sp)
800094ec: 6f 00 40 00  	j	0x800094f0 <.LBB4_14>

800094f0 <.LBB4_14>:
800094f0: 5b 20 00 00  	join	zero, zero, 0
800094f4: 83 22 81 ff  	lw	t0, -8(sp)
800094f8: 93 f2 12 00  	andi	t0, t0, 1
800094fc: 63 8c 02 04  	beqz	t0, 0x80009554 <.LBB4_16>
80009500: 6f 00 40 00  	j	0x80009504 <.LBB4_15>

80009504 <.LBB4_15>:
80009504: 83 22 82 ef  	lw	t0, -264(tp)
80009508: 93 82 f2 ff  	addi	t0, t0, -1
8000950c: 23 2c 52 ee  	sw	t0, -264(tp)
80009510: 93 02 02 f0  	addi	t0, tp, -256
80009514: 57 c0 02 5e  	<unknown>
80009518: ef 00 50 1b  	jal	0x80009ecc <hp_mul10>
8000951c: 03 24 02 ef  	lw	s0, -272(tp)
80009520: 83 23 42 ef  	lw	t2, -268(tp)
80009524: 13 03 00 00  	li	t1, 0
80009528: b7 02 24 40  	lui	t0, 262720
8000952c: 57 40 04 5e  	<unknown>
80009530: d7 c0 03 5e  	<unknown>
80009534: 57 41 03 5e  	<unknown>
80009538: d7 c1 02 5e  	<unknown>
8000953c: ef 60 5f bc  	jal	0x80000100 <__muldf3>
80009540: 0b 20 80 00  	regext	zero, zero, 8
80009544: 7b 6a 10 ee  	vsw12.v	v1, -268(v0)
80009548: 0b 20 80 00  	regext	zero, zero, 8
8000954c: 7b 68 00 ee  	vsw12.v	v0, -272(v0)
80009550: 6f f0 1f ec  	j	0x80009410 <.LBB4_10>

80009554 <.LBB4_16>:
80009554: 83 22 02 f0  	lw	t0, -256(tp)
80009558: 03 23 42 f0  	lw	t1, -252(tp)
8000955c: 23 2a 62 f0  	sw	t1, -236(tp)
80009560: 23 28 52 f0  	sw	t0, -240(tp)
80009564: 83 22 c2 f0  	lw	t0, -244(tp)
80009568: 23 2a 51 00  	sw	t0, 20(sp)
8000956c: 83 22 82 f0  	lw	t0, -248(tp)
80009570: 23 2c 51 00  	sw	t0, 24(sp)
80009574: 83 22 42 ee  	lw	t0, -284(tp)
80009578: 03 23 02 ee  	lw	t1, -288(tp)
8000957c: 57 40 03 5e  	<unknown>
80009580: d7 c0 02 5e  	<unknown>
80009584: ef 00 d0 32  	jal	0x8000a0b0 <fpnext>
80009588: 03 23 02 ee  	lw	t1, -288(tp)
8000958c: 83 22 42 ee  	lw	t0, -284(tp)
80009590: 57 41 03 5e  	<unknown>
80009594: d7 c1 02 5e  	<unknown>
80009598: ef 90 8f ec  	jal	0x80002c60 <__subdf3>
8000959c: 03 23 02 ef  	lw	t1, -272(tp)
800095a0: 83 22 42 ef  	lw	t0, -268(tp)
800095a4: 57 41 03 5e  	<unknown>
800095a8: d7 c1 02 5e  	<unknown>
800095ac: ef 60 5f b5  	jal	0x80000100 <__muldf3>
800095b0: b7 02 6c 0d  	lui	t0, 54976
800095b4: 13 83 d2 94  	addi	t1, t0, -1715
800095b8: 23 28 61 00  	sw	t1, 16(sp)
800095bc: b7 02 00 40  	lui	t0, 262144
800095c0: 23 26 51 00  	sw	t0, 12(sp)
800095c4: 57 41 03 5e  	<unknown>
800095c8: d7 c1 02 5e  	<unknown>
800095cc: ef 70 0f cd  	jal	0x80000a9c <__divdf3>
800095d0: 03 23 81 01  	lw	t1, 24(sp)
800095d4: 83 22 41 01  	lw	t0, 20(sp)
800095d8: 57 41 00 02  	vadd.vx	v2, v0, zero
800095dc: d7 41 10 02  	vadd.vx	v3, v1, zero
800095e0: 57 40 03 5e  	<unknown>
800095e4: d7 c0 02 5e  	<unknown>
800095e8: ef 80 1f c3  	jal	0x80002218 <__adddf3>
800095ec: 0b 20 80 00  	regext	zero, zero, 8
800095f0: 7b 6e 10 f0  	vsw12.v	v1, -228(v0)
800095f4: 0b 20 80 00  	regext	zero, zero, 8
800095f8: 7b 6c 00 f0  	vsw12.v	v0, -232(v0)
800095fc: 83 22 02 f0  	lw	t0, -256(tp)
80009600: 03 23 42 f0  	lw	t1, -252(tp)
80009604: 23 22 62 f2  	sw	t1, -220(tp)
80009608: 23 20 52 f2  	sw	t0, -224(tp)
8000960c: 83 22 c2 f0  	lw	t0, -244(tp)
80009610: 23 22 51 00  	sw	t0, 4(sp)
80009614: 83 22 82 f0  	lw	t0, -248(tp)
80009618: 23 24 51 00  	sw	t0, 8(sp)
8000961c: 83 22 42 ee  	lw	t0, -284(tp)
80009620: 03 23 02 ee  	lw	t1, -288(tp)
80009624: 57 40 03 5e  	<unknown>
80009628: d7 c0 02 5e  	<unknown>
8000962c: ef 00 90 2e  	jal	0x8000a114 <fpprev>
80009630: 03 23 02 ee  	lw	t1, -288(tp)
80009634: 83 22 42 ee  	lw	t0, -284(tp)
80009638: 57 41 03 5e  	<unknown>
8000963c: d7 c1 02 5e  	<unknown>
80009640: ef 90 0f e2  	jal	0x80002c60 <__subdf3>
80009644: 03 23 02 ef  	lw	t1, -272(tp)
80009648: 83 22 42 ef  	lw	t0, -268(tp)
8000964c: 57 41 03 5e  	<unknown>
80009650: d7 c1 02 5e  	<unknown>
80009654: ef 60 df aa  	jal	0x80000100 <__muldf3>
80009658: 03 23 01 01  	lw	t1, 16(sp)
8000965c: 83 22 c1 00  	lw	t0, 12(sp)
80009660: 57 41 03 5e  	<unknown>
80009664: d7 c1 02 5e  	<unknown>
80009668: ef 70 4f c3  	jal	0x80000a9c <__divdf3>
8000966c: 03 23 81 00  	lw	t1, 8(sp)
80009670: 83 22 41 00  	lw	t0, 4(sp)
80009674: 57 41 00 02  	vadd.vx	v2, v0, zero
80009678: d7 41 10 02  	vadd.vx	v3, v1, zero
8000967c: 57 40 03 5e  	<unknown>
80009680: d7 c0 02 5e  	<unknown>
80009684: ef 80 5f b9  	jal	0x80002218 <__adddf3>
80009688: 0b 20 80 00  	regext	zero, zero, 8
8000968c: 7b 66 10 f2  	vsw12.v	v1, -212(v0)
80009690: 0b 20 80 00  	regext	zero, zero, 8
80009694: 7b 64 00 f2  	vsw12.v	v0, -216(v0)
80009698: 93 02 02 f1  	addi	t0, tp, -240
8000969c: 57 c0 02 5e  	<unknown>
800096a0: ef 00 90 2d  	jal	0x8000a178 <hp_normalize>
800096a4: 93 02 02 f2  	addi	t0, tp, -224
800096a8: 57 c0 02 5e  	<unknown>
800096ac: ef 00 d0 2c  	jal	0x8000a178 <hp_normalize>
800096b0: 6f 00 40 00  	j	0x800096b4 <.LBB4_17>

800096b4 <.LBB4_17>:
800096b4: 03 24 02 f1  	lw	s0, -240(tp)
800096b8: 83 23 42 f1  	lw	t2, -236(tp)
800096bc: 13 03 00 00  	li	t1, 0
800096c0: 23 20 61 02  	sw	t1, 32(sp)
800096c4: b7 02 24 40  	lui	t0, 262720
800096c8: 57 40 04 5e  	<unknown>
800096cc: d7 c0 03 5e  	<unknown>
800096d0: 57 41 03 5e  	<unknown>
800096d4: d7 c1 02 5e  	<unknown>
800096d8: ef 80 df 8c  	jal	0x80001fa4 <__gtdf2>
800096dc: 03 23 01 02  	lw	t1, 32(sp)
800096e0: d7 40 00 02  	vadd.vx	v1, v0, zero
800096e4: 93 02 10 00  	li	t0, 1
800096e8: 57 40 03 5e  	<unknown>
800096ec: 23 2e 51 00  	sw	t0, 28(sp)

800096f0 <.Lpcrel_hi7>:
800096f0: 17 03 00 00  	auipc	t1, 0
800096f4: 5b 30 83 09  	setrpc	zero, t1, 152
800096f8: 5b c8 00 08  	vblt	v0, v1, 0x80009788 <.LBB4_21>
800096fc: 6f 00 40 00  	j	0x80009700 <.LBB4_18>

80009700 <.LBB4_18>:
80009700: 03 24 02 f1  	lw	s0, -240(tp)
80009704: 83 23 42 f1  	lw	t2, -236(tp)
80009708: 13 03 00 00  	li	t1, 0
8000970c: 23 24 61 02  	sw	t1, 40(sp)
80009710: b7 02 24 40  	lui	t0, 262720
80009714: 57 40 04 5e  	<unknown>
80009718: d7 c0 03 5e  	<unknown>
8000971c: 57 41 03 5e  	<unknown>
80009720: d7 c1 02 5e  	<unknown>
80009724: ef 80 0f cb  	jal	0x80001bd4 <__nedf2>
80009728: 03 23 81 02  	lw	t1, 40(sp)
8000972c: 93 02 03 00  	mv	t0, t1
80009730: d7 40 03 5e  	<unknown>
80009734: 23 22 51 02  	sw	t0, 36(sp)

80009738 <.Lpcrel_hi8>:
80009738: 17 03 00 00  	auipc	t1, 0
8000973c: 5b 30 03 04  	setrpc	zero, t1, 64
80009740: 5b 9c 00 02  	vbne	v0, v1, 0x80009778 <.LBB4_20>
80009744: 6f 00 40 00  	j	0x80009748 <.LBB4_19>

80009748 <.LBB4_19>:
80009748: 83 23 82 f1  	lw	t2, -232(tp)
8000974c: 03 23 c2 f1  	lw	t1, -228(tp)
80009750: 93 02 00 00  	li	t0, 0
80009754: 57 c0 03 5e  	<unknown>
80009758: d7 40 03 5e  	<unknown>
8000975c: 57 c1 02 5e  	<unknown>
80009760: d7 c1 02 5e  	<unknown>
80009764: ef 80 8f ef  	jal	0x80001e5c <__gedf2>
80009768: 57 30 00 7e  	vmsgt.vi	v0, v0, 0
8000976c: d7 22 00 42  	vmv.x.s	t0, v0
80009770: 23 22 51 02  	sw	t0, 36(sp)
80009774: 6f 00 40 00  	j	0x80009778 <.LBB4_20>

80009778 <.LBB4_20>:
80009778: 5b 20 00 00  	join	zero, zero, 0
8000977c: 83 22 41 02  	lw	t0, 36(sp)
80009780: 23 2e 51 00  	sw	t0, 28(sp)
80009784: 6f 00 40 00  	j	0x80009788 <.LBB4_21>

80009788 <.LBB4_21>:
80009788: 5b 20 00 00  	join	zero, zero, 0
8000978c: 83 22 c1 01  	lw	t0, 28(sp)
80009790: 93 f2 12 00  	andi	t0, t0, 1
80009794: 63 88 02 02  	beqz	t0, 0x800097c4 <.LBB4_23>
80009798: 6f 00 40 00  	j	0x8000979c <.LBB4_22>

8000979c <.LBB4_22>:
8000979c: 83 22 82 ef  	lw	t0, -264(tp)
800097a0: 93 82 12 00  	addi	t0, t0, 1
800097a4: 23 2c 52 ee  	sw	t0, -264(tp)
800097a8: 93 02 02 f1  	addi	t0, tp, -240
800097ac: 57 c0 02 5e  	<unknown>
800097b0: ef 00 80 52  	jal	0x80009cd8 <hp_div10>
800097b4: 93 02 02 f2  	addi	t0, tp, -224
800097b8: 57 c0 02 5e  	<unknown>
800097bc: ef 00 c0 51  	jal	0x80009cd8 <hp_div10>
800097c0: 6f f0 5f ef  	j	0x800096b4 <.LBB4_17>

800097c4 <.LBB4_23>:
800097c4: 6f 00 40 00  	j	0x800097c8 <.LBB4_24>

800097c8 <.LBB4_24>:
800097c8: 03 24 02 f1  	lw	s0, -240(tp)
800097cc: 83 23 42 f1  	lw	t2, -236(tp)
800097d0: 13 03 00 00  	li	t1, 0
800097d4: 23 28 61 02  	sw	t1, 48(sp)
800097d8: b7 02 f0 3f  	lui	t0, 261888
800097dc: 57 40 04 5e  	<unknown>
800097e0: d7 c0 03 5e  	<unknown>
800097e4: 57 41 03 5e  	<unknown>
800097e8: d7 c1 02 5e  	<unknown>
800097ec: ef 80 4f aa  	jal	0x80001a90 <__ltdf2>
800097f0: 03 23 01 03  	lw	t1, 48(sp)
800097f4: 93 02 10 00  	li	t0, 1
800097f8: d7 40 03 5e  	<unknown>
800097fc: 23 26 51 02  	sw	t0, 44(sp)

80009800 <.Lpcrel_hi9>:
80009800: 17 03 00 00  	auipc	t1, 0
80009804: 5b 30 83 09  	setrpc	zero, t1, 152
80009808: 5b c8 00 08  	vblt	v0, v1, 0x80009898 <.LBB4_28>
8000980c: 6f 00 40 00  	j	0x80009810 <.LBB4_25>

80009810 <.LBB4_25>:
80009810: 03 24 02 f1  	lw	s0, -240(tp)
80009814: 83 23 42 f1  	lw	t2, -236(tp)
80009818: 13 03 00 00  	li	t1, 0
8000981c: 23 2c 61 02  	sw	t1, 56(sp)
80009820: b7 02 f0 3f  	lui	t0, 261888
80009824: 57 40 04 5e  	<unknown>
80009828: d7 c0 03 5e  	<unknown>
8000982c: 57 41 03 5e  	<unknown>
80009830: d7 c1 02 5e  	<unknown>
80009834: ef 80 0f ba  	jal	0x80001bd4 <__nedf2>
80009838: 03 23 81 03  	lw	t1, 56(sp)
8000983c: 93 02 03 00  	mv	t0, t1
80009840: d7 40 03 5e  	<unknown>
80009844: 23 2a 51 02  	sw	t0, 52(sp)

80009848 <.Lpcrel_hi10>:
80009848: 17 03 00 00  	auipc	t1, 0
8000984c: 5b 30 03 04  	setrpc	zero, t1, 64
80009850: 5b 9c 00 02  	vbne	v0, v1, 0x80009888 <.LBB4_27>
80009854: 6f 00 40 00  	j	0x80009858 <.LBB4_26>

80009858 <.LBB4_26>:
80009858: 83 23 82 f1  	lw	t2, -232(tp)
8000985c: 03 23 c2 f1  	lw	t1, -228(tp)
80009860: 93 02 00 00  	li	t0, 0
80009864: 57 c0 03 5e  	<unknown>
80009868: d7 40 03 5e  	<unknown>
8000986c: 57 c1 02 5e  	<unknown>
80009870: d7 c1 02 5e  	<unknown>
80009874: ef 80 cf a1  	jal	0x80001a90 <__ltdf2>
80009878: 57 b0 0f 76  	vmsle.vi	v0, v0, -1
8000987c: d7 22 00 42  	vmv.x.s	t0, v0
80009880: 23 2a 51 02  	sw	t0, 52(sp)
80009884: 6f 00 40 00  	j	0x80009888 <.LBB4_27>

80009888 <.LBB4_27>:
80009888: 5b 20 00 00  	join	zero, zero, 0
8000988c: 83 22 41 03  	lw	t0, 52(sp)
80009890: 23 26 51 02  	sw	t0, 44(sp)
80009894: 6f 00 40 00  	j	0x80009898 <.LBB4_28>

80009898 <.LBB4_28>:
80009898: 5b 20 00 00  	join	zero, zero, 0
8000989c: 83 22 c1 02  	lw	t0, 44(sp)
800098a0: 93 f2 12 00  	andi	t0, t0, 1
800098a4: 63 88 02 02  	beqz	t0, 0x800098d4 <.LBB4_30>
800098a8: 6f 00 40 00  	j	0x800098ac <.LBB4_29>

800098ac <.LBB4_29>:
800098ac: 83 22 82 ef  	lw	t0, -264(tp)
800098b0: 93 82 f2 ff  	addi	t0, t0, -1
800098b4: 23 2c 52 ee  	sw	t0, -264(tp)
800098b8: 93 02 02 f1  	addi	t0, tp, -240
800098bc: 57 c0 02 5e  	<unknown>
800098c0: ef 00 c0 60  	jal	0x80009ecc <hp_mul10>
800098c4: 93 02 02 f2  	addi	t0, tp, -224
800098c8: 57 c0 02 5e  	<unknown>
800098cc: ef 00 00 60  	jal	0x80009ecc <hp_mul10>
800098d0: 6f f0 9f ef  	j	0x800097c8 <.LBB4_24>

800098d4 <.LBB4_30>:
800098d4: 6f 00 40 00  	j	0x800098d8 <.LBB4_31>

800098d8 <.LBB4_31>:
800098d8: 83 23 02 f1  	lw	t2, -240(tp)
800098dc: 03 23 42 f1  	lw	t1, -236(tp)
800098e0: 93 02 00 00  	li	t0, 0
800098e4: 23 20 51 04  	sw	t0, 64(sp)
800098e8: 57 c0 03 5e  	<unknown>
800098ec: d7 40 03 5e  	<unknown>
800098f0: 57 c1 02 5e  	<unknown>
800098f4: d7 c1 02 5e  	<unknown>
800098f8: ef 80 cf ad  	jal	0x80001bd4 <__nedf2>
800098fc: 03 23 01 04  	lw	t1, 64(sp)
80009900: 93 02 10 00  	li	t0, 1
80009904: d7 40 03 5e  	<unknown>
80009908: 23 2e 51 02  	sw	t0, 60(sp)

8000990c <.Lpcrel_hi11>:
8000990c: 17 03 00 00  	auipc	t1, 0
80009910: 5b 30 03 04  	setrpc	zero, t1, 64
80009914: 5b 9c 00 02  	vbne	v0, v1, 0x8000994c <.LBB4_33>
80009918: 6f 00 40 00  	j	0x8000991c <.LBB4_32>

8000991c <.LBB4_32>:
8000991c: 83 23 82 f1  	lw	t2, -232(tp)
80009920: 03 23 c2 f1  	lw	t1, -228(tp)
80009924: 93 02 00 00  	li	t0, 0
80009928: 57 c0 03 5e  	<unknown>
8000992c: d7 40 03 5e  	<unknown>
80009930: 57 c1 02 5e  	<unknown>
80009934: d7 c1 02 5e  	<unknown>
80009938: ef 80 cf a9  	jal	0x80001bd4 <__nedf2>
8000993c: 57 30 00 66  	vmsne.vi	v0, v0, 0
80009940: d7 22 00 42  	vmv.x.s	t0, v0
80009944: 23 2e 51 02  	sw	t0, 60(sp)
80009948: 6f 00 40 00  	j	0x8000994c <.LBB4_33>

8000994c <.LBB4_33>:
8000994c: 5b 20 00 00  	join	zero, zero, 0
80009950: 83 22 c1 03  	lw	t0, 60(sp)
80009954: 93 f2 12 00  	andi	t0, t0, 1
80009958: 63 82 02 24  	beqz	t0, 0x80009b9c <.LBB4_43>
8000995c: 6f 00 40 00  	j	0x80009960 <.LBB4_34>

80009960 <.LBB4_34>:
80009960: 93 02 00 00  	li	t0, 0
80009964: 23 22 51 04  	sw	t0, 68(sp)
80009968: a3 08 52 f2  	sb	t0, -207(tp)
8000996c: 03 23 02 f1  	lw	t1, -240(tp)
80009970: 83 22 42 f1  	lw	t0, -236(tp)
80009974: 57 40 03 5e  	<unknown>
80009978: d7 c0 02 5e  	<unknown>
8000997c: ef 70 5f db  	jal	0x80001730 <__fixunsdfsi>
80009980: fb 78 02 f2  	vsb12.v	v0, -207(v4)
80009984: 83 22 02 f1  	lw	t0, -240(tp)
80009988: 23 26 51 04  	sw	t0, 76(sp)
8000998c: 83 22 42 f1  	lw	t0, -236(tp)
80009990: 23 24 51 04  	sw	t0, 72(sp)
80009994: 83 42 12 f3  	lbu	t0, -207(tp)
80009998: 57 c0 02 5e  	<unknown>
8000999c: ef 80 0f f5  	jal	0x800020ec <__floatsidf>
800099a0: 03 23 c1 04  	lw	t1, 76(sp)
800099a4: 83 22 81 04  	lw	t0, 72(sp)
800099a8: 57 41 00 02  	vadd.vx	v2, v0, zero
800099ac: d7 41 10 02  	vadd.vx	v3, v1, zero
800099b0: 57 40 03 5e  	<unknown>
800099b4: d7 c0 02 5e  	<unknown>
800099b8: ef 80 cf a1  	jal	0x80001bd4 <__nedf2>
800099bc: 83 22 41 04  	lw	t0, 68(sp)
800099c0: d7 c0 02 5e  	<unknown>

800099c4 <.Lpcrel_hi12>:
800099c4: 17 03 00 00  	auipc	t1, 0
800099c8: 5b 30 03 06  	setrpc	zero, t1, 96
800099cc: 5b 9c 00 04  	vbne	v0, v1, 0x80009a24 <.LBB4_37>
800099d0: 6f 00 40 00  	j	0x800099d4 <.LBB4_35>

800099d4 <.LBB4_35>:
800099d4: 83 23 82 f1  	lw	t2, -232(tp)
800099d8: 03 23 c2 f1  	lw	t1, -228(tp)
800099dc: 93 02 00 00  	li	t0, 0
800099e0: 23 28 51 04  	sw	t0, 80(sp)
800099e4: 57 c0 03 5e  	<unknown>
800099e8: d7 40 03 5e  	<unknown>
800099ec: 57 c1 02 5e  	<unknown>
800099f0: d7 c1 02 5e  	<unknown>
800099f4: ef 80 cf 89  	jal	0x80001a90 <__ltdf2>
800099f8: 83 22 01 05  	lw	t0, 80(sp)
800099fc: d7 c0 02 5e  	<unknown>

80009a00 <.Lpcrel_hi13>:
80009a00: 17 03 00 00  	auipc	t1, 0
80009a04: 5b 30 43 02  	setrpc	zero, t1, 36
80009a08: 5b de 00 00  	vbge	v0, v1, 0x80009a24 <.LBB4_37>
80009a0c: 6f 00 40 00  	j	0x80009a10 <.LBB4_36>

80009a10 <.LBB4_36>:
80009a10: 83 02 12 f3  	lb	t0, -207(tp)
80009a14: 13 03 10 00  	li	t1, 1
80009a18: b3 82 62 40  	sub	t0, t0, t1
80009a1c: a3 08 52 f2  	sb	t0, -207(tp)
80009a20: 6f 00 40 00  	j	0x80009a24 <.LBB4_37>

80009a24 <.LBB4_37>:
80009a24: 5b 20 00 00  	join	zero, zero, 0
80009a28: 03 23 02 f2  	lw	t1, -224(tp)
80009a2c: 83 22 42 f2  	lw	t0, -220(tp)
80009a30: 57 40 03 5e  	<unknown>
80009a34: d7 c0 02 5e  	<unknown>
80009a38: ef 70 9f cf  	jal	0x80001730 <__fixunsdfsi>
80009a3c: 7b 78 02 f2  	vsb12.v	v0, -208(v4)
80009a40: 83 22 02 f2  	lw	t0, -224(tp)
80009a44: 23 2c 51 04  	sw	t0, 88(sp)
80009a48: 83 22 42 f2  	lw	t0, -220(tp)
80009a4c: 23 2a 51 04  	sw	t0, 84(sp)
80009a50: 83 42 02 f3  	lbu	t0, -208(tp)
80009a54: 57 c0 02 5e  	<unknown>
80009a58: ef 80 4f e9  	jal	0x800020ec <__floatsidf>
80009a5c: 03 23 81 05  	lw	t1, 88(sp)
80009a60: 83 22 41 05  	lw	t0, 84(sp)
80009a64: 57 41 00 02  	vadd.vx	v2, v0, zero
80009a68: d7 41 10 02  	vadd.vx	v3, v1, zero
80009a6c: 57 40 03 5e  	<unknown>
80009a70: d7 c0 02 5e  	<unknown>
80009a74: ef 80 0f 96  	jal	0x80001bd4 <__nedf2>
80009a78: 93 02 00 00  	li	t0, 0
80009a7c: d7 c0 02 5e  	<unknown>

80009a80 <.Lpcrel_hi14>:
80009a80: 17 03 00 00  	auipc	t1, 0
80009a84: 5b 30 03 06  	setrpc	zero, t1, 96
80009a88: 5b 9c 00 04  	vbne	v0, v1, 0x80009ae0 <.LBB4_40>
80009a8c: 6f 00 40 00  	j	0x80009a90 <.LBB4_38>

80009a90 <.LBB4_38>:
80009a90: 83 23 82 f2  	lw	t2, -216(tp)
80009a94: 03 23 c2 f2  	lw	t1, -212(tp)
80009a98: 93 02 00 00  	li	t0, 0
80009a9c: 23 2e 51 04  	sw	t0, 92(sp)
80009aa0: 57 c0 03 5e  	<unknown>
80009aa4: d7 40 03 5e  	<unknown>
80009aa8: 57 c1 02 5e  	<unknown>
80009aac: d7 c1 02 5e  	<unknown>
80009ab0: ef 70 1f fe  	jal	0x80001a90 <__ltdf2>
80009ab4: 83 22 c1 05  	lw	t0, 92(sp)
80009ab8: d7 c0 02 5e  	<unknown>

80009abc <.Lpcrel_hi15>:
80009abc: 17 03 00 00  	auipc	t1, 0
80009ac0: 5b 30 43 02  	setrpc	zero, t1, 36
80009ac4: 5b de 00 00  	vbge	v0, v1, 0x80009ae0 <.LBB4_40>
80009ac8: 6f 00 40 00  	j	0x80009acc <.LBB4_39>

80009acc <.LBB4_39>:
80009acc: 83 02 02 f3  	lb	t0, -208(tp)
80009ad0: 13 03 10 00  	li	t1, 1
80009ad4: b3 82 62 40  	sub	t0, t0, t1
80009ad8: 23 08 52 f2  	sb	t0, -208(tp)
80009adc: 6f 00 40 00  	j	0x80009ae0 <.LBB4_40>

80009ae0 <.LBB4_40>:
80009ae0: 5b 20 00 00  	join	zero, zero, 0
80009ae4: 83 42 02 f3  	lbu	t0, -208(tp)
80009ae8: 03 43 12 f3  	lbu	t1, -207(tp)
80009aec: 63 86 62 00  	beq	t0, t1, 0x80009af8 <.LBB4_42>
80009af0: 6f 00 40 00  	j	0x80009af4 <.LBB4_41>

80009af4 <.LBB4_41>:
80009af4: 6f 00 80 0a  	j	0x80009b9c <.LBB4_43>

80009af8 <.LBB4_42>:
80009af8: 83 02 12 f3  	lb	t0, -207(tp)
80009afc: 93 82 02 03  	addi	t0, t0, 48
80009b00: 03 23 82 ee  	lw	t1, -280(tp)
80009b04: 93 03 13 00  	addi	t2, t1, 1
80009b08: 23 24 72 ee  	sw	t2, -280(tp)
80009b0c: 23 00 53 00  	sb	t0, 0(t1)
80009b10: 83 42 12 f3  	lbu	t0, -207(tp)
80009b14: 57 c0 02 5e  	<unknown>
80009b18: ef 80 4f dd  	jal	0x800020ec <__floatsidf>
80009b1c: 57 41 00 02  	vadd.vx	v2, v0, zero
80009b20: d7 41 10 02  	vadd.vx	v3, v1, zero
80009b24: 03 23 02 f1  	lw	t1, -240(tp)
80009b28: 83 22 42 f1  	lw	t0, -236(tp)
80009b2c: 57 40 03 5e  	<unknown>
80009b30: d7 c0 02 5e  	<unknown>
80009b34: ef 90 cf 92  	jal	0x80002c60 <__subdf3>
80009b38: 0b 20 80 00  	regext	zero, zero, 8
80009b3c: 7b 6a 10 f0  	vsw12.v	v1, -236(v0)
80009b40: 0b 20 80 00  	regext	zero, zero, 8
80009b44: 7b 68 00 f0  	vsw12.v	v0, -240(v0)
80009b48: 93 02 02 f1  	addi	t0, tp, -240
80009b4c: 57 c0 02 5e  	<unknown>
80009b50: ef 00 c0 37  	jal	0x80009ecc <hp_mul10>
80009b54: 83 42 02 f3  	lbu	t0, -208(tp)
80009b58: 57 c0 02 5e  	<unknown>
80009b5c: ef 80 0f d9  	jal	0x800020ec <__floatsidf>
80009b60: 57 41 00 02  	vadd.vx	v2, v0, zero
80009b64: d7 41 10 02  	vadd.vx	v3, v1, zero
80009b68: 03 23 02 f2  	lw	t1, -224(tp)
80009b6c: 83 22 42 f2  	lw	t0, -220(tp)
80009b70: 57 40 03 5e  	<unknown>
80009b74: d7 c0 02 5e  	<unknown>
80009b78: ef 90 8f 8e  	jal	0x80002c60 <__subdf3>
80009b7c: 0b 20 80 00  	regext	zero, zero, 8
80009b80: 7b 62 10 f2  	vsw12.v	v1, -220(v0)
80009b84: 0b 20 80 00  	regext	zero, zero, 8
80009b88: 7b 60 00 f2  	vsw12.v	v0, -224(v0)
80009b8c: 93 02 02 f2  	addi	t0, tp, -224
80009b90: 57 c0 02 5e  	<unknown>
80009b94: ef 00 80 33  	jal	0x80009ecc <hp_mul10>
80009b98: 6f f0 1f d4  	j	0x800098d8 <.LBB4_31>

80009b9c <.LBB4_43>:
80009b9c: 03 24 02 f1  	lw	s0, -240(tp)
80009ba0: 83 23 42 f1  	lw	t2, -236(tp)
80009ba4: 03 23 02 f2  	lw	t1, -224(tp)
80009ba8: 83 22 42 f2  	lw	t0, -220(tp)
80009bac: 57 40 04 5e  	<unknown>
80009bb0: d7 c0 03 5e  	<unknown>
80009bb4: 57 41 03 5e  	<unknown>
80009bb8: d7 c1 02 5e  	<unknown>
80009bbc: ef 80 cf e5  	jal	0x80002218 <__adddf3>
80009bc0: 13 03 00 00  	li	t1, 0
80009bc4: 23 20 61 06  	sw	t1, 96(sp)
80009bc8: b7 02 00 40  	lui	t0, 262144
80009bcc: 57 41 03 5e  	<unknown>
80009bd0: d7 c1 02 5e  	<unknown>
80009bd4: ef 60 9f ec  	jal	0x80000a9c <__divdf3>
80009bd8: 03 23 01 06  	lw	t1, 96(sp)
80009bdc: b7 02 e0 3f  	lui	t0, 261632
80009be0: 57 41 03 5e  	<unknown>
80009be4: d7 c1 02 5e  	<unknown>
80009be8: ef 80 0f e3  	jal	0x80002218 <__adddf3>
80009bec: 0b 20 80 00  	regext	zero, zero, 8
80009bf0: 7b 6e 10 f2  	vsw12.v	v1, -196(v0)
80009bf4: 0b 20 80 00  	regext	zero, zero, 8
80009bf8: 7b 6c 00 f2  	vsw12.v	v0, -200(v0)
80009bfc: 03 23 82 f3  	lw	t1, -200(tp)
80009c00: 83 22 c2 f3  	lw	t0, -196(tp)
80009c04: 57 40 03 5e  	<unknown>
80009c08: d7 c0 02 5e  	<unknown>
80009c0c: ef 70 5f b2  	jal	0x80001730 <__fixunsdfsi>
80009c10: 83 22 01 06  	lw	t0, 96(sp)
80009c14: 0b 00 00 03  	vadd12.vi	v0, v0, 48
80009c18: 03 23 82 ee  	lw	t1, -280(tp)
80009c1c: 93 03 13 00  	addi	t2, t1, 1
80009c20: 23 24 72 ee  	sw	t2, -280(tp)
80009c24: d7 40 03 5e  	<unknown>
80009c28: 7b f0 00 00  	vsb12.v	v0, 0(v1)
80009c2c: 03 23 82 ee  	lw	t1, -280(tp)
80009c30: 23 00 53 00  	sb	t0, 0(t1)
80009c34: 83 22 82 ef  	lw	t0, -264(tp)
80009c38: 23 2e 52 ec  	sw	t0, -292(tp)
80009c3c: 6f 00 40 00  	j	0x80009c40 <.LBB4_44>

80009c40 <.LBB4_44>:
80009c40: 5b 20 00 00  	join	zero, zero, 0
80009c44: 83 22 c2 ed  	lw	t0, -292(tp)
80009c48: 57 c0 02 5e  	<unknown>
80009c4c: 83 20 c1 f7  	lw	ra, -132(sp)
80009c50: 0b c0 00 04  	barrier	x0, x0, 1
80009c54: 13 01 c1 f7  	addi	sp, sp, -132
80009c58: 13 02 c2 f5  	addi	tp, tp, -164
80009c5c: 67 80 00 00  	ret

80009c60 <strcpy>:
80009c60: 13 01 41 00  	addi	sp, sp, 4
80009c64: 13 02 c2 00  	addi	tp, tp, 12
80009c68: 0b 20 10 00  	regext	zero, zero, 1
80009c6c: 57 40 02 5e  	<unknown>
80009c70: 23 2e 11 fe  	sw	ra, -4(sp)
80009c74: 0b 20 80 00  	regext	zero, zero, 8
80009c78: 7b 6a 00 fe  	vsw12.v	v0, -12(v0)
80009c7c: 0b 20 80 00  	regext	zero, zero, 8
80009c80: 7b 6c 10 fe  	vsw12.v	v1, -8(v0)
80009c84: 83 22 42 ff  	lw	t0, -12(tp)
80009c88: 23 2e 52 fe  	sw	t0, -4(tp)
80009c8c: 6f 00 40 00  	j	0x80009c90 <.LBB5_1>

80009c90 <.LBB5_1>:
80009c90: 83 22 82 ff  	lw	t0, -8(tp)
80009c94: 13 83 12 00  	addi	t1, t0, 1
80009c98: 23 2c 62 fe  	sw	t1, -8(tp)
80009c9c: 83 c2 02 00  	lbu	t0, 0(t0)
80009ca0: 03 23 42 ff  	lw	t1, -12(tp)
80009ca4: 93 03 13 00  	addi	t2, t1, 1
80009ca8: 23 2a 72 fe  	sw	t2, -12(tp)
80009cac: 23 00 53 00  	sb	t0, 0(t1)
80009cb0: 63 86 02 00  	beqz	t0, 0x80009cbc <.LBB5_3>
80009cb4: 6f 00 40 00  	j	0x80009cb8 <.LBB5_2>

80009cb8 <.LBB5_2>:
80009cb8: 6f f0 9f fd  	j	0x80009c90 <.LBB5_1>

80009cbc <.LBB5_3>:
80009cbc: 83 22 c2 ff  	lw	t0, -4(tp)
80009cc0: 57 c0 02 5e  	<unknown>
80009cc4: 83 20 c1 ff  	lw	ra, -4(sp)
80009cc8: 0b c0 00 04  	barrier	x0, x0, 1
80009ccc: 13 01 c1 ff  	addi	sp, sp, -4
80009cd0: 13 02 42 ff  	addi	tp, tp, -12
80009cd4: 67 80 00 00  	ret

80009cd8 <hp_div10>:
80009cd8: 13 01 81 02  	addi	sp, sp, 40
80009cdc: 13 02 42 01  	addi	tp, tp, 20
80009ce0: 0b 20 10 00  	regext	zero, zero, 1
80009ce4: 57 40 02 5e  	<unknown>
80009ce8: 23 2c 11 fc  	sw	ra, -40(sp)
80009cec: 0b 20 80 00  	regext	zero, zero, 8
80009cf0: 7b 64 00 fc  	vsw12.v	v0, -56(v0)
80009cf4: 03 23 82 fc  	lw	t1, -56(tp)
80009cf8: 83 22 03 00  	lw	t0, 0(t1)
80009cfc: 03 23 43 00  	lw	t1, 4(t1)
80009d00: 23 28 62 fc  	sw	t1, -48(tp)
80009d04: 23 26 52 fc  	sw	t0, -52(tp)
80009d08: 83 22 82 fc  	lw	t0, -56(tp)
80009d0c: 23 24 51 00  	sw	t0, 8(sp)
80009d10: 03 a4 02 00  	lw	s0, 0(t0)
80009d14: 83 a3 42 00  	lw	t2, 4(t0)
80009d18: 13 03 00 00  	li	t1, 0
80009d1c: 23 28 61 fe  	sw	t1, -16(sp)
80009d20: b7 02 24 40  	lui	t0, 262720
80009d24: 23 26 51 fe  	sw	t0, -20(sp)
80009d28: 57 40 04 5e  	<unknown>
80009d2c: d7 c0 03 5e  	<unknown>
80009d30: 57 41 03 5e  	<unknown>
80009d34: d7 c1 02 5e  	<unknown>
80009d38: ef 60 5f d6  	jal	0x80000a9c <__divdf3>
80009d3c: 83 23 81 00  	lw	t2, 8(sp)
80009d40: 03 23 01 ff  	lw	t1, -16(sp)
80009d44: 83 22 c1 fe  	lw	t0, -20(sp)
80009d48: 57 c1 03 5e  	<unknown>
80009d4c: 7b 62 11 00  	vsw12.v	v1, 4(v2)
80009d50: d7 c0 03 5e  	<unknown>
80009d54: 7b e0 00 00  	vsw12.v	v0, 0(v1)
80009d58: 83 23 82 fc  	lw	t2, -56(tp)
80009d5c: 23 22 71 00  	sw	t2, 4(sp)
80009d60: 03 a4 83 00  	lw	s0, 8(t2)
80009d64: 83 a3 c3 00  	lw	t2, 12(t2)
80009d68: 57 40 04 5e  	<unknown>
80009d6c: d7 c0 03 5e  	<unknown>
80009d70: 57 41 03 5e  	<unknown>
80009d74: d7 c1 02 5e  	<unknown>
80009d78: ef 60 5f d2  	jal	0x80000a9c <__divdf3>
80009d7c: 83 22 41 00  	lw	t0, 4(sp)
80009d80: 03 23 01 ff  	lw	t1, -16(sp)
80009d84: 57 c1 02 5e  	<unknown>
80009d88: 7b 66 11 00  	vsw12.v	v1, 12(v2)
80009d8c: d7 c0 02 5e  	<unknown>
80009d90: 7b e4 00 00  	vsw12.v	v0, 8(v1)
80009d94: 83 22 82 fc  	lw	t0, -56(tp)
80009d98: 03 a4 02 00  	lw	s0, 0(t0)
80009d9c: 83 a3 42 00  	lw	t2, 4(t0)
80009da0: 83 22 c2 fc  	lw	t0, -52(tp)
80009da4: 23 20 51 00  	sw	t0, 0(sp)
80009da8: 83 22 02 fd  	lw	t0, -48(tp)
80009dac: 23 2e 51 fe  	sw	t0, -4(sp)
80009db0: b7 02 20 c0  	lui	t0, 786944
80009db4: 57 40 04 5e  	<unknown>
80009db8: d7 c0 03 5e  	<unknown>
80009dbc: 57 41 03 5e  	<unknown>
80009dc0: d7 c1 02 5e  	<unknown>
80009dc4: ef 60 cf b3  	jal	0x80000100 <__muldf3>
80009dc8: 03 23 01 00  	lw	t1, 0(sp)
80009dcc: 83 22 c1 ff  	lw	t0, -4(sp)
80009dd0: 57 41 00 02  	vadd.vx	v2, v0, zero
80009dd4: d7 41 10 02  	vadd.vx	v3, v1, zero
80009dd8: 57 40 03 5e  	<unknown>
80009ddc: d7 c0 02 5e  	<unknown>
80009de0: ef 80 8f c3  	jal	0x80002218 <__adddf3>
80009de4: 0b 20 80 00  	regext	zero, zero, 8
80009de8: 7b 68 10 fc  	vsw12.v	v1, -48(v0)
80009dec: 0b 20 80 00  	regext	zero, zero, 8
80009df0: 7b 66 00 fc  	vsw12.v	v0, -52(v0)
80009df4: 83 22 82 fc  	lw	t0, -56(tp)
80009df8: 03 a3 02 00  	lw	t1, 0(t0)
80009dfc: 83 a2 42 00  	lw	t0, 4(t0)
80009e00: 83 23 c2 fc  	lw	t2, -52(tp)
80009e04: 23 2c 71 fe  	sw	t2, -8(sp)
80009e08: 83 23 02 fd  	lw	t2, -48(tp)
80009e0c: 23 2a 71 fe  	sw	t2, -12(sp)
80009e10: 57 40 03 5e  	<unknown>
80009e14: d7 c0 02 5e  	<unknown>
80009e18: 57 41 03 5e  	<unknown>
80009e1c: d7 c1 02 5e  	<unknown>
80009e20: ef 80 8f bf  	jal	0x80002218 <__adddf3>
80009e24: 03 23 81 ff  	lw	t1, -8(sp)
80009e28: 83 22 41 ff  	lw	t0, -12(sp)
80009e2c: 57 41 00 02  	vadd.vx	v2, v0, zero
80009e30: d7 41 10 02  	vadd.vx	v3, v1, zero
80009e34: 57 40 03 5e  	<unknown>
80009e38: d7 c0 02 5e  	<unknown>
80009e3c: ef 80 5f e2  	jal	0x80002c60 <__subdf3>
80009e40: 03 23 01 ff  	lw	t1, -16(sp)
80009e44: 83 22 c1 fe  	lw	t0, -20(sp)
80009e48: 0b 20 80 00  	regext	zero, zero, 8
80009e4c: 7b 68 10 fc  	vsw12.v	v1, -48(v0)
80009e50: 0b 20 80 00  	regext	zero, zero, 8
80009e54: 7b 66 00 fc  	vsw12.v	v0, -52(v0)
80009e58: 03 24 c2 fc  	lw	s0, -52(tp)
80009e5c: 83 23 02 fd  	lw	t2, -48(tp)
80009e60: 57 40 04 5e  	<unknown>
80009e64: d7 c0 03 5e  	<unknown>
80009e68: 57 41 03 5e  	<unknown>
80009e6c: d7 c1 02 5e  	<unknown>
80009e70: ef 60 df c2  	jal	0x80000a9c <__divdf3>
80009e74: 57 41 00 02  	vadd.vx	v2, v0, zero
80009e78: d7 41 10 02  	vadd.vx	v3, v1, zero
80009e7c: 83 22 82 fc  	lw	t0, -56(tp)
80009e80: 23 24 51 fe  	sw	t0, -24(sp)
80009e84: 03 a3 82 00  	lw	t1, 8(t0)
80009e88: 83 a2 c2 00  	lw	t0, 12(t0)
80009e8c: 57 40 03 5e  	<unknown>
80009e90: d7 c0 02 5e  	<unknown>
80009e94: ef 80 4f b8  	jal	0x80002218 <__adddf3>
80009e98: 83 22 81 fe  	lw	t0, -24(sp)
80009e9c: 57 c1 02 5e  	<unknown>
80009ea0: 7b 66 11 00  	vsw12.v	v1, 12(v2)
80009ea4: d7 c0 02 5e  	<unknown>
80009ea8: 7b e4 00 00  	vsw12.v	v0, 8(v1)
80009eac: 83 22 82 fc  	lw	t0, -56(tp)
80009eb0: 57 c0 02 5e  	<unknown>
80009eb4: ef 00 40 2c  	jal	0x8000a178 <hp_normalize>
80009eb8: 83 20 81 fd  	lw	ra, -40(sp)
80009ebc: 0b c0 00 04  	barrier	x0, x0, 1
80009ec0: 13 01 81 fd  	addi	sp, sp, -40
80009ec4: 13 02 c2 fe  	addi	tp, tp, -20
80009ec8: 67 80 00 00  	ret

80009ecc <hp_mul10>:
80009ecc: 13 01 81 02  	addi	sp, sp, 40
80009ed0: 13 02 42 02  	addi	tp, tp, 36
80009ed4: 0b 20 10 00  	regext	zero, zero, 1
80009ed8: 57 40 02 5e  	<unknown>
80009edc: 23 2c 11 fc  	sw	ra, -40(sp)
80009ee0: 0b 20 80 00  	regext	zero, zero, 8
80009ee4: 7b 6c 00 fa  	vsw12.v	v0, -72(v0)
80009ee8: 03 23 82 fb  	lw	t1, -72(tp)
80009eec: 83 22 03 00  	lw	t0, 0(t1)
80009ef0: 03 23 43 00  	lw	t1, 4(t1)
80009ef4: 23 24 62 fc  	sw	t1, -56(tp)
80009ef8: 23 22 52 fc  	sw	t0, -60(tp)
80009efc: 83 22 82 fb  	lw	t0, -72(tp)
80009f00: 23 28 51 00  	sw	t0, 16(sp)
80009f04: 03 a4 02 00  	lw	s0, 0(t0)
80009f08: 83 a3 42 00  	lw	t2, 4(t0)
80009f0c: 13 03 00 00  	li	t1, 0
80009f10: 23 22 61 00  	sw	t1, 4(sp)
80009f14: b7 02 24 40  	lui	t0, 262720
80009f18: 23 26 51 00  	sw	t0, 12(sp)
80009f1c: 57 40 04 5e  	<unknown>
80009f20: d7 c0 03 5e  	<unknown>
80009f24: 57 41 03 5e  	<unknown>
80009f28: d7 c1 02 5e  	<unknown>
80009f2c: ef 60 4f 9d  	jal	0x80000100 <__muldf3>
80009f30: 83 23 01 01  	lw	t2, 16(sp)
80009f34: 83 22 c1 00  	lw	t0, 12(sp)
80009f38: 03 23 41 00  	lw	t1, 4(sp)
80009f3c: 57 c1 03 5e  	<unknown>
80009f40: 7b 62 11 00  	vsw12.v	v1, 4(v2)
80009f44: d7 c0 03 5e  	<unknown>
80009f48: 7b e0 00 00  	vsw12.v	v0, 0(v1)
80009f4c: 83 23 82 fb  	lw	t2, -72(tp)
80009f50: 23 24 71 00  	sw	t2, 8(sp)
80009f54: 03 a4 83 00  	lw	s0, 8(t2)
80009f58: 83 a3 c3 00  	lw	t2, 12(t2)
80009f5c: 57 40 04 5e  	<unknown>
80009f60: d7 c0 03 5e  	<unknown>
80009f64: 57 41 03 5e  	<unknown>
80009f68: d7 c1 02 5e  	<unknown>
80009f6c: ef 60 4f 99  	jal	0x80000100 <__muldf3>
80009f70: 83 22 81 00  	lw	t0, 8(sp)
80009f74: 03 23 41 00  	lw	t1, 4(sp)
80009f78: 57 c1 02 5e  	<unknown>
80009f7c: 7b 66 11 00  	vsw12.v	v1, 12(v2)
80009f80: d7 c0 02 5e  	<unknown>
80009f84: 7b e4 00 00  	vsw12.v	v0, 8(v1)
80009f88: 83 23 82 fb  	lw	t2, -72(tp)
80009f8c: 83 a2 03 00  	lw	t0, 0(t2)
80009f90: 83 a3 43 00  	lw	t2, 4(t2)
80009f94: 23 20 72 fc  	sw	t2, -64(tp)
80009f98: 23 2e 52 fa  	sw	t0, -68(tp)
80009f9c: 03 24 42 fc  	lw	s0, -60(tp)
80009fa0: 83 23 82 fc  	lw	t2, -56(tp)
80009fa4: 83 22 c2 fb  	lw	t0, -68(tp)
80009fa8: 23 20 51 00  	sw	t0, 0(sp)
80009fac: 83 22 02 fc  	lw	t0, -64(tp)
80009fb0: 23 2e 51 fe  	sw	t0, -4(sp)
80009fb4: b7 02 20 c0  	lui	t0, 786944
80009fb8: 57 40 04 5e  	<unknown>
80009fbc: d7 c0 03 5e  	<unknown>
80009fc0: 57 41 03 5e  	<unknown>
80009fc4: d7 c1 02 5e  	<unknown>
80009fc8: ef 60 8f 93  	jal	0x80000100 <__muldf3>
80009fcc: 03 23 01 00  	lw	t1, 0(sp)
80009fd0: 83 22 c1 ff  	lw	t0, -4(sp)
80009fd4: 57 41 00 02  	vadd.vx	v2, v0, zero
80009fd8: d7 41 10 02  	vadd.vx	v3, v1, zero
80009fdc: 57 40 03 5e  	<unknown>
80009fe0: d7 c0 02 5e  	<unknown>
80009fe4: ef 80 4f a3  	jal	0x80002218 <__adddf3>
80009fe8: 0b 20 80 00  	regext	zero, zero, 8
80009fec: 7b 60 10 fc  	vsw12.v	v1, -64(v0)
80009ff0: 0b 20 80 00  	regext	zero, zero, 8
80009ff4: 7b 6e 00 fa  	vsw12.v	v0, -68(v0)
80009ff8: 03 23 42 fc  	lw	t1, -60(tp)
80009ffc: 83 22 82 fc  	lw	t0, -56(tp)
8000a000: 83 23 c2 fb  	lw	t2, -68(tp)
8000a004: 23 2c 71 fe  	sw	t2, -8(sp)
8000a008: 83 23 02 fc  	lw	t2, -64(tp)
8000a00c: 23 2a 71 fe  	sw	t2, -12(sp)
8000a010: 57 40 03 5e  	<unknown>
8000a014: d7 c0 02 5e  	<unknown>
8000a018: 57 41 03 5e  	<unknown>
8000a01c: d7 c1 02 5e  	<unknown>
8000a020: ef 80 8f 9f  	jal	0x80002218 <__adddf3>
8000a024: 03 23 81 ff  	lw	t1, -8(sp)
8000a028: 83 22 41 ff  	lw	t0, -12(sp)
8000a02c: 57 41 00 02  	vadd.vx	v2, v0, zero
8000a030: d7 41 10 02  	vadd.vx	v3, v1, zero
8000a034: 57 40 03 5e  	<unknown>
8000a038: d7 c0 02 5e  	<unknown>
8000a03c: ef 80 5f c2  	jal	0x80002c60 <__subdf3>
8000a040: 0b 20 80 00  	regext	zero, zero, 8
8000a044: 7b 60 10 fc  	vsw12.v	v1, -64(v0)
8000a048: 0b 20 80 00  	regext	zero, zero, 8
8000a04c: 7b 6e 00 fa  	vsw12.v	v0, -68(v0)
8000a050: 03 23 c2 fb  	lw	t1, -68(tp)
8000a054: 83 22 02 fc  	lw	t0, -64(tp)
8000a058: 83 23 82 fb  	lw	t2, -72(tp)
8000a05c: 23 28 71 fe  	sw	t2, -16(sp)
8000a060: 03 a4 83 00  	lw	s0, 8(t2)
8000a064: 83 a3 c3 00  	lw	t2, 12(t2)
8000a068: 57 40 04 5e  	<unknown>
8000a06c: d7 c0 03 5e  	<unknown>
8000a070: 57 41 03 5e  	<unknown>
8000a074: d7 c1 02 5e  	<unknown>
8000a078: ef 80 9f be  	jal	0x80002c60 <__subdf3>
8000a07c: 83 22 01 ff  	lw	t0, -16(sp)
8000a080: 57 c1 02 5e  	<unknown>
8000a084: 7b 66 11 00  	vsw12.v	v1, 12(v2)
8000a088: d7 c0 02 5e  	<unknown>
8000a08c: 7b e4 00 00  	vsw12.v	v0, 8(v1)
8000a090: 83 22 82 fb  	lw	t0, -72(tp)
8000a094: 57 c0 02 5e  	<unknown>
8000a098: ef 00 00 0e  	jal	0x8000a178 <hp_normalize>
8000a09c: 83 20 81 fd  	lw	ra, -40(sp)
8000a0a0: 0b c0 00 04  	barrier	x0, x0, 1
8000a0a4: 13 01 81 fd  	addi	sp, sp, -40
8000a0a8: 13 02 c2 fd  	addi	tp, tp, -36
8000a0ac: 67 80 00 00  	ret

8000a0b0 <fpnext>:
8000a0b0: 13 01 41 00  	addi	sp, sp, 4
8000a0b4: 13 02 02 02  	addi	tp, tp, 32
8000a0b8: 0b 20 10 00  	regext	zero, zero, 1
8000a0bc: 57 40 02 5e  	<unknown>
8000a0c0: 23 2e 11 fe  	sw	ra, -4(sp)
8000a0c4: 0b 20 80 00  	regext	zero, zero, 8
8000a0c8: 7b 64 10 fe  	vsw12.v	v1, -24(v0)
8000a0cc: 0b 20 80 00  	regext	zero, zero, 8
8000a0d0: 7b 62 00 fe  	vsw12.v	v0, -28(v0)
8000a0d4: 83 22 42 fe  	lw	t0, -28(tp)
8000a0d8: 03 23 82 fe  	lw	t1, -24(tp)
8000a0dc: 23 28 62 fe  	sw	t1, -16(tp)
8000a0e0: 23 26 52 fe  	sw	t0, -20(tp)
8000a0e4: 83 22 c2 fe  	lw	t0, -20(tp)
8000a0e8: 93 82 12 00  	addi	t0, t0, 1
8000a0ec: 23 26 52 fe  	sw	t0, -20(tp)
8000a0f0: 03 23 c2 fe  	lw	t1, -20(tp)
8000a0f4: 83 22 02 ff  	lw	t0, -16(tp)
8000a0f8: 57 40 03 5e  	<unknown>
8000a0fc: d7 c0 02 5e  	<unknown>
8000a100: 83 20 c1 ff  	lw	ra, -4(sp)
8000a104: 0b c0 00 04  	barrier	x0, x0, 1
8000a108: 13 01 c1 ff  	addi	sp, sp, -4
8000a10c: 13 02 02 fe  	addi	tp, tp, -32
8000a110: 67 80 00 00  	ret

8000a114 <fpprev>:
8000a114: 13 01 41 00  	addi	sp, sp, 4
8000a118: 13 02 02 02  	addi	tp, tp, 32
8000a11c: 0b 20 10 00  	regext	zero, zero, 1
8000a120: 57 40 02 5e  	<unknown>
8000a124: 23 2e 11 fe  	sw	ra, -4(sp)
8000a128: 0b 20 80 00  	regext	zero, zero, 8
8000a12c: 7b 64 10 fe  	vsw12.v	v1, -24(v0)
8000a130: 0b 20 80 00  	regext	zero, zero, 8
8000a134: 7b 62 00 fe  	vsw12.v	v0, -28(v0)
8000a138: 83 22 42 fe  	lw	t0, -28(tp)
8000a13c: 03 23 82 fe  	lw	t1, -24(tp)
8000a140: 23 28 62 fe  	sw	t1, -16(tp)
8000a144: 23 26 52 fe  	sw	t0, -20(tp)
8000a148: 83 22 c2 fe  	lw	t0, -20(tp)
8000a14c: 93 82 f2 ff  	addi	t0, t0, -1
8000a150: 23 26 52 fe  	sw	t0, -20(tp)
8000a154: 03 23 c2 fe  	lw	t1, -20(tp)
8000a158: 83 22 02 ff  	lw	t0, -16(tp)
8000a15c: 57 40 03 5e  	<unknown>
8000a160: d7 c0 02 5e  	<unknown>
8000a164: 83 20 c1 ff  	lw	ra, -4(sp)
8000a168: 0b c0 00 04  	barrier	x0, x0, 1
8000a16c: 13 01 c1 ff  	addi	sp, sp, -4
8000a170: 13 02 02 fe  	addi	tp, tp, -32
8000a174: 67 80 00 00  	ret

8000a178 <hp_normalize>:
8000a178: 13 01 c1 00  	addi	sp, sp, 12
8000a17c: 13 02 42 01  	addi	tp, tp, 20
8000a180: 0b 20 10 00  	regext	zero, zero, 1
8000a184: 57 40 02 5e  	<unknown>
8000a188: 23 2a 11 fe  	sw	ra, -12(sp)
8000a18c: 0b 20 80 00  	regext	zero, zero, 8
8000a190: 7b 62 00 fe  	vsw12.v	v0, -28(v0)
8000a194: 03 23 42 fe  	lw	t1, -28(tp)
8000a198: 83 22 03 00  	lw	t0, 0(t1)
8000a19c: 03 23 43 00  	lw	t1, 4(t1)
8000a1a0: 23 26 62 fe  	sw	t1, -20(tp)
8000a1a4: 23 24 52 fe  	sw	t0, -24(tp)
8000a1a8: 83 23 42 fe  	lw	t2, -28(tp)
8000a1ac: 23 24 71 00  	sw	t2, 8(sp)
8000a1b0: 03 a3 83 00  	lw	t1, 8(t2)
8000a1b4: 83 a2 c3 00  	lw	t0, 12(t2)
8000a1b8: 03 a4 03 00  	lw	s0, 0(t2)
8000a1bc: 83 a3 43 00  	lw	t2, 4(t2)
8000a1c0: 57 40 04 5e  	<unknown>
8000a1c4: d7 c0 03 5e  	<unknown>
8000a1c8: 57 41 03 5e  	<unknown>
8000a1cc: d7 c1 02 5e  	<unknown>
8000a1d0: ef 80 8f 84  	jal	0x80002218 <__adddf3>
8000a1d4: 83 22 81 00  	lw	t0, 8(sp)
8000a1d8: 57 c1 02 5e  	<unknown>
8000a1dc: 7b 62 11 00  	vsw12.v	v1, 4(v2)
8000a1e0: d7 c0 02 5e  	<unknown>
8000a1e4: 7b e0 00 00  	vsw12.v	v0, 0(v1)
8000a1e8: 03 24 82 fe  	lw	s0, -24(tp)
8000a1ec: 83 23 c2 fe  	lw	t2, -20(tp)
8000a1f0: 83 22 42 fe  	lw	t0, -28(tp)
8000a1f4: 23 22 51 00  	sw	t0, 4(sp)
8000a1f8: 03 a3 02 00  	lw	t1, 0(t0)
8000a1fc: 83 a2 42 00  	lw	t0, 4(t0)
8000a200: 57 40 04 5e  	<unknown>
8000a204: d7 c0 03 5e  	<unknown>
8000a208: 57 41 03 5e  	<unknown>
8000a20c: d7 c1 02 5e  	<unknown>
8000a210: ef 80 1f a5  	jal	0x80002c60 <__subdf3>
8000a214: 83 22 41 00  	lw	t0, 4(sp)
8000a218: 57 41 00 02  	vadd.vx	v2, v0, zero
8000a21c: d7 41 10 02  	vadd.vx	v3, v1, zero
8000a220: 03 a3 82 00  	lw	t1, 8(t0)
8000a224: 83 a2 c2 00  	lw	t0, 12(t0)
8000a228: 57 40 03 5e  	<unknown>
8000a22c: d7 c0 02 5e  	<unknown>
8000a230: ef 70 9f fe  	jal	0x80002218 <__adddf3>
8000a234: 83 22 41 00  	lw	t0, 4(sp)
8000a238: 57 c1 02 5e  	<unknown>
8000a23c: 7b 66 11 00  	vsw12.v	v1, 12(v2)
8000a240: d7 c0 02 5e  	<unknown>
8000a244: 7b e4 00 00  	vsw12.v	v0, 8(v1)
8000a248: 83 20 41 ff  	lw	ra, -12(sp)
8000a24c: 0b c0 00 04  	barrier	x0, x0, 1
8000a250: 13 01 41 ff  	addi	sp, sp, -12
8000a254: 13 02 c2 fe  	addi	tp, tp, -20
8000a258: 67 80 00 00  	ret

8000a25c <errol1_dtoa>:
8000a25c: 13 01 41 0b  	addi	sp, sp, 180
8000a260: 13 02 c2 11  	addi	tp, tp, 284
8000a264: 0b 20 10 00  	regext	zero, zero, 1
8000a268: 57 40 02 5e  	<unknown>
8000a26c: 23 26 11 f4  	sw	ra, -180(sp)
8000a270: 0b 20 80 00  	regext	zero, zero, 8
8000a274: 7b 6e 10 e2  	vsw12.v	v1, -452(v0)
8000a278: 0b 20 80 00  	regext	zero, zero, 8
8000a27c: 7b 6c 00 e2  	vsw12.v	v0, -456(v0)
8000a280: 0b 20 80 00  	regext	zero, zero, 8
8000a284: 7b 60 20 e4  	vsw12.v	v2, -448(v0)
8000a288: 0b 20 80 00  	regext	zero, zero, 8
8000a28c: 7b 62 30 e4  	vsw12.v	v3, -444(v0)
8000a290: 03 24 82 e3  	lw	s0, -456(tp)
8000a294: 83 23 c2 e3  	lw	t2, -452(tp)
8000a298: b7 02 f0 7f  	lui	t0, 524032
8000a29c: 93 82 f2 ff  	addi	t0, t0, -1
8000a2a0: 13 03 f0 ff  	li	t1, -1
8000a2a4: 57 40 04 5e  	<unknown>
8000a2a8: d7 c0 03 5e  	<unknown>
8000a2ac: 57 41 03 5e  	<unknown>
8000a2b0: d7 c1 02 5e  	<unknown>
8000a2b4: ef 70 1f 92  	jal	0x80001bd4 <__nedf2>
8000a2b8: 93 02 00 00  	li	t0, 0
8000a2bc: d7 c0 02 5e  	<unknown>

8000a2c0 <.Lpcrel_hi16>:
8000a2c0: 17 13 00 00  	auipc	t1, 1
8000a2c4: 5b 30 03 f0  	setrpc	zero, t1, -256
8000a2c8: 5b 96 00 02  	vbne	v0, v1, 0x8000a2f4 <.LBB11_2>
8000a2cc: 6f 00 40 00  	j	0x8000a2d0 <.LBB11_1>

8000a2d0 <.LBB11_1>:
8000a2d0: 03 23 02 e4  	lw	t1, -448(tp)
8000a2d4: b7 f2 00 80  	lui	t0, 524303
8000a2d8: 93 82 72 03  	addi	t0, t0, 55
8000a2dc: 57 40 03 5e  	<unknown>
8000a2e0: d7 c0 02 5e  	<unknown>
8000a2e4: ef f0 df 97  	jal	0x80009c60 <strcpy>
8000a2e8: 93 02 50 13  	li	t0, 309
8000a2ec: 23 2a 52 e2  	sw	t0, -460(tp)
8000a2f0: 6f 00 10 6d  	j	0x8000b1c0 <.LBB11_57>

8000a2f4 <.LBB11_2>:
8000a2f4: 03 23 82 e3  	lw	t1, -456(tp)
8000a2f8: 83 22 c2 e3  	lw	t0, -452(tp)
8000a2fc: 57 40 03 5e  	<unknown>
8000a300: d7 c0 02 5e  	<unknown>
8000a304: ef 70 8f d3  	jal	0x8000183c <__fixdfsi>
8000a308: 0b 20 80 00  	regext	zero, zero, 8
8000a30c: 7b 6c 00 e4  	vsw12.v	v0, -424(v0)
8000a310: 83 22 82 e5  	lw	t0, -424(tp)
8000a314: 57 c0 02 5e  	<unknown>
8000a318: ef 70 5f dd  	jal	0x800020ec <__floatsidf>
8000a31c: b7 62 47 55  	lui	t0, 349302
8000a320: 13 83 22 a3  	addi	t1, t0, -1486
8000a324: b7 42 d3 3f  	lui	t0, 261428
8000a328: 93 82 32 41  	addi	t0, t0, 1043
8000a32c: 57 41 03 5e  	<unknown>
8000a330: d7 c1 02 5e  	<unknown>
8000a334: ef 50 df dc  	jal	0x80000100 <__muldf3>
8000a338: 13 03 00 00  	li	t1, 0
8000a33c: b7 32 73 40  	lui	t0, 263987
8000a340: 57 41 03 5e  	<unknown>
8000a344: d7 c1 02 5e  	<unknown>
8000a348: ef 70 1f ed  	jal	0x80002218 <__adddf3>
8000a34c: ef 70 0f cf  	jal	0x8000183c <__fixdfsi>
8000a350: 0b 20 80 00  	regext	zero, zero, 8
8000a354: 7b 6e 00 e4  	vsw12.v	v0, -420(v0)
8000a358: 03 23 c2 e5  	lw	t1, -420(tp)
8000a35c: 93 02 30 01  	li	t0, 19
8000a360: 63 ca 62 00  	blt	t0, t1, 0x8000a374 <.LBB11_4>
8000a364: 6f 00 40 00  	j	0x8000a368 <.LBB11_3>

8000a368 <.LBB11_3>:
8000a368: 93 02 40 01  	li	t0, 20
8000a36c: 23 2e 52 e4  	sw	t0, -420(tp)
8000a370: 6f 00 40 02  	j	0x8000a394 <.LBB11_7>

8000a374 <.LBB11_4>:
8000a374: 83 22 c2 e5  	lw	t0, -420(tp)
8000a378: 13 03 80 25  	li	t1, 600
8000a37c: 63 ea 62 00  	bltu	t0, t1, 0x8000a390 <.LBB11_6>
8000a380: 6f 00 40 00  	j	0x8000a384 <.LBB11_5>

8000a384 <.LBB11_5>:
8000a384: 93 02 70 25  	li	t0, 599
8000a388: 23 2e 52 e4  	sw	t0, -420(tp)
8000a38c: 6f 00 40 00  	j	0x8000a390 <.LBB11_6>

8000a390 <.LBB11_6>:
8000a390: 6f 00 40 00  	j	0x8000a394 <.LBB11_7>

8000a394 <.LBB11_7>:
8000a394: 83 22 c2 e5  	lw	t0, -420(tp)
8000a398: 13 93 42 00  	slli	t1, t0, 4
8000a39c: b7 f2 00 80  	lui	t0, 524303
8000a3a0: 93 82 82 06  	addi	t0, t0, 104
8000a3a4: 23 26 51 fe  	sw	t0, -20(sp)
8000a3a8: b3 82 62 00  	add	t0, t0, t1
8000a3ac: 03 a3 c2 00  	lw	t1, 12(t0)
8000a3b0: 23 26 62 e6  	sw	t1, -404(tp)
8000a3b4: 03 a3 82 00  	lw	t1, 8(t0)
8000a3b8: 23 24 62 e6  	sw	t1, -408(tp)
8000a3bc: 03 a3 42 00  	lw	t1, 4(t0)
8000a3c0: 23 22 62 e6  	sw	t1, -412(tp)
8000a3c4: 83 a2 02 00  	lw	t0, 0(t0)
8000a3c8: 23 20 52 e6  	sw	t0, -416(tp)
8000a3cc: 83 23 c2 e6  	lw	t2, -404(tp)
8000a3d0: 03 24 82 e6  	lw	s0, -408(tp)
8000a3d4: 83 24 42 e6  	lw	s1, -412(tp)
8000a3d8: 03 25 02 e6  	lw	a0, -416(tp)
8000a3dc: 83 22 c2 e3  	lw	t0, -452(tp)
8000a3e0: 03 23 82 e3  	lw	t1, -456(tp)
8000a3e4: 93 05 02 eb  	addi	a1, tp, -336
8000a3e8: 57 c0 05 5e  	<unknown>
8000a3ec: d7 40 05 5e  	<unknown>
8000a3f0: 57 c1 04 5e  	<unknown>
8000a3f4: d7 41 04 5e  	<unknown>
8000a3f8: 57 c2 03 5e  	<unknown>
8000a3fc: d7 42 03 5e  	<unknown>
8000a400: 57 c3 02 5e  	<unknown>
8000a404: ef 00 d0 5d  	jal	0x8000b1e0 <hp_prod>
8000a408: 83 22 c1 fe  	lw	t0, -20(sp)
8000a40c: 03 23 c2 eb  	lw	t1, -324(tp)
8000a410: 23 26 62 e6  	sw	t1, -404(tp)
8000a414: 03 23 82 eb  	lw	t1, -328(tp)
8000a418: 23 24 62 e6  	sw	t1, -408(tp)
8000a41c: 03 23 42 eb  	lw	t1, -332(tp)
8000a420: 23 22 62 e6  	sw	t1, -412(tp)
8000a424: 03 23 02 eb  	lw	t1, -336(tp)
8000a428: 23 20 62 e6  	sw	t1, -416(tp)
8000a42c: 03 23 c2 e5  	lw	t1, -420(tp)
8000a430: 13 13 43 00  	slli	t1, t1, 4
8000a434: 33 83 62 00  	add	t1, t0, t1
8000a438: 83 22 03 00  	lw	t0, 0(t1)
8000a43c: 03 23 43 00  	lw	t1, 4(t1)
8000a440: 23 2a 62 e4  	sw	t1, -428(tp)
8000a444: 23 28 52 e4  	sw	t0, -432(tp)
8000a448: b7 02 f0 3f  	lui	t0, 261888
8000a44c: 23 26 52 e4  	sw	t0, -436(tp)
8000a450: 93 02 00 00  	li	t0, 0
8000a454: 23 24 52 e4  	sw	t0, -440(tp)
8000a458: 83 22 c2 e5  	lw	t0, -420(tp)
8000a45c: 13 03 30 13  	li	t1, 307
8000a460: b3 82 62 40  	sub	t0, t0, t1
8000a464: 23 2e 52 e4  	sw	t0, -420(tp)
8000a468: 6f 00 40 00  	j	0x8000a46c <.LBB11_8>

8000a46c <.LBB11_8>:
8000a46c: 03 24 02 e6  	lw	s0, -416(tp)
8000a470: 83 23 42 e6  	lw	t2, -412(tp)
8000a474: 13 03 00 00  	li	t1, 0
8000a478: 23 2a 61 fe  	sw	t1, -12(sp)
8000a47c: b7 02 24 40  	lui	t0, 262720
8000a480: 57 40 04 5e  	<unknown>
8000a484: d7 c0 03 5e  	<unknown>
8000a488: 57 41 03 5e  	<unknown>
8000a48c: d7 c1 02 5e  	<unknown>
8000a490: ef 70 5f b1  	jal	0x80001fa4 <__gtdf2>
8000a494: 03 23 41 ff  	lw	t1, -12(sp)
8000a498: d7 40 00 02  	vadd.vx	v1, v0, zero
8000a49c: 93 02 10 00  	li	t0, 1
8000a4a0: 57 40 03 5e  	<unknown>
8000a4a4: 23 28 51 fe  	sw	t0, -16(sp)

8000a4a8 <.Lpcrel_hi17>:
8000a4a8: 17 03 00 00  	auipc	t1, 0
8000a4ac: 5b 30 83 09  	setrpc	zero, t1, 152
8000a4b0: 5b c8 00 08  	vblt	v0, v1, 0x8000a540 <.LBB11_12>
8000a4b4: 6f 00 40 00  	j	0x8000a4b8 <.LBB11_9>

8000a4b8 <.LBB11_9>:
8000a4b8: 03 24 02 e6  	lw	s0, -416(tp)
8000a4bc: 83 23 42 e6  	lw	t2, -412(tp)
8000a4c0: 13 03 00 00  	li	t1, 0
8000a4c4: 23 2e 61 fe  	sw	t1, -4(sp)
8000a4c8: b7 02 24 40  	lui	t0, 262720
8000a4cc: 57 40 04 5e  	<unknown>
8000a4d0: d7 c0 03 5e  	<unknown>
8000a4d4: 57 41 03 5e  	<unknown>
8000a4d8: d7 c1 02 5e  	<unknown>
8000a4dc: ef 70 8f ef  	jal	0x80001bd4 <__nedf2>
8000a4e0: 03 23 c1 ff  	lw	t1, -4(sp)
8000a4e4: 93 02 03 00  	mv	t0, t1
8000a4e8: d7 40 03 5e  	<unknown>
8000a4ec: 23 2c 51 fe  	sw	t0, -8(sp)

8000a4f0 <.Lpcrel_hi18>:
8000a4f0: 17 03 00 00  	auipc	t1, 0
8000a4f4: 5b 30 03 04  	setrpc	zero, t1, 64
8000a4f8: 5b 9c 00 02  	vbne	v0, v1, 0x8000a530 <.LBB11_11>
8000a4fc: 6f 00 40 00  	j	0x8000a500 <.LBB11_10>

8000a500 <.LBB11_10>:
8000a500: 83 23 82 e6  	lw	t2, -408(tp)
8000a504: 03 23 c2 e6  	lw	t1, -404(tp)
8000a508: 93 02 00 00  	li	t0, 0
8000a50c: 57 c0 03 5e  	<unknown>
8000a510: d7 40 03 5e  	<unknown>
8000a514: 57 c1 02 5e  	<unknown>
8000a518: d7 c1 02 5e  	<unknown>
8000a51c: ef 70 1f 94  	jal	0x80001e5c <__gedf2>
8000a520: 57 30 00 7e  	vmsgt.vi	v0, v0, 0
8000a524: d7 22 00 42  	vmv.x.s	t0, v0
8000a528: 23 2c 51 fe  	sw	t0, -8(sp)
8000a52c: 6f 00 40 00  	j	0x8000a530 <.LBB11_11>

8000a530 <.LBB11_11>:
8000a530: 5b 20 00 00  	join	zero, zero, 0
8000a534: 83 22 81 ff  	lw	t0, -8(sp)
8000a538: 23 28 51 fe  	sw	t0, -16(sp)
8000a53c: 6f 00 40 00  	j	0x8000a540 <.LBB11_12>

8000a540 <.LBB11_12>:
8000a540: 5b 20 00 00  	join	zero, zero, 0
8000a544: 83 22 01 ff  	lw	t0, -16(sp)
8000a548: 93 f2 12 00  	andi	t0, t0, 1
8000a54c: 63 8c 02 04  	beqz	t0, 0x8000a5a4 <.LBB11_14>
8000a550: 6f 00 40 00  	j	0x8000a554 <.LBB11_13>

8000a554 <.LBB11_13>:
8000a554: 83 22 c2 e5  	lw	t0, -420(tp)
8000a558: 93 82 12 00  	addi	t0, t0, 1
8000a55c: 23 2e 52 e4  	sw	t0, -420(tp)
8000a560: 93 02 02 e6  	addi	t0, tp, -416
8000a564: 57 c0 02 5e  	<unknown>
8000a568: ef f0 0f f7  	jal	0x80009cd8 <hp_div10>
8000a56c: 03 24 82 e4  	lw	s0, -440(tp)
8000a570: 83 23 c2 e4  	lw	t2, -436(tp)
8000a574: 13 03 00 00  	li	t1, 0
8000a578: b7 02 24 40  	lui	t0, 262720
8000a57c: 57 40 04 5e  	<unknown>
8000a580: d7 c0 03 5e  	<unknown>
8000a584: 57 41 03 5e  	<unknown>
8000a588: d7 c1 02 5e  	<unknown>
8000a58c: ef 60 0f d1  	jal	0x80000a9c <__divdf3>
8000a590: 0b 20 80 00  	regext	zero, zero, 8
8000a594: 7b 66 10 e4  	vsw12.v	v1, -436(v0)
8000a598: 0b 20 80 00  	regext	zero, zero, 8
8000a59c: 7b 64 00 e4  	vsw12.v	v0, -440(v0)
8000a5a0: 6f f0 df ec  	j	0x8000a46c <.LBB11_8>

8000a5a4 <.LBB11_14>:
8000a5a4: 6f 00 40 00  	j	0x8000a5a8 <.LBB11_15>

8000a5a8 <.LBB11_15>:
8000a5a8: 03 24 02 e6  	lw	s0, -416(tp)
8000a5ac: 83 23 42 e6  	lw	t2, -412(tp)
8000a5b0: 13 03 00 00  	li	t1, 0
8000a5b4: 23 22 61 00  	sw	t1, 4(sp)
8000a5b8: b7 02 f0 3f  	lui	t0, 261888
8000a5bc: 57 40 04 5e  	<unknown>
8000a5c0: d7 c0 03 5e  	<unknown>
8000a5c4: 57 41 03 5e  	<unknown>
8000a5c8: d7 c1 02 5e  	<unknown>
8000a5cc: ef 70 4f cc  	jal	0x80001a90 <__ltdf2>
8000a5d0: 03 23 41 00  	lw	t1, 4(sp)
8000a5d4: 93 02 10 00  	li	t0, 1
8000a5d8: d7 40 03 5e  	<unknown>
8000a5dc: 23 20 51 00  	sw	t0, 0(sp)

8000a5e0 <.Lpcrel_hi19>:
8000a5e0: 17 03 00 00  	auipc	t1, 0
8000a5e4: 5b 30 83 09  	setrpc	zero, t1, 152
8000a5e8: 5b c8 00 08  	vblt	v0, v1, 0x8000a678 <.LBB11_19>
8000a5ec: 6f 00 40 00  	j	0x8000a5f0 <.LBB11_16>

8000a5f0 <.LBB11_16>:
8000a5f0: 03 24 02 e6  	lw	s0, -416(tp)
8000a5f4: 83 23 42 e6  	lw	t2, -412(tp)
8000a5f8: 13 03 00 00  	li	t1, 0
8000a5fc: 23 26 61 00  	sw	t1, 12(sp)
8000a600: b7 02 f0 3f  	lui	t0, 261888
8000a604: 57 40 04 5e  	<unknown>
8000a608: d7 c0 03 5e  	<unknown>
8000a60c: 57 41 03 5e  	<unknown>
8000a610: d7 c1 02 5e  	<unknown>
8000a614: ef 70 0f dc  	jal	0x80001bd4 <__nedf2>
8000a618: 03 23 c1 00  	lw	t1, 12(sp)
8000a61c: 93 02 03 00  	mv	t0, t1
8000a620: d7 40 03 5e  	<unknown>
8000a624: 23 24 51 00  	sw	t0, 8(sp)

8000a628 <.Lpcrel_hi20>:
8000a628: 17 03 00 00  	auipc	t1, 0
8000a62c: 5b 30 03 04  	setrpc	zero, t1, 64
8000a630: 5b 9c 00 02  	vbne	v0, v1, 0x8000a668 <.LBB11_18>
8000a634: 6f 00 40 00  	j	0x8000a638 <.LBB11_17>

8000a638 <.LBB11_17>:
8000a638: 83 23 82 e6  	lw	t2, -408(tp)
8000a63c: 03 23 c2 e6  	lw	t1, -404(tp)
8000a640: 93 02 00 00  	li	t0, 0
8000a644: 57 c0 03 5e  	<unknown>
8000a648: d7 40 03 5e  	<unknown>
8000a64c: 57 c1 02 5e  	<unknown>
8000a650: d7 c1 02 5e  	<unknown>
8000a654: ef 70 cf c3  	jal	0x80001a90 <__ltdf2>
8000a658: 57 b0 0f 76  	vmsle.vi	v0, v0, -1
8000a65c: d7 22 00 42  	vmv.x.s	t0, v0
8000a660: 23 24 51 00  	sw	t0, 8(sp)
8000a664: 6f 00 40 00  	j	0x8000a668 <.LBB11_18>

8000a668 <.LBB11_18>:
8000a668: 5b 20 00 00  	join	zero, zero, 0
8000a66c: 83 22 81 00  	lw	t0, 8(sp)
8000a670: 23 20 51 00  	sw	t0, 0(sp)
8000a674: 6f 00 40 00  	j	0x8000a678 <.LBB11_19>

8000a678 <.LBB11_19>:
8000a678: 5b 20 00 00  	join	zero, zero, 0
8000a67c: 83 22 01 00  	lw	t0, 0(sp)
8000a680: 93 f2 12 00  	andi	t0, t0, 1
8000a684: 63 8c 02 04  	beqz	t0, 0x8000a6dc <.LBB11_21>
8000a688: 6f 00 40 00  	j	0x8000a68c <.LBB11_20>

8000a68c <.LBB11_20>:
8000a68c: 83 22 c2 e5  	lw	t0, -420(tp)
8000a690: 93 82 f2 ff  	addi	t0, t0, -1
8000a694: 23 2e 52 e4  	sw	t0, -420(tp)
8000a698: 93 02 02 e6  	addi	t0, tp, -416
8000a69c: 57 c0 02 5e  	<unknown>
8000a6a0: ef f0 df 82  	jal	0x80009ecc <hp_mul10>
8000a6a4: 03 24 82 e4  	lw	s0, -440(tp)
8000a6a8: 83 23 c2 e4  	lw	t2, -436(tp)
8000a6ac: 13 03 00 00  	li	t1, 0
8000a6b0: b7 02 24 40  	lui	t0, 262720
8000a6b4: 57 40 04 5e  	<unknown>
8000a6b8: d7 c0 03 5e  	<unknown>
8000a6bc: 57 41 03 5e  	<unknown>
8000a6c0: d7 c1 02 5e  	<unknown>
8000a6c4: ef 50 df a3  	jal	0x80000100 <__muldf3>
8000a6c8: 0b 20 80 00  	regext	zero, zero, 8
8000a6cc: 7b 66 10 e4  	vsw12.v	v1, -436(v0)
8000a6d0: 0b 20 80 00  	regext	zero, zero, 8
8000a6d4: 7b 64 00 e4  	vsw12.v	v0, -440(v0)
8000a6d8: 6f f0 1f ed  	j	0x8000a5a8 <.LBB11_15>

8000a6dc <.LBB11_21>:
8000a6dc: 83 22 02 e6  	lw	t0, -416(tp)
8000a6e0: 03 23 42 e6  	lw	t1, -412(tp)
8000a6e4: 23 2a 62 e6  	sw	t1, -396(tp)
8000a6e8: 23 28 52 e6  	sw	t0, -400(tp)
8000a6ec: 83 22 c2 e6  	lw	t0, -404(tp)
8000a6f0: 23 2c 51 02  	sw	t0, 56(sp)
8000a6f4: 83 22 82 e6  	lw	t0, -408(tp)
8000a6f8: 23 2e 51 02  	sw	t0, 60(sp)
8000a6fc: 83 22 c2 e3  	lw	t0, -452(tp)
8000a700: 03 23 82 e3  	lw	t1, -456(tp)
8000a704: 57 40 03 5e  	<unknown>
8000a708: d7 c0 02 5e  	<unknown>
8000a70c: ef f0 5f 9a  	jal	0x8000a0b0 <fpnext>
8000a710: 03 23 82 e3  	lw	t1, -456(tp)
8000a714: 83 22 c2 e3  	lw	t0, -452(tp)
8000a718: 57 41 03 5e  	<unknown>
8000a71c: d7 c1 02 5e  	<unknown>
8000a720: ef 80 0f d4  	jal	0x80002c60 <__subdf3>
8000a724: 03 23 02 e5  	lw	t1, -432(tp)
8000a728: 83 22 42 e5  	lw	t0, -428(tp)
8000a72c: 57 41 03 5e  	<unknown>
8000a730: d7 c1 02 5e  	<unknown>
8000a734: ef 50 df 9c  	jal	0x80000100 <__muldf3>
8000a738: 03 23 82 e4  	lw	t1, -440(tp)
8000a73c: 83 22 c2 e4  	lw	t0, -436(tp)
8000a740: 57 41 03 5e  	<unknown>
8000a744: d7 c1 02 5e  	<unknown>
8000a748: ef 50 9f 9b  	jal	0x80000100 <__muldf3>
8000a74c: 13 03 40 01  	li	t1, 20
8000a750: 23 2a 61 02  	sw	t1, 52(sp)
8000a754: b7 02 00 40  	lui	t0, 262144
8000a758: 23 24 51 02  	sw	t0, 40(sp)
8000a75c: 57 41 03 5e  	<unknown>
8000a760: d7 c1 02 5e  	<unknown>
8000a764: ef 60 8f b3  	jal	0x80000a9c <__divdf3>
8000a768: 03 23 c1 03  	lw	t1, 60(sp)
8000a76c: 83 22 81 03  	lw	t0, 56(sp)
8000a770: 57 41 00 02  	vadd.vx	v2, v0, zero
8000a774: d7 41 10 02  	vadd.vx	v3, v1, zero
8000a778: 57 40 03 5e  	<unknown>
8000a77c: d7 c0 02 5e  	<unknown>
8000a780: ef 70 9f a9  	jal	0x80002218 <__adddf3>
8000a784: 0b 20 80 00  	regext	zero, zero, 8
8000a788: 7b 6e 10 e6  	vsw12.v	v1, -388(v0)
8000a78c: 0b 20 80 00  	regext	zero, zero, 8
8000a790: 7b 6c 00 e6  	vsw12.v	v0, -392(v0)
8000a794: 83 22 02 e6  	lw	t0, -416(tp)
8000a798: 03 23 42 e6  	lw	t1, -412(tp)
8000a79c: 23 22 62 e8  	sw	t1, -380(tp)
8000a7a0: 23 20 52 e8  	sw	t0, -384(tp)
8000a7a4: 83 22 c2 e6  	lw	t0, -404(tp)
8000a7a8: 23 26 51 02  	sw	t0, 44(sp)
8000a7ac: 83 22 82 e6  	lw	t0, -408(tp)
8000a7b0: 23 28 51 02  	sw	t0, 48(sp)
8000a7b4: 83 22 c2 e3  	lw	t0, -452(tp)
8000a7b8: 03 23 82 e3  	lw	t1, -456(tp)
8000a7bc: 57 40 03 5e  	<unknown>
8000a7c0: d7 c0 02 5e  	<unknown>
8000a7c4: ef f0 1f 95  	jal	0x8000a114 <fpprev>
8000a7c8: 03 23 82 e3  	lw	t1, -456(tp)
8000a7cc: 83 22 c2 e3  	lw	t0, -452(tp)
8000a7d0: 57 41 03 5e  	<unknown>
8000a7d4: d7 c1 02 5e  	<unknown>
8000a7d8: ef 80 8f c8  	jal	0x80002c60 <__subdf3>
8000a7dc: 03 23 02 e5  	lw	t1, -432(tp)
8000a7e0: 83 22 42 e5  	lw	t0, -428(tp)
8000a7e4: 57 41 03 5e  	<unknown>
8000a7e8: d7 c1 02 5e  	<unknown>
8000a7ec: ef 50 5f 91  	jal	0x80000100 <__muldf3>
8000a7f0: 03 23 82 e4  	lw	t1, -440(tp)
8000a7f4: 83 22 c2 e4  	lw	t0, -436(tp)
8000a7f8: 57 41 03 5e  	<unknown>
8000a7fc: d7 c1 02 5e  	<unknown>
8000a800: ef 50 1f 90  	jal	0x80000100 <__muldf3>
8000a804: 03 23 41 03  	lw	t1, 52(sp)
8000a808: 83 22 81 02  	lw	t0, 40(sp)
8000a80c: 57 41 03 5e  	<unknown>
8000a810: d7 c1 02 5e  	<unknown>
8000a814: ef 60 8f a8  	jal	0x80000a9c <__divdf3>
8000a818: 03 23 01 03  	lw	t1, 48(sp)
8000a81c: 83 22 c1 02  	lw	t0, 44(sp)
8000a820: 57 41 00 02  	vadd.vx	v2, v0, zero
8000a824: d7 41 10 02  	vadd.vx	v3, v1, zero
8000a828: 57 40 03 5e  	<unknown>
8000a82c: d7 c0 02 5e  	<unknown>
8000a830: ef 70 9f 9e  	jal	0x80002218 <__adddf3>
8000a834: 0b 20 80 00  	regext	zero, zero, 8
8000a838: 7b 66 10 e8  	vsw12.v	v1, -372(v0)
8000a83c: 0b 20 80 00  	regext	zero, zero, 8
8000a840: 7b 64 00 e8  	vsw12.v	v0, -376(v0)
8000a844: 83 22 02 e6  	lw	t0, -416(tp)
8000a848: 03 23 42 e6  	lw	t1, -412(tp)
8000a84c: 23 2a 62 e8  	sw	t1, -364(tp)
8000a850: 23 28 52 e8  	sw	t0, -368(tp)
8000a854: 83 22 c2 e6  	lw	t0, -404(tp)
8000a858: 23 20 51 02  	sw	t0, 32(sp)
8000a85c: 83 22 82 e6  	lw	t0, -408(tp)
8000a860: 23 22 51 02  	sw	t0, 36(sp)
8000a864: 83 22 c2 e3  	lw	t0, -452(tp)
8000a868: 03 23 82 e3  	lw	t1, -456(tp)
8000a86c: 57 40 03 5e  	<unknown>
8000a870: d7 c0 02 5e  	<unknown>
8000a874: ef f0 df 83  	jal	0x8000a0b0 <fpnext>
8000a878: 03 23 82 e3  	lw	t1, -456(tp)
8000a87c: 83 22 c2 e3  	lw	t0, -452(tp)
8000a880: 57 41 03 5e  	<unknown>
8000a884: d7 c1 02 5e  	<unknown>
8000a888: ef 80 8f bd  	jal	0x80002c60 <__subdf3>
8000a88c: 03 23 02 e5  	lw	t1, -432(tp)
8000a890: 83 22 42 e5  	lw	t0, -428(tp)
8000a894: 57 41 03 5e  	<unknown>
8000a898: d7 c1 02 5e  	<unknown>
8000a89c: ef 50 5f 86  	jal	0x80000100 <__muldf3>
8000a8a0: 03 23 82 e4  	lw	t1, -440(tp)
8000a8a4: 83 22 c2 e4  	lw	t0, -436(tp)
8000a8a8: 57 41 03 5e  	<unknown>
8000a8ac: d7 c1 02 5e  	<unknown>
8000a8b0: ef 50 1f 85  	jal	0x80000100 <__muldf3>
8000a8b4: 83 22 81 02  	lw	t0, 40(sp)
8000a8b8: 93 82 f2 ff  	addi	t0, t0, -1
8000a8bc: 23 2c 51 00  	sw	t0, 24(sp)
8000a8c0: 13 03 90 fd  	li	t1, -39
8000a8c4: 23 2e 61 00  	sw	t1, 28(sp)
8000a8c8: 57 41 03 5e  	<unknown>
8000a8cc: d7 c1 02 5e  	<unknown>
8000a8d0: ef 60 cf 9c  	jal	0x80000a9c <__divdf3>
8000a8d4: 03 23 41 02  	lw	t1, 36(sp)
8000a8d8: 83 22 01 02  	lw	t0, 32(sp)
8000a8dc: 57 41 00 02  	vadd.vx	v2, v0, zero
8000a8e0: d7 41 10 02  	vadd.vx	v3, v1, zero
8000a8e4: 57 40 03 5e  	<unknown>
8000a8e8: d7 c0 02 5e  	<unknown>
8000a8ec: ef 70 df 92  	jal	0x80002218 <__adddf3>
8000a8f0: 0b 20 80 00  	regext	zero, zero, 8
8000a8f4: 7b 6e 10 e8  	vsw12.v	v1, -356(v0)
8000a8f8: 0b 20 80 00  	regext	zero, zero, 8
8000a8fc: 7b 6c 00 e8  	vsw12.v	v0, -360(v0)
8000a900: 83 22 02 e6  	lw	t0, -416(tp)
8000a904: 03 23 42 e6  	lw	t1, -412(tp)
8000a908: 23 22 62 ea  	sw	t1, -348(tp)
8000a90c: 23 20 52 ea  	sw	t0, -352(tp)
8000a910: 83 22 c2 e6  	lw	t0, -404(tp)
8000a914: 23 28 51 00  	sw	t0, 16(sp)
8000a918: 83 22 82 e6  	lw	t0, -408(tp)
8000a91c: 23 2a 51 00  	sw	t0, 20(sp)
8000a920: 83 22 c2 e3  	lw	t0, -452(tp)
8000a924: 03 23 82 e3  	lw	t1, -456(tp)
8000a928: 57 40 03 5e  	<unknown>
8000a92c: d7 c0 02 5e  	<unknown>
8000a930: ef f0 4f fe  	jal	0x8000a114 <fpprev>
8000a934: 03 23 82 e3  	lw	t1, -456(tp)
8000a938: 83 22 c2 e3  	lw	t0, -452(tp)
8000a93c: 57 41 03 5e  	<unknown>
8000a940: d7 c1 02 5e  	<unknown>
8000a944: ef 80 cf b1  	jal	0x80002c60 <__subdf3>
8000a948: 03 23 02 e5  	lw	t1, -432(tp)
8000a94c: 83 22 42 e5  	lw	t0, -428(tp)
8000a950: 57 41 03 5e  	<unknown>
8000a954: d7 c1 02 5e  	<unknown>
8000a958: ef 50 8f fa  	jal	0x80000100 <__muldf3>
8000a95c: 03 23 82 e4  	lw	t1, -440(tp)
8000a960: 83 22 c2 e4  	lw	t0, -436(tp)
8000a964: 57 41 03 5e  	<unknown>
8000a968: d7 c1 02 5e  	<unknown>
8000a96c: ef 50 4f f9  	jal	0x80000100 <__muldf3>
8000a970: 03 23 c1 01  	lw	t1, 28(sp)
8000a974: 83 22 81 01  	lw	t0, 24(sp)
8000a978: 57 41 03 5e  	<unknown>
8000a97c: d7 c1 02 5e  	<unknown>
8000a980: ef 60 cf 91  	jal	0x80000a9c <__divdf3>
8000a984: 03 23 41 01  	lw	t1, 20(sp)
8000a988: 83 22 01 01  	lw	t0, 16(sp)
8000a98c: 57 41 00 02  	vadd.vx	v2, v0, zero
8000a990: d7 41 10 02  	vadd.vx	v3, v1, zero
8000a994: 57 40 03 5e  	<unknown>
8000a998: d7 c0 02 5e  	<unknown>
8000a99c: ef 70 df 87  	jal	0x80002218 <__adddf3>
8000a9a0: 0b 20 80 00  	regext	zero, zero, 8
8000a9a4: 7b 66 10 ea  	vsw12.v	v1, -340(v0)
8000a9a8: 0b 20 80 00  	regext	zero, zero, 8
8000a9ac: 7b 64 00 ea  	vsw12.v	v0, -344(v0)
8000a9b0: 93 02 02 e7  	addi	t0, tp, -400
8000a9b4: 57 c0 02 5e  	<unknown>
8000a9b8: ef f0 0f fc  	jal	0x8000a178 <hp_normalize>
8000a9bc: 93 02 02 e8  	addi	t0, tp, -384
8000a9c0: 57 c0 02 5e  	<unknown>
8000a9c4: ef f0 4f fb  	jal	0x8000a178 <hp_normalize>
8000a9c8: 93 02 02 e9  	addi	t0, tp, -368
8000a9cc: 57 c0 02 5e  	<unknown>
8000a9d0: ef f0 8f fa  	jal	0x8000a178 <hp_normalize>
8000a9d4: 93 02 02 ea  	addi	t0, tp, -352
8000a9d8: 57 c0 02 5e  	<unknown>
8000a9dc: ef f0 cf f9  	jal	0x8000a178 <hp_normalize>
8000a9e0: 6f 00 40 00  	j	0x8000a9e4 <.LBB11_22>

8000a9e4 <.LBB11_22>:
8000a9e4: 03 24 02 e7  	lw	s0, -400(tp)
8000a9e8: 83 23 42 e7  	lw	t2, -396(tp)
8000a9ec: 13 03 00 00  	li	t1, 0
8000a9f0: 23 22 61 04  	sw	t1, 68(sp)
8000a9f4: b7 02 24 40  	lui	t0, 262720
8000a9f8: 57 40 04 5e  	<unknown>
8000a9fc: d7 c0 03 5e  	<unknown>
8000aa00: 57 41 03 5e  	<unknown>
8000aa04: d7 c1 02 5e  	<unknown>
8000aa08: ef 70 cf d9  	jal	0x80001fa4 <__gtdf2>
8000aa0c: 03 23 41 04  	lw	t1, 68(sp)
8000aa10: d7 40 00 02  	vadd.vx	v1, v0, zero
8000aa14: 93 02 10 00  	li	t0, 1
8000aa18: 57 40 03 5e  	<unknown>
8000aa1c: 23 20 51 04  	sw	t0, 64(sp)

8000aa20 <.Lpcrel_hi21>:
8000aa20: 17 03 00 00  	auipc	t1, 0
8000aa24: 5b 30 83 09  	setrpc	zero, t1, 152
8000aa28: 5b c8 00 08  	vblt	v0, v1, 0x8000aab8 <.LBB11_26>
8000aa2c: 6f 00 40 00  	j	0x8000aa30 <.LBB11_23>

8000aa30 <.LBB11_23>:
8000aa30: 03 24 02 e7  	lw	s0, -400(tp)
8000aa34: 83 23 42 e7  	lw	t2, -396(tp)
8000aa38: 13 03 00 00  	li	t1, 0
8000aa3c: 23 26 61 04  	sw	t1, 76(sp)
8000aa40: b7 02 24 40  	lui	t0, 262720
8000aa44: 57 40 04 5e  	<unknown>
8000aa48: d7 c0 03 5e  	<unknown>
8000aa4c: 57 41 03 5e  	<unknown>
8000aa50: d7 c1 02 5e  	<unknown>
8000aa54: ef 70 0f 98  	jal	0x80001bd4 <__nedf2>
8000aa58: 03 23 c1 04  	lw	t1, 76(sp)
8000aa5c: 93 02 03 00  	mv	t0, t1
8000aa60: d7 40 03 5e  	<unknown>
8000aa64: 23 24 51 04  	sw	t0, 72(sp)

8000aa68 <.Lpcrel_hi22>:
8000aa68: 17 03 00 00  	auipc	t1, 0
8000aa6c: 5b 30 03 04  	setrpc	zero, t1, 64
8000aa70: 5b 9c 00 02  	vbne	v0, v1, 0x8000aaa8 <.LBB11_25>
8000aa74: 6f 00 40 00  	j	0x8000aa78 <.LBB11_24>

8000aa78 <.LBB11_24>:
8000aa78: 83 23 82 e7  	lw	t2, -392(tp)
8000aa7c: 03 23 c2 e7  	lw	t1, -388(tp)
8000aa80: 93 02 00 00  	li	t0, 0
8000aa84: 57 c0 03 5e  	<unknown>
8000aa88: d7 40 03 5e  	<unknown>
8000aa8c: 57 c1 02 5e  	<unknown>
8000aa90: d7 c1 02 5e  	<unknown>
8000aa94: ef 70 8f bc  	jal	0x80001e5c <__gedf2>
8000aa98: 57 30 00 7e  	vmsgt.vi	v0, v0, 0
8000aa9c: d7 22 00 42  	vmv.x.s	t0, v0
8000aaa0: 23 24 51 04  	sw	t0, 72(sp)
8000aaa4: 6f 00 40 00  	j	0x8000aaa8 <.LBB11_25>

8000aaa8 <.LBB11_25>:
8000aaa8: 5b 20 00 00  	join	zero, zero, 0
8000aaac: 83 22 81 04  	lw	t0, 72(sp)
8000aab0: 23 20 51 04  	sw	t0, 64(sp)
8000aab4: 6f 00 40 00  	j	0x8000aab8 <.LBB11_26>

8000aab8 <.LBB11_26>:
8000aab8: 5b 20 00 00  	join	zero, zero, 0
8000aabc: 83 22 01 04  	lw	t0, 64(sp)
8000aac0: 93 f2 12 00  	andi	t0, t0, 1
8000aac4: 63 84 02 04  	beqz	t0, 0x8000ab0c <.LBB11_28>
8000aac8: 6f 00 40 00  	j	0x8000aacc <.LBB11_27>

8000aacc <.LBB11_27>:
8000aacc: 83 22 c2 e5  	lw	t0, -420(tp)
8000aad0: 93 82 12 00  	addi	t0, t0, 1
8000aad4: 23 2e 52 e4  	sw	t0, -420(tp)
8000aad8: 93 02 02 e7  	addi	t0, tp, -400
8000aadc: 57 c0 02 5e  	<unknown>
8000aae0: ef f0 8f 9f  	jal	0x80009cd8 <hp_div10>
8000aae4: 93 02 02 e8  	addi	t0, tp, -384
8000aae8: 57 c0 02 5e  	<unknown>
8000aaec: ef f0 cf 9e  	jal	0x80009cd8 <hp_div10>
8000aaf0: 93 02 02 e9  	addi	t0, tp, -368
8000aaf4: 57 c0 02 5e  	<unknown>
8000aaf8: ef f0 0f 9e  	jal	0x80009cd8 <hp_div10>
8000aafc: 93 02 02 ea  	addi	t0, tp, -352
8000ab00: 57 c0 02 5e  	<unknown>
8000ab04: ef f0 4f 9d  	jal	0x80009cd8 <hp_div10>
8000ab08: 6f f0 df ed  	j	0x8000a9e4 <.LBB11_22>

8000ab0c <.LBB11_28>:
8000ab0c: 6f 00 40 00  	j	0x8000ab10 <.LBB11_29>

8000ab10 <.LBB11_29>:
8000ab10: 03 24 02 e7  	lw	s0, -400(tp)
8000ab14: 83 23 42 e7  	lw	t2, -396(tp)
8000ab18: 13 03 00 00  	li	t1, 0
8000ab1c: 23 2a 61 04  	sw	t1, 84(sp)
8000ab20: b7 02 f0 3f  	lui	t0, 261888
8000ab24: 57 40 04 5e  	<unknown>
8000ab28: d7 c0 03 5e  	<unknown>
8000ab2c: 57 41 03 5e  	<unknown>
8000ab30: d7 c1 02 5e  	<unknown>
8000ab34: ef 60 df f5  	jal	0x80001a90 <__ltdf2>
8000ab38: 03 23 41 05  	lw	t1, 84(sp)
8000ab3c: 93 02 10 00  	li	t0, 1
8000ab40: d7 40 03 5e  	<unknown>
8000ab44: 23 28 51 04  	sw	t0, 80(sp)

8000ab48 <.Lpcrel_hi23>:
8000ab48: 17 03 00 00  	auipc	t1, 0
8000ab4c: 5b 30 83 09  	setrpc	zero, t1, 152
8000ab50: 5b c8 00 08  	vblt	v0, v1, 0x8000abe0 <.LBB11_33>
8000ab54: 6f 00 40 00  	j	0x8000ab58 <.LBB11_30>

8000ab58 <.LBB11_30>:
8000ab58: 03 24 02 e7  	lw	s0, -400(tp)
8000ab5c: 83 23 42 e7  	lw	t2, -396(tp)
8000ab60: 13 03 00 00  	li	t1, 0
8000ab64: 23 2e 61 04  	sw	t1, 92(sp)
8000ab68: b7 02 f0 3f  	lui	t0, 261888
8000ab6c: 57 40 04 5e  	<unknown>
8000ab70: d7 c0 03 5e  	<unknown>
8000ab74: 57 41 03 5e  	<unknown>
8000ab78: d7 c1 02 5e  	<unknown>
8000ab7c: ef 70 8f 85  	jal	0x80001bd4 <__nedf2>
8000ab80: 03 23 c1 05  	lw	t1, 92(sp)
8000ab84: 93 02 03 00  	mv	t0, t1
8000ab88: d7 40 03 5e  	<unknown>
8000ab8c: 23 2c 51 04  	sw	t0, 88(sp)

8000ab90 <.Lpcrel_hi24>:
8000ab90: 17 03 00 00  	auipc	t1, 0
8000ab94: 5b 30 03 04  	setrpc	zero, t1, 64
8000ab98: 5b 9c 00 02  	vbne	v0, v1, 0x8000abd0 <.LBB11_32>
8000ab9c: 6f 00 40 00  	j	0x8000aba0 <.LBB11_31>

8000aba0 <.LBB11_31>:
8000aba0: 83 23 82 e7  	lw	t2, -392(tp)
8000aba4: 03 23 c2 e7  	lw	t1, -388(tp)
8000aba8: 93 02 00 00  	li	t0, 0
8000abac: 57 c0 03 5e  	<unknown>
8000abb0: d7 40 03 5e  	<unknown>
8000abb4: 57 c1 02 5e  	<unknown>
8000abb8: d7 c1 02 5e  	<unknown>
8000abbc: ef 60 5f ed  	jal	0x80001a90 <__ltdf2>
8000abc0: 57 b0 0f 76  	vmsle.vi	v0, v0, -1
8000abc4: d7 22 00 42  	vmv.x.s	t0, v0
8000abc8: 23 2c 51 04  	sw	t0, 88(sp)
8000abcc: 6f 00 40 00  	j	0x8000abd0 <.LBB11_32>

8000abd0 <.LBB11_32>:
8000abd0: 5b 20 00 00  	join	zero, zero, 0
8000abd4: 83 22 81 05  	lw	t0, 88(sp)
8000abd8: 23 28 51 04  	sw	t0, 80(sp)
8000abdc: 6f 00 40 00  	j	0x8000abe0 <.LBB11_33>

8000abe0 <.LBB11_33>:
8000abe0: 5b 20 00 00  	join	zero, zero, 0
8000abe4: 83 22 01 05  	lw	t0, 80(sp)
8000abe8: 93 f2 12 00  	andi	t0, t0, 1
8000abec: 63 84 02 04  	beqz	t0, 0x8000ac34 <.LBB11_35>
8000abf0: 6f 00 40 00  	j	0x8000abf4 <.LBB11_34>

8000abf4 <.LBB11_34>:
8000abf4: 83 22 c2 e5  	lw	t0, -420(tp)
8000abf8: 93 82 f2 ff  	addi	t0, t0, -1
8000abfc: 23 2e 52 e4  	sw	t0, -420(tp)
8000ac00: 93 02 02 e7  	addi	t0, tp, -400
8000ac04: 57 c0 02 5e  	<unknown>
8000ac08: ef f0 4f ac  	jal	0x80009ecc <hp_mul10>
8000ac0c: 93 02 02 e8  	addi	t0, tp, -384
8000ac10: 57 c0 02 5e  	<unknown>
8000ac14: ef f0 8f ab  	jal	0x80009ecc <hp_mul10>
8000ac18: 93 02 02 e9  	addi	t0, tp, -368
8000ac1c: 57 c0 02 5e  	<unknown>
8000ac20: ef f0 cf aa  	jal	0x80009ecc <hp_mul10>
8000ac24: 93 02 02 ea  	addi	t0, tp, -352
8000ac28: 57 c0 02 5e  	<unknown>
8000ac2c: ef f0 0f aa  	jal	0x80009ecc <hp_mul10>
8000ac30: 6f f0 1f ee  	j	0x8000ab10 <.LBB11_29>

8000ac34 <.LBB11_35>:
8000ac34: 03 23 42 e4  	lw	t1, -444(tp)
8000ac38: 93 02 10 00  	li	t0, 1
8000ac3c: 23 20 53 00  	sw	t0, 0(t1)
8000ac40: 6f 00 40 00  	j	0x8000ac44 <.LBB11_36>

8000ac44 <.LBB11_36>:
8000ac44: 83 23 02 e7  	lw	t2, -400(tp)
8000ac48: 03 23 42 e7  	lw	t1, -396(tp)
8000ac4c: 93 02 00 00  	li	t0, 0
8000ac50: 23 22 51 06  	sw	t0, 100(sp)
8000ac54: 57 c0 03 5e  	<unknown>
8000ac58: d7 40 03 5e  	<unknown>
8000ac5c: 57 c1 02 5e  	<unknown>
8000ac60: d7 c1 02 5e  	<unknown>
8000ac64: ef 60 1f f7  	jal	0x80001bd4 <__nedf2>
8000ac68: 03 23 41 06  	lw	t1, 100(sp)
8000ac6c: 93 02 10 00  	li	t0, 1
8000ac70: d7 40 03 5e  	<unknown>
8000ac74: 23 20 51 06  	sw	t0, 96(sp)

8000ac78 <.Lpcrel_hi25>:
8000ac78: 17 03 00 00  	auipc	t1, 0
8000ac7c: 5b 30 03 04  	setrpc	zero, t1, 64
8000ac80: 5b 9c 00 02  	vbne	v0, v1, 0x8000acb8 <.LBB11_38>
8000ac84: 6f 00 40 00  	j	0x8000ac88 <.LBB11_37>

8000ac88 <.LBB11_37>:
8000ac88: 83 23 82 e7  	lw	t2, -392(tp)
8000ac8c: 03 23 c2 e7  	lw	t1, -388(tp)
8000ac90: 93 02 00 00  	li	t0, 0
8000ac94: 57 c0 03 5e  	<unknown>
8000ac98: d7 40 03 5e  	<unknown>
8000ac9c: 57 c1 02 5e  	<unknown>
8000aca0: d7 c1 02 5e  	<unknown>
8000aca4: ef 60 1f f3  	jal	0x80001bd4 <__nedf2>
8000aca8: 57 30 00 66  	vmsne.vi	v0, v0, 0
8000acac: d7 22 00 42  	vmv.x.s	t0, v0
8000acb0: 23 20 51 06  	sw	t0, 96(sp)
8000acb4: 6f 00 40 00  	j	0x8000acb8 <.LBB11_38>

8000acb8 <.LBB11_38>:
8000acb8: 5b 20 00 00  	join	zero, zero, 0
8000acbc: 83 22 01 06  	lw	t0, 96(sp)
8000acc0: 93 f2 12 00  	andi	t0, t0, 1
8000acc4: 63 8c 02 44  	beqz	t0, 0x8000b11c <.LBB11_56>
8000acc8: 6f 00 40 00  	j	0x8000accc <.LBB11_39>

8000accc <.LBB11_39>:
8000accc: 03 23 02 e7  	lw	t1, -400(tp)
8000acd0: 83 22 42 e7  	lw	t0, -396(tp)
8000acd4: 57 40 03 5e  	<unknown>
8000acd8: d7 c0 02 5e  	<unknown>
8000acdc: ef 60 5f a5  	jal	0x80001730 <__fixunsdfsi>
8000ace0: fb 70 02 ec  	vsb12.v	v0, -319(v4)
8000ace4: 83 22 02 e7  	lw	t0, -400(tp)
8000ace8: 23 26 51 06  	sw	t0, 108(sp)
8000acec: 83 22 42 e7  	lw	t0, -396(tp)
8000acf0: 23 24 51 06  	sw	t0, 104(sp)
8000acf4: 83 42 12 ec  	lbu	t0, -319(tp)
8000acf8: 57 c0 02 5e  	<unknown>
8000acfc: ef 70 0f bf  	jal	0x800020ec <__floatsidf>
8000ad00: 03 23 c1 06  	lw	t1, 108(sp)
8000ad04: 83 22 81 06  	lw	t0, 104(sp)
8000ad08: 57 41 00 02  	vadd.vx	v2, v0, zero
8000ad0c: d7 41 10 02  	vadd.vx	v3, v1, zero
8000ad10: 57 40 03 5e  	<unknown>
8000ad14: d7 c0 02 5e  	<unknown>
8000ad18: ef 60 df eb  	jal	0x80001bd4 <__nedf2>
8000ad1c: 93 02 00 00  	li	t0, 0
8000ad20: d7 c0 02 5e  	<unknown>

8000ad24 <.Lpcrel_hi26>:
8000ad24: 17 03 00 00  	auipc	t1, 0
8000ad28: 5b 30 03 06  	setrpc	zero, t1, 96
8000ad2c: 5b 9c 00 04  	vbne	v0, v1, 0x8000ad84 <.LBB11_42>
8000ad30: 6f 00 40 00  	j	0x8000ad34 <.LBB11_40>

8000ad34 <.LBB11_40>:
8000ad34: 83 23 82 e7  	lw	t2, -392(tp)
8000ad38: 03 23 c2 e7  	lw	t1, -388(tp)
8000ad3c: 93 02 00 00  	li	t0, 0
8000ad40: 23 28 51 06  	sw	t0, 112(sp)
8000ad44: 57 c0 03 5e  	<unknown>
8000ad48: d7 40 03 5e  	<unknown>
8000ad4c: 57 c1 02 5e  	<unknown>
8000ad50: d7 c1 02 5e  	<unknown>
8000ad54: ef 60 df d3  	jal	0x80001a90 <__ltdf2>
8000ad58: 83 22 01 07  	lw	t0, 112(sp)
8000ad5c: d7 c0 02 5e  	<unknown>

8000ad60 <.Lpcrel_hi27>:
8000ad60: 17 03 00 00  	auipc	t1, 0
8000ad64: 5b 30 43 02  	setrpc	zero, t1, 36
8000ad68: 5b de 00 00  	vbge	v0, v1, 0x8000ad84 <.LBB11_42>
8000ad6c: 6f 00 40 00  	j	0x8000ad70 <.LBB11_41>

8000ad70 <.LBB11_41>:
8000ad70: 83 02 12 ec  	lb	t0, -319(tp)
8000ad74: 13 03 10 00  	li	t1, 1
8000ad78: b3 82 62 40  	sub	t0, t0, t1
8000ad7c: a3 00 52 ec  	sb	t0, -319(tp)
8000ad80: 6f 00 40 00  	j	0x8000ad84 <.LBB11_42>

8000ad84 <.LBB11_42>:
8000ad84: 5b 20 00 00  	join	zero, zero, 0
8000ad88: 03 23 02 e8  	lw	t1, -384(tp)
8000ad8c: 83 22 42 e8  	lw	t0, -380(tp)
8000ad90: 57 40 03 5e  	<unknown>
8000ad94: d7 c0 02 5e  	<unknown>
8000ad98: ef 60 9f 99  	jal	0x80001730 <__fixunsdfsi>
8000ad9c: 7b 70 02 ec  	vsb12.v	v0, -320(v4)
8000ada0: 83 22 02 e8  	lw	t0, -384(tp)
8000ada4: 23 2c 51 06  	sw	t0, 120(sp)
8000ada8: 83 22 42 e8  	lw	t0, -380(tp)
8000adac: 23 2a 51 06  	sw	t0, 116(sp)
8000adb0: 83 42 02 ec  	lbu	t0, -320(tp)
8000adb4: 57 c0 02 5e  	<unknown>
8000adb8: ef 70 4f b3  	jal	0x800020ec <__floatsidf>
8000adbc: 03 23 81 07  	lw	t1, 120(sp)
8000adc0: 83 22 41 07  	lw	t0, 116(sp)
8000adc4: 57 41 00 02  	vadd.vx	v2, v0, zero
8000adc8: d7 41 10 02  	vadd.vx	v3, v1, zero
8000adcc: 57 40 03 5e  	<unknown>
8000add0: d7 c0 02 5e  	<unknown>
8000add4: ef 60 1f e0  	jal	0x80001bd4 <__nedf2>
8000add8: 93 02 00 00  	li	t0, 0
8000addc: d7 c0 02 5e  	<unknown>

8000ade0 <.Lpcrel_hi28>:
8000ade0: 17 03 00 00  	auipc	t1, 0
8000ade4: 5b 30 03 06  	setrpc	zero, t1, 96
8000ade8: 5b 9c 00 04  	vbne	v0, v1, 0x8000ae40 <.LBB11_45>
8000adec: 6f 00 40 00  	j	0x8000adf0 <.LBB11_43>

8000adf0 <.LBB11_43>:
8000adf0: 83 23 82 e8  	lw	t2, -376(tp)
8000adf4: 03 23 c2 e8  	lw	t1, -372(tp)
8000adf8: 93 02 00 00  	li	t0, 0
8000adfc: 23 2e 51 06  	sw	t0, 124(sp)
8000ae00: 57 c0 03 5e  	<unknown>
8000ae04: d7 40 03 5e  	<unknown>
8000ae08: 57 c1 02 5e  	<unknown>
8000ae0c: d7 c1 02 5e  	<unknown>
8000ae10: ef 60 1f c8  	jal	0x80001a90 <__ltdf2>
8000ae14: 83 22 c1 07  	lw	t0, 124(sp)
8000ae18: d7 c0 02 5e  	<unknown>

8000ae1c <.Lpcrel_hi29>:
8000ae1c: 17 03 00 00  	auipc	t1, 0
8000ae20: 5b 30 43 02  	setrpc	zero, t1, 36
8000ae24: 5b de 00 00  	vbge	v0, v1, 0x8000ae40 <.LBB11_45>
8000ae28: 6f 00 40 00  	j	0x8000ae2c <.LBB11_44>

8000ae2c <.LBB11_44>:
8000ae2c: 83 02 02 ec  	lb	t0, -320(tp)
8000ae30: 13 03 10 00  	li	t1, 1
8000ae34: b3 82 62 40  	sub	t0, t0, t1
8000ae38: 23 00 52 ec  	sb	t0, -320(tp)
8000ae3c: 6f 00 40 00  	j	0x8000ae40 <.LBB11_45>

8000ae40 <.LBB11_45>:
8000ae40: 5b 20 00 00  	join	zero, zero, 0
8000ae44: 83 42 02 ec  	lbu	t0, -320(tp)
8000ae48: 03 43 12 ec  	lbu	t1, -319(tp)
8000ae4c: 63 86 62 00  	beq	t0, t1, 0x8000ae58 <.LBB11_47>
8000ae50: 6f 00 40 00  	j	0x8000ae54 <.LBB11_46>

8000ae54 <.LBB11_46>:
8000ae54: 6f 00 80 2c  	j	0x8000b11c <.LBB11_56>

8000ae58 <.LBB11_47>:
8000ae58: 83 02 12 ec  	lb	t0, -319(tp)
8000ae5c: 93 82 02 03  	addi	t0, t0, 48
8000ae60: 03 23 02 e4  	lw	t1, -448(tp)
8000ae64: 93 03 13 00  	addi	t2, t1, 1
8000ae68: 23 20 72 e4  	sw	t2, -448(tp)
8000ae6c: 23 00 53 00  	sb	t0, 0(t1)
8000ae70: 83 42 12 ec  	lbu	t0, -319(tp)
8000ae74: 57 c0 02 5e  	<unknown>
8000ae78: ef 70 4f a7  	jal	0x800020ec <__floatsidf>
8000ae7c: 57 41 00 02  	vadd.vx	v2, v0, zero
8000ae80: d7 41 10 02  	vadd.vx	v3, v1, zero
8000ae84: 03 23 02 e7  	lw	t1, -400(tp)
8000ae88: 83 22 42 e7  	lw	t0, -396(tp)
8000ae8c: 57 40 03 5e  	<unknown>
8000ae90: d7 c0 02 5e  	<unknown>
8000ae94: ef 70 df dc  	jal	0x80002c60 <__subdf3>
8000ae98: 0b 20 80 00  	regext	zero, zero, 8
8000ae9c: 7b 6a 10 e6  	vsw12.v	v1, -396(v0)
8000aea0: 0b 20 80 00  	regext	zero, zero, 8
8000aea4: 7b 68 00 e6  	vsw12.v	v0, -400(v0)
8000aea8: 83 42 02 ec  	lbu	t0, -320(tp)
8000aeac: 57 c0 02 5e  	<unknown>
8000aeb0: ef 70 cf a3  	jal	0x800020ec <__floatsidf>
8000aeb4: 57 41 00 02  	vadd.vx	v2, v0, zero
8000aeb8: d7 41 10 02  	vadd.vx	v3, v1, zero
8000aebc: 03 23 02 e8  	lw	t1, -384(tp)
8000aec0: 83 22 42 e8  	lw	t0, -380(tp)
8000aec4: 57 40 03 5e  	<unknown>
8000aec8: d7 c0 02 5e  	<unknown>
8000aecc: ef 70 5f d9  	jal	0x80002c60 <__subdf3>
8000aed0: 0b 20 80 00  	regext	zero, zero, 8
8000aed4: 7b 62 10 e8  	vsw12.v	v1, -380(v0)
8000aed8: 0b 20 80 00  	regext	zero, zero, 8
8000aedc: 7b 60 00 e8  	vsw12.v	v0, -384(v0)
8000aee0: 93 02 02 e7  	addi	t0, tp, -400
8000aee4: 57 c0 02 5e  	<unknown>
8000aee8: ef e0 5f fe  	jal	0x80009ecc <hp_mul10>
8000aeec: 93 02 02 e8  	addi	t0, tp, -384
8000aef0: 57 c0 02 5e  	<unknown>
8000aef4: ef e0 9f fd  	jal	0x80009ecc <hp_mul10>
8000aef8: 03 23 02 e9  	lw	t1, -368(tp)
8000aefc: 83 22 42 e9  	lw	t0, -364(tp)
8000af00: 57 40 03 5e  	<unknown>
8000af04: d7 c0 02 5e  	<unknown>
8000af08: ef 60 9f 82  	jal	0x80001730 <__fixunsdfsi>
8000af0c: fb 70 02 ec  	vsb12.v	v0, -319(v4)
8000af10: 83 22 02 e9  	lw	t0, -368(tp)
8000af14: 23 22 51 08  	sw	t0, 132(sp)
8000af18: 83 22 42 e9  	lw	t0, -364(tp)
8000af1c: 23 20 51 08  	sw	t0, 128(sp)
8000af20: 83 42 12 ec  	lbu	t0, -319(tp)
8000af24: 57 c0 02 5e  	<unknown>
8000af28: ef 70 4f 9c  	jal	0x800020ec <__floatsidf>
8000af2c: 03 23 41 08  	lw	t1, 132(sp)
8000af30: 83 22 01 08  	lw	t0, 128(sp)
8000af34: 57 41 00 02  	vadd.vx	v2, v0, zero
8000af38: d7 41 10 02  	vadd.vx	v3, v1, zero
8000af3c: 57 40 03 5e  	<unknown>
8000af40: d7 c0 02 5e  	<unknown>
8000af44: ef 60 1f c9  	jal	0x80001bd4 <__nedf2>
8000af48: 93 02 00 00  	li	t0, 0
8000af4c: d7 c0 02 5e  	<unknown>

8000af50 <.Lpcrel_hi30>:
8000af50: 17 03 00 00  	auipc	t1, 0
8000af54: 5b 30 03 06  	setrpc	zero, t1, 96
8000af58: 5b 9c 00 04  	vbne	v0, v1, 0x8000afb0 <.LBB11_50>
8000af5c: 6f 00 40 00  	j	0x8000af60 <.LBB11_48>

8000af60 <.LBB11_48>:
8000af60: 83 23 82 e9  	lw	t2, -360(tp)
8000af64: 03 23 c2 e9  	lw	t1, -356(tp)
8000af68: 93 02 00 00  	li	t0, 0
8000af6c: 23 24 51 08  	sw	t0, 136(sp)
8000af70: 57 c0 03 5e  	<unknown>
8000af74: d7 40 03 5e  	<unknown>
8000af78: 57 c1 02 5e  	<unknown>
8000af7c: d7 c1 02 5e  	<unknown>
8000af80: ef 60 1f b1  	jal	0x80001a90 <__ltdf2>
8000af84: 83 22 81 08  	lw	t0, 136(sp)
8000af88: d7 c0 02 5e  	<unknown>

8000af8c <.Lpcrel_hi31>:
8000af8c: 17 03 00 00  	auipc	t1, 0
8000af90: 5b 30 43 02  	setrpc	zero, t1, 36
8000af94: 5b de 00 00  	vbge	v0, v1, 0x8000afb0 <.LBB11_50>
8000af98: 6f 00 40 00  	j	0x8000af9c <.LBB11_49>

8000af9c <.LBB11_49>:
8000af9c: 83 02 12 ec  	lb	t0, -319(tp)
8000afa0: 13 03 10 00  	li	t1, 1
8000afa4: b3 82 62 40  	sub	t0, t0, t1
8000afa8: a3 00 52 ec  	sb	t0, -319(tp)
8000afac: 6f 00 40 00  	j	0x8000afb0 <.LBB11_50>

8000afb0 <.LBB11_50>:
8000afb0: 5b 20 00 00  	join	zero, zero, 0
8000afb4: 03 23 02 ea  	lw	t1, -352(tp)
8000afb8: 83 22 42 ea  	lw	t0, -348(tp)
8000afbc: 57 40 03 5e  	<unknown>
8000afc0: d7 c0 02 5e  	<unknown>
8000afc4: ef 60 cf f6  	jal	0x80001730 <__fixunsdfsi>
8000afc8: 7b 70 02 ec  	vsb12.v	v0, -320(v4)
8000afcc: 83 22 02 ea  	lw	t0, -352(tp)
8000afd0: 23 28 51 08  	sw	t0, 144(sp)
8000afd4: 83 22 42 ea  	lw	t0, -348(tp)
8000afd8: 23 26 51 08  	sw	t0, 140(sp)
8000afdc: 83 42 02 ec  	lbu	t0, -320(tp)
8000afe0: 57 c0 02 5e  	<unknown>
8000afe4: ef 70 8f 90  	jal	0x800020ec <__floatsidf>
8000afe8: 03 23 01 09  	lw	t1, 144(sp)
8000afec: 83 22 c1 08  	lw	t0, 140(sp)
8000aff0: 57 41 00 02  	vadd.vx	v2, v0, zero
8000aff4: d7 41 10 02  	vadd.vx	v3, v1, zero
8000aff8: 57 40 03 5e  	<unknown>
8000affc: d7 c0 02 5e  	<unknown>
8000b000: ef 60 5f bd  	jal	0x80001bd4 <__nedf2>
8000b004: 93 02 00 00  	li	t0, 0
8000b008: d7 c0 02 5e  	<unknown>

8000b00c <.Lpcrel_hi32>:
8000b00c: 17 03 00 00  	auipc	t1, 0
8000b010: 5b 30 03 06  	setrpc	zero, t1, 96
8000b014: 5b 9c 00 04  	vbne	v0, v1, 0x8000b06c <.LBB11_53>
8000b018: 6f 00 40 00  	j	0x8000b01c <.LBB11_51>

8000b01c <.LBB11_51>:
8000b01c: 83 23 82 ea  	lw	t2, -344(tp)
8000b020: 03 23 c2 ea  	lw	t1, -340(tp)
8000b024: 93 02 00 00  	li	t0, 0
8000b028: 23 2a 51 08  	sw	t0, 148(sp)
8000b02c: 57 c0 03 5e  	<unknown>
8000b030: d7 40 03 5e  	<unknown>
8000b034: 57 c1 02 5e  	<unknown>
8000b038: d7 c1 02 5e  	<unknown>
8000b03c: ef 60 5f a5  	jal	0x80001a90 <__ltdf2>
8000b040: 83 22 41 09  	lw	t0, 148(sp)
8000b044: d7 c0 02 5e  	<unknown>

8000b048 <.Lpcrel_hi33>:
8000b048: 17 03 00 00  	auipc	t1, 0
8000b04c: 5b 30 43 02  	setrpc	zero, t1, 36
8000b050: 5b de 00 00  	vbge	v0, v1, 0x8000b06c <.LBB11_53>
8000b054: 6f 00 40 00  	j	0x8000b058 <.LBB11_52>

8000b058 <.LBB11_52>:
8000b058: 83 02 02 ec  	lb	t0, -320(tp)
8000b05c: 13 03 10 00  	li	t1, 1
8000b060: b3 82 62 40  	sub	t0, t0, t1
8000b064: 23 00 52 ec  	sb	t0, -320(tp)
8000b068: 6f 00 40 00  	j	0x8000b06c <.LBB11_53>

8000b06c <.LBB11_53>:
8000b06c: 5b 20 00 00  	join	zero, zero, 0
8000b070: 83 42 02 ec  	lbu	t0, -320(tp)
8000b074: 03 43 12 ec  	lbu	t1, -319(tp)
8000b078: 63 8c 62 00  	beq	t0, t1, 0x8000b090 <.LBB11_55>
8000b07c: 6f 00 40 00  	j	0x8000b080 <.LBB11_54>

8000b080 <.LBB11_54>:
8000b080: 03 23 42 e4  	lw	t1, -444(tp)
8000b084: 93 02 00 00  	li	t0, 0
8000b088: 23 20 53 00  	sw	t0, 0(t1)
8000b08c: 6f 00 40 00  	j	0x8000b090 <.LBB11_55>

8000b090 <.LBB11_55>:
8000b090: 83 42 12 ec  	lbu	t0, -319(tp)
8000b094: 57 c0 02 5e  	<unknown>
8000b098: ef 70 4f 85  	jal	0x800020ec <__floatsidf>
8000b09c: 57 41 00 02  	vadd.vx	v2, v0, zero
8000b0a0: d7 41 10 02  	vadd.vx	v3, v1, zero
8000b0a4: 03 23 02 e9  	lw	t1, -368(tp)
8000b0a8: 83 22 42 e9  	lw	t0, -364(tp)
8000b0ac: 57 40 03 5e  	<unknown>
8000b0b0: d7 c0 02 5e  	<unknown>
8000b0b4: ef 70 df ba  	jal	0x80002c60 <__subdf3>
8000b0b8: 0b 20 80 00  	regext	zero, zero, 8
8000b0bc: 7b 6a 10 e8  	vsw12.v	v1, -364(v0)
8000b0c0: 0b 20 80 00  	regext	zero, zero, 8
8000b0c4: 7b 68 00 e8  	vsw12.v	v0, -368(v0)
8000b0c8: 83 42 02 ec  	lbu	t0, -320(tp)
8000b0cc: 57 c0 02 5e  	<unknown>
8000b0d0: ef 70 cf 81  	jal	0x800020ec <__floatsidf>
8000b0d4: 57 41 00 02  	vadd.vx	v2, v0, zero
8000b0d8: d7 41 10 02  	vadd.vx	v3, v1, zero
8000b0dc: 03 23 02 ea  	lw	t1, -352(tp)
8000b0e0: 83 22 42 ea  	lw	t0, -348(tp)
8000b0e4: 57 40 03 5e  	<unknown>
8000b0e8: d7 c0 02 5e  	<unknown>
8000b0ec: ef 70 5f b7  	jal	0x80002c60 <__subdf3>
8000b0f0: 0b 20 80 00  	regext	zero, zero, 8
8000b0f4: 7b 62 10 ea  	vsw12.v	v1, -348(v0)
8000b0f8: 0b 20 80 00  	regext	zero, zero, 8
8000b0fc: 7b 60 00 ea  	vsw12.v	v0, -352(v0)
8000b100: 93 02 02 e9  	addi	t0, tp, -368
8000b104: 57 c0 02 5e  	<unknown>
8000b108: ef e0 5f dc  	jal	0x80009ecc <hp_mul10>
8000b10c: 93 02 02 ea  	addi	t0, tp, -352
8000b110: 57 c0 02 5e  	<unknown>
8000b114: ef e0 9f db  	jal	0x80009ecc <hp_mul10>
8000b118: 6f f0 df b2  	j	0x8000ac44 <.LBB11_36>

8000b11c <.LBB11_56>:
8000b11c: 03 24 02 e7  	lw	s0, -400(tp)
8000b120: 83 23 42 e7  	lw	t2, -396(tp)
8000b124: 03 23 02 e8  	lw	t1, -384(tp)
8000b128: 83 22 42 e8  	lw	t0, -380(tp)
8000b12c: 57 40 04 5e  	<unknown>
8000b130: d7 c0 03 5e  	<unknown>
8000b134: 57 41 03 5e  	<unknown>
8000b138: d7 c1 02 5e  	<unknown>
8000b13c: ef 70 cf 8d  	jal	0x80002218 <__adddf3>
8000b140: 13 03 00 00  	li	t1, 0
8000b144: 23 2c 61 08  	sw	t1, 152(sp)
8000b148: b7 02 00 40  	lui	t0, 262144
8000b14c: 57 41 03 5e  	<unknown>
8000b150: d7 c1 02 5e  	<unknown>
8000b154: ef 50 9f 94  	jal	0x80000a9c <__divdf3>
8000b158: 03 23 81 09  	lw	t1, 152(sp)
8000b15c: b7 02 e0 3f  	lui	t0, 261632
8000b160: 57 41 03 5e  	<unknown>
8000b164: d7 c1 02 5e  	<unknown>
8000b168: ef 70 0f 8b  	jal	0x80002218 <__adddf3>
8000b16c: 0b 20 80 00  	regext	zero, zero, 8
8000b170: 7b 66 10 ec  	vsw12.v	v1, -308(v0)
8000b174: 0b 20 80 00  	regext	zero, zero, 8
8000b178: 7b 64 00 ec  	vsw12.v	v0, -312(v0)
8000b17c: 03 23 82 ec  	lw	t1, -312(tp)
8000b180: 83 22 c2 ec  	lw	t0, -308(tp)
8000b184: 57 40 03 5e  	<unknown>
8000b188: d7 c0 02 5e  	<unknown>
8000b18c: ef 60 4f da  	jal	0x80001730 <__fixunsdfsi>
8000b190: 83 22 81 09  	lw	t0, 152(sp)
8000b194: 0b 00 00 03  	vadd12.vi	v0, v0, 48
8000b198: 03 23 02 e4  	lw	t1, -448(tp)
8000b19c: 93 03 13 00  	addi	t2, t1, 1
8000b1a0: 23 20 72 e4  	sw	t2, -448(tp)
8000b1a4: d7 40 03 5e  	<unknown>
8000b1a8: 7b f0 00 00  	vsb12.v	v0, 0(v1)
8000b1ac: 03 23 02 e4  	lw	t1, -448(tp)
8000b1b0: 23 00 53 00  	sb	t0, 0(t1)
8000b1b4: 83 22 c2 e5  	lw	t0, -420(tp)
8000b1b8: 23 2a 52 e2  	sw	t0, -460(tp)
8000b1bc: 6f 00 40 00  	j	0x8000b1c0 <.LBB11_57>

8000b1c0 <.LBB11_57>:
8000b1c0: 5b 20 00 00  	join	zero, zero, 0
8000b1c4: 83 22 42 e3  	lw	t0, -460(tp)
8000b1c8: 57 c0 02 5e  	<unknown>
8000b1cc: 83 20 c1 f4  	lw	ra, -180(sp)
8000b1d0: 0b c0 00 04  	barrier	x0, x0, 1
8000b1d4: 13 01 c1 f4  	addi	sp, sp, -180
8000b1d8: 13 02 42 ee  	addi	tp, tp, -284
8000b1dc: 67 80 00 00  	ret

8000b1e0 <hp_prod>:
8000b1e0: 13 01 41 03  	addi	sp, sp, 52
8000b1e4: 13 02 c2 0a  	addi	tp, tp, 172
8000b1e8: 0b 20 10 00  	regext	zero, zero, 1
8000b1ec: 57 40 02 5e  	<unknown>
8000b1f0: 23 26 11 fc  	sw	ra, -52(sp)
8000b1f4: 0b 20 80 00  	regext	zero, zero, 8
8000b1f8: 2b 28 00 f6  	vsw.v	v0, -144(v0)
8000b1fc: 0b 20 80 00  	regext	zero, zero, 8
8000b200: 7b 66 20 f2  	vsw12.v	v2, -212(v0)
8000b204: 0b 20 80 00  	regext	zero, zero, 8
8000b208: 7b 64 10 f2  	vsw12.v	v1, -216(v0)
8000b20c: 0b 20 80 00  	regext	zero, zero, 8
8000b210: 7b 6a 40 f2  	vsw12.v	v4, -204(v0)
8000b214: 0b 20 80 00  	regext	zero, zero, 8
8000b218: 7b 68 30 f2  	vsw12.v	v3, -208(v0)
8000b21c: 0b 20 80 00  	regext	zero, zero, 8
8000b220: 7b 6e 60 f2  	vsw12.v	v6, -196(v0)
8000b224: 0b 20 80 00  	regext	zero, zero, 8
8000b228: 7b 6c 50 f2  	vsw12.v	v5, -200(v0)
8000b22c: 83 23 c2 f2  	lw	t2, -212(tp)
8000b230: 03 24 82 f2  	lw	s0, -216(tp)
8000b234: 13 03 82 f4  	addi	t1, tp, -184
8000b238: 93 02 02 f5  	addi	t0, tp, -176
8000b23c: 57 40 04 5e  	<unknown>
8000b240: d7 c0 03 5e  	<unknown>
8000b244: 57 41 03 5e  	<unknown>
8000b248: d7 c1 02 5e  	<unknown>
8000b24c: ef 20 90 1a  	jal	0x8000dbf4 <split>
8000b250: 83 23 c2 f3  	lw	t2, -196(tp)
8000b254: 03 24 82 f3  	lw	s0, -200(tp)
8000b258: 13 03 02 f6  	addi	t1, tp, -160
8000b25c: 93 02 82 f6  	addi	t0, tp, -152
8000b260: 57 40 04 5e  	<unknown>
8000b264: d7 c0 03 5e  	<unknown>
8000b268: 57 41 03 5e  	<unknown>
8000b26c: d7 c1 02 5e  	<unknown>
8000b270: ef 20 50 18  	jal	0x8000dbf4 <split>
8000b274: 03 24 82 f2  	lw	s0, -216(tp)
8000b278: 83 23 c2 f2  	lw	t2, -212(tp)
8000b27c: 03 23 82 f3  	lw	t1, -200(tp)
8000b280: 83 22 c2 f3  	lw	t0, -196(tp)
8000b284: 57 40 04 5e  	<unknown>
8000b288: d7 c0 03 5e  	<unknown>
8000b28c: 57 41 03 5e  	<unknown>
8000b290: d7 c1 02 5e  	<unknown>
8000b294: ef 40 df e6  	jal	0x80000100 <__muldf3>
8000b298: 0b 20 80 00  	regext	zero, zero, 8
8000b29c: 7b 62 10 f4  	vsw12.v	v1, -188(v0)
8000b2a0: 0b 20 80 00  	regext	zero, zero, 8
8000b2a4: 7b 60 00 f4  	vsw12.v	v0, -192(v0)
8000b2a8: 03 24 82 f4  	lw	s0, -184(tp)
8000b2ac: 23 22 81 04  	sw	s0, 68(sp)
8000b2b0: 83 23 c2 f4  	lw	t2, -180(tp)
8000b2b4: 23 20 71 04  	sw	t2, 64(sp)
8000b2b8: 03 23 02 f6  	lw	t1, -160(tp)
8000b2bc: 23 2e 61 04  	sw	t1, 92(sp)
8000b2c0: 83 22 42 f6  	lw	t0, -156(tp)
8000b2c4: 23 2c 51 04  	sw	t0, 88(sp)
8000b2c8: 83 24 02 f4  	lw	s1, -192(tp)
8000b2cc: 23 22 91 06  	sw	s1, 100(sp)
8000b2d0: 83 24 42 f4  	lw	s1, -188(tp)
8000b2d4: 23 20 91 06  	sw	s1, 96(sp)
8000b2d8: 57 40 04 5e  	<unknown>
8000b2dc: d7 c0 03 5e  	<unknown>
8000b2e0: 57 41 03 5e  	<unknown>
8000b2e4: d7 c1 02 5e  	<unknown>
8000b2e8: ef 40 9f e1  	jal	0x80000100 <__muldf3>
8000b2ec: 03 23 41 06  	lw	t1, 100(sp)
8000b2f0: 83 22 01 06  	lw	t0, 96(sp)
8000b2f4: 57 41 03 5e  	<unknown>
8000b2f8: d7 c1 02 5e  	<unknown>
8000b2fc: ef 70 5f 96  	jal	0x80002c60 <__subdf3>
8000b300: 03 23 c1 05  	lw	t1, 92(sp)
8000b304: 83 22 81 05  	lw	t0, 88(sp)
8000b308: 0b 20 80 00  	regext	zero, zero, 8
8000b30c: 2b 24 00 fc  	vsw.v	v0, -56(v0)
8000b310: 0b 20 80 00  	regext	zero, zero, 8
8000b314: 2b 22 10 fc  	vsw.v	v1, -60(v0)
8000b318: 03 24 02 f5  	lw	s0, -176(tp)
8000b31c: 23 26 81 02  	sw	s0, 44(sp)
8000b320: 83 23 42 f5  	lw	t2, -172(tp)
8000b324: 23 24 71 02  	sw	t2, 40(sp)
8000b328: 57 40 04 5e  	<unknown>
8000b32c: d7 c0 03 5e  	<unknown>
8000b330: 57 41 03 5e  	<unknown>
8000b334: d7 c1 02 5e  	<unknown>
8000b338: ef 40 9f dc  	jal	0x80000100 <__muldf3>
8000b33c: 0b 20 80 00  	regext	zero, zero, 8
8000b340: 2b 21 80 7c  	vlw.v	v2, -56(v0)
8000b344: 0b 20 80 00  	regext	zero, zero, 8
8000b348: ab 21 40 7c  	vlw.v	v3, -60(v0)
8000b34c: ef 60 df ec  	jal	0x80002218 <__adddf3>
8000b350: 03 24 41 04  	lw	s0, 68(sp)
8000b354: 83 23 01 04  	lw	t2, 64(sp)
8000b358: 0b 20 80 00  	regext	zero, zero, 8
8000b35c: 2b 28 00 fa  	vsw.v	v0, -80(v0)
8000b360: 0b 20 80 00  	regext	zero, zero, 8
8000b364: 2b 26 10 fa  	vsw.v	v1, -84(v0)
8000b368: 03 23 82 f6  	lw	t1, -152(tp)
8000b36c: 23 22 61 02  	sw	t1, 36(sp)
8000b370: 83 22 c2 f6  	lw	t0, -148(tp)
8000b374: 23 20 51 02  	sw	t0, 32(sp)
8000b378: 57 40 04 5e  	<unknown>
8000b37c: d7 c0 03 5e  	<unknown>
8000b380: 57 41 03 5e  	<unknown>
8000b384: d7 c1 02 5e  	<unknown>
8000b388: ef 40 9f d7  	jal	0x80000100 <__muldf3>
8000b38c: 0b 20 80 00  	regext	zero, zero, 8
8000b390: 2b 21 00 7b  	vlw.v	v2, -80(v0)
8000b394: 0b 20 80 00  	regext	zero, zero, 8
8000b398: ab 21 c0 7a  	vlw.v	v3, -84(v0)
8000b39c: ef 60 df e7  	jal	0x80002218 <__adddf3>
8000b3a0: 03 24 c1 02  	lw	s0, 44(sp)
8000b3a4: 83 23 81 02  	lw	t2, 40(sp)
8000b3a8: 03 23 41 02  	lw	t1, 36(sp)
8000b3ac: 83 22 01 02  	lw	t0, 32(sp)
8000b3b0: 0b 20 80 00  	regext	zero, zero, 8
8000b3b4: 2b 24 00 f8  	vsw.v	v0, -120(v0)
8000b3b8: 0b 20 80 00  	regext	zero, zero, 8
8000b3bc: 2b 22 10 f8  	vsw.v	v1, -124(v0)
8000b3c0: 57 40 04 5e  	<unknown>
8000b3c4: d7 c0 03 5e  	<unknown>
8000b3c8: 57 41 03 5e  	<unknown>
8000b3cc: d7 c1 02 5e  	<unknown>
8000b3d0: ef 40 1f d3  	jal	0x80000100 <__muldf3>
8000b3d4: 0b 20 80 00  	regext	zero, zero, 8
8000b3d8: 2b 21 80 78  	vlw.v	v2, -120(v0)
8000b3dc: 0b 20 80 00  	regext	zero, zero, 8
8000b3e0: ab 21 40 78  	vlw.v	v3, -124(v0)
8000b3e4: ef 60 5f e3  	jal	0x80002218 <__adddf3>
8000b3e8: 57 41 10 02  	vadd.vx	v2, v1, zero
8000b3ec: 0b 20 80 00  	regext	zero, zero, 8
8000b3f0: ab 20 00 77  	vlw.v	v1, -144(v0)
8000b3f4: 0b 20 80 00  	regext	zero, zero, 8
8000b3f8: 7b 6e 20 f4  	vsw12.v	v2, -164(v0)
8000b3fc: 0b 20 80 00  	regext	zero, zero, 8
8000b400: 7b 6c 00 f4  	vsw12.v	v0, -168(v0)
8000b404: 83 22 02 f4  	lw	t0, -192(tp)
8000b408: 03 23 42 f4  	lw	t1, -188(tp)
8000b40c: 57 40 03 5e  	<unknown>
8000b410: 7b e2 00 00  	vsw12.v	v0, 4(v1)
8000b414: 57 c0 02 5e  	<unknown>
8000b418: 7b e0 00 00  	vsw12.v	v0, 0(v1)
8000b41c: 03 24 02 f3  	lw	s0, -208(tp)
8000b420: 83 23 42 f3  	lw	t2, -204(tp)
8000b424: 03 23 82 f3  	lw	t1, -200(tp)
8000b428: 83 22 c2 f3  	lw	t0, -196(tp)
8000b42c: 83 24 82 f5  	lw	s1, -168(tp)
8000b430: 23 26 91 00  	sw	s1, 12(sp)
8000b434: 83 24 c2 f5  	lw	s1, -164(tp)
8000b438: 23 24 91 00  	sw	s1, 8(sp)
8000b43c: 57 40 04 5e  	<unknown>
8000b440: d7 c0 03 5e  	<unknown>
8000b444: 57 41 03 5e  	<unknown>
8000b448: d7 c1 02 5e  	<unknown>
8000b44c: ef 40 5f cb  	jal	0x80000100 <__muldf3>
8000b450: 03 23 c1 00  	lw	t1, 12(sp)
8000b454: 83 22 81 00  	lw	t0, 8(sp)
8000b458: 57 41 03 5e  	<unknown>
8000b45c: d7 c1 02 5e  	<unknown>
8000b460: ef 60 9f db  	jal	0x80002218 <__adddf3>
8000b464: 57 41 10 02  	vadd.vx	v2, v1, zero
8000b468: 0b 20 80 00  	regext	zero, zero, 8
8000b46c: ab 20 00 77  	vlw.v	v1, -144(v0)
8000b470: 7b e6 20 00  	vsw12.v	v2, 12(v1)
8000b474: 7b e4 00 00  	vsw12.v	v0, 8(v1)
8000b478: 83 20 c1 fc  	lw	ra, -52(sp)
8000b47c: 0b c0 00 04  	barrier	x0, x0, 1
8000b480: 13 01 c1 fc  	addi	sp, sp, -52
8000b484: 13 02 42 f5  	addi	tp, tp, -172
8000b488: 67 80 00 00  	ret

8000b48c <errol2_dtoa>:
8000b48c: 13 01 01 03  	addi	sp, sp, 48
8000b490: 13 02 c2 0d  	addi	tp, tp, 220
8000b494: 0b 20 10 00  	regext	zero, zero, 1
8000b498: 57 40 02 5e  	<unknown>
8000b49c: 23 28 11 fc  	sw	ra, -48(sp)
8000b4a0: 0b 20 80 00  	regext	zero, zero, 8
8000b4a4: 7b 60 10 f0  	vsw12.v	v1, -256(v0)
8000b4a8: 0b 20 80 00  	regext	zero, zero, 8
8000b4ac: 7b 6e 00 ee  	vsw12.v	v0, -260(v0)
8000b4b0: 0b 20 80 00  	regext	zero, zero, 8
8000b4b4: 7b 62 20 f0  	vsw12.v	v2, -252(v0)
8000b4b8: 0b 20 80 00  	regext	zero, zero, 8
8000b4bc: 7b 64 30 f0  	vsw12.v	v3, -248(v0)
8000b4c0: 03 24 c2 ef  	lw	s0, -260(tp)
8000b4c4: 83 23 02 f0  	lw	t2, -256(tp)
8000b4c8: 13 03 00 00  	li	t1, 0
8000b4cc: 23 2c 61 08  	sw	t1, 152(sp)
8000b4d0: b7 02 40 43  	lui	t0, 275456
8000b4d4: 57 40 04 5e  	<unknown>
8000b4d8: d7 c0 03 5e  	<unknown>
8000b4dc: 57 41 03 5e  	<unknown>
8000b4e0: d7 c1 02 5e  	<unknown>
8000b4e4: ef 60 8f c6  	jal	0x8000194c <__ledf2>
8000b4e8: 83 22 81 09  	lw	t0, 152(sp)
8000b4ec: d7 40 00 02  	vadd.vx	v1, v0, zero
8000b4f0: 57 c0 02 5e  	<unknown>

8000b4f4 <.Lpcrel_hi34>:
8000b4f4: 17 03 00 00  	auipc	t1, 0
8000b4f8: 5b 30 83 4a  	setrpc	zero, t1, 1192
8000b4fc: 5b d4 00 04  	vbge	v0, v1, 0x8000b544 <.LBB13_2>
8000b500: 6f 00 40 00  	j	0x8000b504 <.LBB13_1>

8000b504 <.LBB13_1>:
8000b504: 03 24 c2 ef  	lw	s0, -260(tp)
8000b508: 83 23 02 f0  	lw	t2, -256(tp)
8000b50c: b7 02 f0 47  	lui	t0, 294656
8000b510: 93 82 f2 ff  	addi	t0, t0, -1
8000b514: 13 03 40 ff  	li	t1, -12
8000b518: 57 40 04 5e  	<unknown>
8000b51c: d7 c0 03 5e  	<unknown>
8000b520: 57 41 03 5e  	<unknown>
8000b524: d7 c1 02 5e  	<unknown>
8000b528: ef 60 5f 93  	jal	0x80001e5c <__gedf2>
8000b52c: 93 02 00 00  	li	t0, 0
8000b530: d7 c0 02 5e  	<unknown>

8000b534 <.Lpcrel_hi35>:
8000b534: 17 03 00 00  	auipc	t1, 0
8000b538: 5b 30 83 46  	setrpc	zero, t1, 1128
8000b53c: 5b cc 00 02  	vblt	v0, v1, 0x8000b574 <.LBB13_3>
8000b540: 6f 00 40 00  	j	0x8000b544 <.LBB13_2>

8000b544 <.LBB13_2>:
8000b544: 03 23 42 f0  	lw	t1, -252(tp)
8000b548: 83 22 82 f0  	lw	t0, -248(tp)
8000b54c: 83 23 02 f0  	lw	t2, -256(tp)
8000b550: 03 24 c2 ef  	lw	s0, -260(tp)
8000b554: 57 40 04 5e  	<unknown>
8000b558: d7 c0 03 5e  	<unknown>
8000b55c: 57 41 03 5e  	<unknown>
8000b560: d7 c1 02 5e  	<unknown>
8000b564: ef e0 9f cf  	jal	0x8000a25c <errol1_dtoa>
8000b568: 0b 20 80 00  	regext	zero, zero, 8
8000b56c: 7b 6c 00 ee  	vsw12.v	v0, -264(v0)
8000b570: 6f 00 c0 42  	j	0x8000b99c <.LBB13_24>

8000b574 <.LBB13_3>:
8000b574: 03 23 c2 ef  	lw	t1, -260(tp)
8000b578: 83 22 02 f0  	lw	t0, -256(tp)
8000b57c: 57 40 03 5e  	<unknown>
8000b580: d7 c0 02 5e  	<unknown>
8000b584: ef 60 8f ab  	jal	0x8000183c <__fixdfsi>
8000b588: 0b 20 80 00  	regext	zero, zero, 8
8000b58c: 7b 66 00 fa  	vsw12.v	v0, -84(v0)
8000b590: 83 22 c2 fa  	lw	t0, -84(tp)
8000b594: 23 28 51 0a  	sw	t0, 176(sp)
8000b598: 83 22 02 f0  	lw	t0, -256(tp)
8000b59c: 03 23 c2 ef  	lw	t1, -260(tp)
8000b5a0: 57 40 03 5e  	<unknown>
8000b5a4: d7 c0 02 5e  	<unknown>
8000b5a8: ef e0 9f b0  	jal	0x8000a0b0 <fpnext>
8000b5ac: 03 23 c2 ef  	lw	t1, -260(tp)
8000b5b0: 83 22 02 f0  	lw	t0, -256(tp)
8000b5b4: 57 41 03 5e  	<unknown>
8000b5b8: d7 c1 02 5e  	<unknown>
8000b5bc: ef 70 4f ea  	jal	0x80002c60 <__subdf3>
8000b5c0: 13 03 00 00  	li	t1, 0
8000b5c4: 23 22 61 0a  	sw	t1, 164(sp)
8000b5c8: b7 02 00 40  	lui	t0, 262144
8000b5cc: 23 20 51 0a  	sw	t0, 160(sp)
8000b5d0: 57 41 03 5e  	<unknown>
8000b5d4: d7 c1 02 5e  	<unknown>
8000b5d8: ef 50 4f cc  	jal	0x80000a9c <__divdf3>
8000b5dc: ef 00 00 3e  	jal	0x8000b9bc <fpeint>
8000b5e0: 83 22 01 0b  	lw	t0, 176(sp)
8000b5e4: d7 40 00 02  	vadd.vx	v1, v0, zero
8000b5e8: 57 c0 02 5e  	<unknown>
8000b5ec: 57 80 00 0a  	vsub.vv	v0, v0, v1
8000b5f0: 0b 20 80 00  	regext	zero, zero, 8
8000b5f4: 7b 64 00 fa  	vsw12.v	v0, -88(v0)
8000b5f8: 83 22 c2 fa  	lw	t0, -84(tp)
8000b5fc: 23 2e 51 08  	sw	t0, 156(sp)
8000b600: 83 22 02 f0  	lw	t0, -256(tp)
8000b604: 23 24 51 0a  	sw	t0, 168(sp)
8000b608: 03 23 c2 ef  	lw	t1, -260(tp)
8000b60c: 23 26 61 0a  	sw	t1, 172(sp)
8000b610: 57 40 03 5e  	<unknown>
8000b614: d7 c0 02 5e  	<unknown>
8000b618: ef e0 df af  	jal	0x8000a114 <fpprev>
8000b61c: 03 23 c1 0a  	lw	t1, 172(sp)
8000b620: 83 22 81 0a  	lw	t0, 168(sp)
8000b624: 57 41 00 02  	vadd.vx	v2, v0, zero
8000b628: d7 41 10 02  	vadd.vx	v3, v1, zero
8000b62c: 57 40 03 5e  	<unknown>
8000b630: d7 c0 02 5e  	<unknown>
8000b634: ef 70 cf e2  	jal	0x80002c60 <__subdf3>
8000b638: 03 23 41 0a  	lw	t1, 164(sp)
8000b63c: 83 22 01 0a  	lw	t0, 160(sp)
8000b640: 57 41 03 5e  	<unknown>
8000b644: d7 c1 02 5e  	<unknown>
8000b648: ef 50 4f c5  	jal	0x80000a9c <__divdf3>
8000b64c: ef 00 00 37  	jal	0x8000b9bc <fpeint>
8000b650: 83 22 c1 09  	lw	t0, 156(sp)
8000b654: 57 c0 02 02  	vadd.vx	v0, v0, t0
8000b658: 0b 20 80 00  	regext	zero, zero, 8
8000b65c: 7b 68 00 fa  	vsw12.v	v0, -80(v0)
8000b660: 83 22 c2 ef  	lw	t0, -260(tp)
8000b664: 03 23 02 f0  	lw	t1, -256(tp)
8000b668: 23 2c 62 f0  	sw	t1, -232(tp)
8000b66c: 23 2a 52 f0  	sw	t0, -236(tp)
8000b670: 83 42 42 f1  	lbu	t0, -236(tp)
8000b674: 93 f2 12 00  	andi	t0, t0, 1
8000b678: 63 8c 02 00  	beqz	t0, 0x8000b690 <.LBB13_5>
8000b67c: 6f 00 40 00  	j	0x8000b680 <.LBB13_4>

8000b680 <.LBB13_4>:
8000b680: 83 22 02 fb  	lw	t0, -80(tp)
8000b684: 93 82 f2 ff  	addi	t0, t0, -1
8000b688: 23 28 52 fa  	sw	t0, -80(tp)
8000b68c: 6f 00 40 01  	j	0x8000b6a0 <.LBB13_6>

8000b690 <.LBB13_5>:
8000b690: 83 22 82 fa  	lw	t0, -88(tp)
8000b694: 93 82 f2 ff  	addi	t0, t0, -1
8000b698: 23 24 52 fa  	sw	t0, -88(tp)
8000b69c: 6f 00 40 00  	j	0x8000b6a0 <.LBB13_6>

8000b6a0 <.LBB13_6>:
8000b6a0: 93 02 70 02  	li	t0, 39
8000b6a4: 23 06 52 f0  	sb	t0, -244(tp)
8000b6a8: 93 02 00 00  	li	t0, 0
8000b6ac: 23 0c 52 f8  	sb	t0, -104(tp)
8000b6b0: a3 07 52 f6  	sb	t0, -145(tp)
8000b6b4: a3 02 52 f4  	sb	t0, -187(tp)
8000b6b8: 93 02 50 03  	li	t0, 53
8000b6bc: 23 07 52 f6  	sb	t0, -146(tp)
8000b6c0: 23 02 52 f4  	sb	t0, -188(tp)
8000b6c4: 6f 00 40 00  	j	0x8000b6c8 <.LBB13_7>

8000b6c8 <.LBB13_7>:
8000b6c8: 83 22 02 fb  	lw	t0, -80(tp)
8000b6cc: 63 8c 02 1c  	beqz	t0, 0x8000b8a4 <.LBB13_18>
8000b6d0: 6f 00 40 00  	j	0x8000b6d4 <.LBB13_8>

8000b6d4 <.LBB13_8>:
8000b6d4: 83 23 82 fa  	lw	t2, -88(tp)
8000b6d8: 03 23 42 fb  	lw	t1, -76(tp)
8000b6dc: 93 02 82 fb  	addi	t0, tp, -72
8000b6e0: 23 2a 51 0a  	sw	t0, 180(sp)
8000b6e4: 57 c0 03 5e  	<unknown>
8000b6e8: d7 40 03 5e  	<unknown>
8000b6ec: 57 c1 02 5e  	<unknown>
8000b6f0: ef d0 4f cd  	jal	0x80008bc4 <__udivmodti4>
8000b6f4: 83 22 41 0b  	lw	t0, 180(sp)
8000b6f8: 0b 20 80 00  	regext	zero, zero, 8
8000b6fc: 7b 64 00 fa  	vsw12.v	v0, -88(v0)
8000b700: 03 23 82 fb  	lw	t1, -72(tp)
8000b704: 23 2e 62 f8  	sw	t1, -100(tp)
8000b708: 83 23 c2 fa  	lw	t2, -84(tp)
8000b70c: 03 23 42 fb  	lw	t1, -76(tp)
8000b710: 57 c0 03 5e  	<unknown>
8000b714: d7 40 03 5e  	<unknown>
8000b718: 57 c1 02 5e  	<unknown>
8000b71c: ef d0 8f ca  	jal	0x80008bc4 <__udivmodti4>
8000b720: 83 22 41 0b  	lw	t0, 180(sp)
8000b724: 0b 20 80 00  	regext	zero, zero, 8
8000b728: 7b 66 00 fa  	vsw12.v	v0, -84(v0)
8000b72c: 03 23 82 fb  	lw	t1, -72(tp)
8000b730: 23 20 62 fa  	sw	t1, -96(tp)
8000b734: 83 23 02 fb  	lw	t2, -80(tp)
8000b738: 03 23 42 fb  	lw	t1, -76(tp)
8000b73c: 57 c0 03 5e  	<unknown>
8000b740: d7 40 03 5e  	<unknown>
8000b744: 57 c1 02 5e  	<unknown>
8000b748: ef d0 cf c7  	jal	0x80008bc4 <__udivmodti4>
8000b74c: 0b 20 80 00  	regext	zero, zero, 8
8000b750: 7b 68 00 fa  	vsw12.v	v0, -80(v0)
8000b754: 83 22 82 fb  	lw	t0, -72(tp)
8000b758: 23 22 52 fa  	sw	t0, -92(tp)
8000b75c: 93 02 00 00  	li	t0, 0
8000b760: a3 06 52 f0  	sb	t0, -243(tp)
8000b764: 6f 00 40 00  	j	0x8000b768 <.LBB13_9>

8000b768 <.LBB13_9>:
8000b768: 83 22 02 fb  	lw	t0, -80(tp)
8000b76c: 63 80 02 02  	beqz	t0, 0x8000b78c <.LBB13_11>
8000b770: 6f 00 40 00  	j	0x8000b774 <.LBB13_10>

8000b774 <.LBB13_10>:
8000b774: 83 02 d2 f0  	lb	t0, -243(tp)
8000b778: 93 03 10 00  	li	t2, 1
8000b77c: 13 03 30 01  	li	t1, 19
8000b780: 23 2c 71 0a  	sw	t2, 184(sp)
8000b784: 63 cc 62 02  	blt	t0, t1, 0x8000b7bc <.LBB13_14>
8000b788: 6f 00 40 00  	j	0x8000b78c <.LBB13_11>

8000b78c <.LBB13_11>:
8000b78c: 83 22 02 fb  	lw	t0, -80(tp)
8000b790: 13 03 00 00  	li	t1, 0
8000b794: 23 2e 61 0a  	sw	t1, 188(sp)
8000b798: 63 9c 02 00  	bnez	t0, 0x8000b7b0 <.LBB13_13>
8000b79c: 6f 00 40 00  	j	0x8000b7a0 <.LBB13_12>

8000b7a0 <.LBB13_12>:
8000b7a0: 83 22 42 fa  	lw	t0, -92(tp)
8000b7a4: b3 32 50 00  	snez	t0, t0
8000b7a8: 23 2e 51 0a  	sw	t0, 188(sp)
8000b7ac: 6f 00 40 00  	j	0x8000b7b0 <.LBB13_13>

8000b7b0 <.LBB13_13>:
8000b7b0: 83 22 c1 0b  	lw	t0, 188(sp)
8000b7b4: 23 2c 51 0a  	sw	t0, 184(sp)
8000b7b8: 6f 00 40 00  	j	0x8000b7bc <.LBB13_14>

8000b7bc <.LBB13_14>:
8000b7bc: 83 22 81 0b  	lw	t0, 184(sp)
8000b7c0: 93 f2 12 00  	andi	t0, t0, 1
8000b7c4: 63 8e 02 0c  	beqz	t0, 0x8000b8a0 <.LBB13_17>
8000b7c8: 6f 00 40 00  	j	0x8000b7cc <.LBB13_15>

8000b7cc <.LBB13_15>:
8000b7cc: 83 22 c2 f9  	lw	t0, -100(tp)
8000b7d0: 37 d3 cc cc  	lui	t1, 838861
8000b7d4: 13 03 d3 cc  	addi	t1, t1, -819
8000b7d8: b3 b3 62 02  	mulhu	t2, t0, t1
8000b7dc: 93 d3 33 00  	srli	t2, t2, 3
8000b7e0: 13 04 a0 00  	li	s0, 10
8000b7e4: b3 83 83 02  	mul	t2, t2, s0
8000b7e8: b3 82 72 40  	sub	t0, t0, t2
8000b7ec: 93 e2 02 03  	ori	t0, t0, 48
8000b7f0: 83 04 c2 f0  	lb	s1, -244(tp)
8000b7f4: 93 03 c2 f1  	addi	t2, tp, -228
8000b7f8: b3 83 93 00  	add	t2, t2, s1
8000b7fc: 23 80 53 00  	sb	t0, 0(t2)
8000b800: 83 22 02 fa  	lw	t0, -96(tp)
8000b804: b3 b3 62 02  	mulhu	t2, t0, t1
8000b808: 93 d3 33 00  	srli	t2, t2, 3
8000b80c: b3 83 83 02  	mul	t2, t2, s0
8000b810: b3 82 72 40  	sub	t0, t0, t2
8000b814: 93 e2 02 03  	ori	t0, t0, 48
8000b818: 83 04 c2 f0  	lb	s1, -244(tp)
8000b81c: 93 03 02 f7  	addi	t2, tp, -144
8000b820: b3 83 93 00  	add	t2, t2, s1
8000b824: 23 80 53 00  	sb	t0, 0(t2)
8000b828: 83 22 42 fa  	lw	t0, -92(tp)
8000b82c: b3 b3 62 02  	mulhu	t2, t0, t1
8000b830: 93 d3 33 00  	srli	t2, t2, 3
8000b834: b3 83 83 02  	mul	t2, t2, s0
8000b838: b3 82 72 40  	sub	t0, t0, t2
8000b83c: 93 e2 02 03  	ori	t0, t0, 48
8000b840: 03 04 c2 f0  	lb	s0, -244(tp)
8000b844: 93 03 62 f4  	addi	t2, tp, -186
8000b848: b3 83 83 00  	add	t2, t2, s0
8000b84c: 23 80 53 00  	sb	t0, 0(t2)
8000b850: 83 22 c2 f9  	lw	t0, -100(tp)
8000b854: b3 b2 62 02  	mulhu	t0, t0, t1
8000b858: 93 d2 32 00  	srli	t0, t0, 3
8000b85c: 23 2e 52 f8  	sw	t0, -100(tp)
8000b860: 83 22 02 fa  	lw	t0, -96(tp)
8000b864: b3 b2 62 02  	mulhu	t0, t0, t1
8000b868: 93 d2 32 00  	srli	t0, t0, 3
8000b86c: 23 20 52 fa  	sw	t0, -96(tp)
8000b870: 83 22 42 fa  	lw	t0, -92(tp)
8000b874: b3 b2 62 02  	mulhu	t0, t0, t1
8000b878: 93 d2 32 00  	srli	t0, t0, 3
8000b87c: 23 22 52 fa  	sw	t0, -92(tp)
8000b880: 6f 00 40 00  	j	0x8000b884 <.LBB13_16>

8000b884 <.LBB13_16>:
8000b884: 83 02 d2 f0  	lb	t0, -243(tp)
8000b888: 93 82 12 00  	addi	t0, t0, 1
8000b88c: a3 06 52 f0  	sb	t0, -243(tp)
8000b890: 83 02 c2 f0  	lb	t0, -244(tp)
8000b894: 93 82 f2 ff  	addi	t0, t0, -1
8000b898: 23 06 52 f0  	sb	t0, -244(tp)
8000b89c: 6f f0 df ec  	j	0x8000b768 <.LBB13_9>

8000b8a0 <.LBB13_17>:
8000b8a0: 6f f0 9f e2  	j	0x8000b6c8 <.LBB13_7>

8000b8a4 <.LBB13_18>:
8000b8a4: 03 03 c2 f0  	lb	t1, -244(tp)
8000b8a8: 93 02 13 00  	addi	t0, t1, 1
8000b8ac: 23 06 52 f0  	sb	t0, -244(tp)
8000b8b0: 93 02 70 02  	li	t0, 39
8000b8b4: b3 82 62 40  	sub	t0, t0, t1
8000b8b8: 23 28 52 f0  	sw	t0, -240(tp)
8000b8bc: 6f 00 40 00  	j	0x8000b8c0 <.LBB13_19>

8000b8c0 <.LBB13_19>:
8000b8c0: 03 03 c2 f0  	lb	t1, -244(tp)
8000b8c4: 93 02 13 00  	addi	t0, t1, 1
8000b8c8: 23 06 52 f0  	sb	t0, -244(tp)
8000b8cc: 93 02 62 f4  	addi	t0, tp, -186
8000b8d0: b3 82 62 00  	add	t0, t0, t1
8000b8d4: 83 82 02 00  	lb	t0, 0(t0)
8000b8d8: 03 23 42 f0  	lw	t1, -252(tp)
8000b8dc: 93 03 13 00  	addi	t2, t1, 1
8000b8e0: 23 22 72 f0  	sw	t2, -252(tp)
8000b8e4: 23 00 53 00  	sb	t0, 0(t1)
8000b8e8: 6f 00 40 00  	j	0x8000b8ec <.LBB13_20>

8000b8ec <.LBB13_20>:
8000b8ec: 03 03 c2 f0  	lb	t1, -244(tp)
8000b8f0: 93 02 62 f4  	addi	t0, tp, -186
8000b8f4: b3 82 62 00  	add	t0, t0, t1
8000b8f8: 83 82 02 00  	lb	t0, 0(t0)
8000b8fc: 13 03 00 00  	li	t1, 0
8000b900: 23 20 61 0c  	sw	t1, 192(sp)
8000b904: 63 8a 02 02  	beqz	t0, 0x8000b938 <.LBB13_22>
8000b908: 6f 00 40 00  	j	0x8000b90c <.LBB13_21>

8000b90c <.LBB13_21>:
8000b90c: 83 03 c2 f0  	lb	t2, -244(tp)
8000b910: 93 02 62 f4  	addi	t0, tp, -186
8000b914: b3 82 72 00  	add	t0, t0, t2
8000b918: 83 82 02 00  	lb	t0, 0(t0)
8000b91c: 13 03 c2 f1  	addi	t1, tp, -228
8000b920: 33 03 73 00  	add	t1, t1, t2
8000b924: 03 03 03 00  	lb	t1, 0(t1)
8000b928: b3 c2 62 00  	xor	t0, t0, t1
8000b92c: 93 b2 12 00  	seqz	t0, t0
8000b930: 23 20 51 0c  	sw	t0, 192(sp)
8000b934: 6f 00 40 00  	j	0x8000b938 <.LBB13_22>

8000b938 <.LBB13_22>:
8000b938: 83 22 01 0c  	lw	t0, 192(sp)
8000b93c: 93 f2 12 00  	andi	t0, t0, 1
8000b940: e3 90 02 f8  	bnez	t0, 0x8000b8c0 <.LBB13_19>
8000b944: 6f 00 40 00  	j	0x8000b948 <.LBB13_23>

8000b948 <.LBB13_23>:
8000b948: 03 03 c2 f0  	lb	t1, -244(tp)
8000b94c: 93 02 02 f7  	addi	t0, tp, -144
8000b950: 33 83 62 00  	add	t1, t0, t1
8000b954: 83 02 03 00  	lb	t0, 0(t1)
8000b958: 03 03 13 00  	lb	t1, 1(t1)
8000b95c: 13 23 53 03  	slti	t1, t1, 53
8000b960: 13 43 13 00  	xori	t1, t1, 1
8000b964: b3 82 62 00  	add	t0, t0, t1
8000b968: 03 23 42 f0  	lw	t1, -252(tp)
8000b96c: 93 03 13 00  	addi	t2, t1, 1
8000b970: 23 22 72 f0  	sw	t2, -252(tp)
8000b974: 23 00 53 00  	sb	t0, 0(t1)
8000b978: 03 23 42 f0  	lw	t1, -252(tp)
8000b97c: 93 02 00 00  	li	t0, 0
8000b980: 23 00 53 00  	sb	t0, 0(t1)
8000b984: 03 23 82 f0  	lw	t1, -248(tp)
8000b988: 93 02 10 00  	li	t0, 1
8000b98c: 23 20 53 00  	sw	t0, 0(t1)
8000b990: 83 22 02 f1  	lw	t0, -240(tp)
8000b994: 23 2c 52 ee  	sw	t0, -264(tp)
8000b998: 6f 00 40 00  	j	0x8000b99c <.LBB13_24>

8000b99c <.LBB13_24>:
8000b99c: 5b 20 00 00  	join	zero, zero, 0
8000b9a0: 83 22 82 ef  	lw	t0, -264(tp)
8000b9a4: 57 c0 02 5e  	<unknown>
8000b9a8: 83 20 01 fd  	lw	ra, -48(sp)
8000b9ac: 0b c0 00 04  	barrier	x0, x0, 1
8000b9b0: 13 01 01 fd  	addi	sp, sp, -48
8000b9b4: 13 02 42 f2  	addi	tp, tp, -220
8000b9b8: 67 80 00 00  	ret

8000b9bc <fpeint>:
8000b9bc: 13 01 41 00  	addi	sp, sp, 4
8000b9c0: 13 02 02 02  	addi	tp, tp, 32
8000b9c4: 0b 20 10 00  	regext	zero, zero, 1
8000b9c8: 57 40 02 5e  	<unknown>
8000b9cc: 23 2e 11 fe  	sw	ra, -4(sp)
8000b9d0: 0b 20 80 00  	regext	zero, zero, 8
8000b9d4: 7b 64 10 fe  	vsw12.v	v1, -24(v0)
8000b9d8: 0b 20 80 00  	regext	zero, zero, 8
8000b9dc: 7b 62 00 fe  	vsw12.v	v0, -28(v0)
8000b9e0: 83 22 42 fe  	lw	t0, -28(tp)
8000b9e4: 03 23 82 fe  	lw	t1, -24(tp)
8000b9e8: 23 28 62 fe  	sw	t1, -16(tp)
8000b9ec: 23 26 52 fe  	sw	t0, -20(tp)
8000b9f0: 57 c0 02 5e  	<unknown>
8000b9f4: 83 20 c1 ff  	lw	ra, -4(sp)
8000b9f8: 0b c0 00 04  	barrier	x0, x0, 1
8000b9fc: 13 01 c1 ff  	addi	sp, sp, -4
8000ba00: 13 02 02 fe  	addi	tp, tp, -32
8000ba04: 67 80 00 00  	ret

8000ba08 <errol3_dtoa>:
8000ba08: 13 01 c1 00  	addi	sp, sp, 12
8000ba0c: 13 02 02 03  	addi	tp, tp, 48
8000ba10: 0b 20 10 00  	regext	zero, zero, 1
8000ba14: 57 40 02 5e  	<unknown>
8000ba18: 23 2a 11 fe  	sw	ra, -12(sp)
8000ba1c: 0b 20 80 00  	regext	zero, zero, 8
8000ba20: 7b 68 10 fc  	vsw12.v	v1, -48(v0)
8000ba24: 0b 20 80 00  	regext	zero, zero, 8
8000ba28: 7b 66 00 fc  	vsw12.v	v0, -52(v0)
8000ba2c: 0b 20 80 00  	regext	zero, zero, 8
8000ba30: 7b 6a 20 fc  	vsw12.v	v2, -44(v0)
8000ba34: 83 22 c2 fc  	lw	t0, -52(tp)
8000ba38: 03 23 02 fd  	lw	t1, -48(tp)
8000ba3c: 23 20 62 fe  	sw	t1, -32(tp)
8000ba40: 23 2e 52 fc  	sw	t0, -36(tp)
8000ba44: 93 02 00 1b  	li	t0, 432
8000ba48: 23 22 52 fe  	sw	t0, -28(tp)
8000ba4c: 03 23 42 fe  	lw	t1, -28(tp)
8000ba50: 83 22 c2 fd  	lw	t0, -36(tp)
8000ba54: b7 23 01 80  	lui	t2, 524306
8000ba58: 93 83 83 00  	addi	t2, t2, 8
8000ba5c: 57 c0 03 5e  	<unknown>
8000ba60: d7 40 03 5e  	<unknown>
8000ba64: 57 c1 02 5e  	<unknown>
8000ba68: ef 00 40 0d  	jal	0x8000bb3c <table_lower_bound>
8000ba6c: 0b 20 80 00  	regext	zero, zero, 8
8000ba70: 7b 64 00 fe  	vsw12.v	v0, -24(v0)
8000ba74: 83 22 82 fe  	lw	t0, -24(tp)
8000ba78: 03 23 42 fe  	lw	t1, -28(tp)
8000ba7c: 63 de 62 06  	bge	t0, t1, 0x8000baf8 <.LBB15_3>
8000ba80: 6f 00 40 00  	j	0x8000ba84 <.LBB15_1>

8000ba84 <.LBB15_1>:
8000ba84: 83 22 82 fe  	lw	t0, -24(tp)
8000ba88: 13 93 22 00  	slli	t1, t0, 2
8000ba8c: b7 22 01 80  	lui	t0, 524306
8000ba90: 93 82 82 00  	addi	t0, t0, 8
8000ba94: b3 82 62 00  	add	t0, t0, t1
8000ba98: 83 a2 02 00  	lw	t0, 0(t0)
8000ba9c: 03 23 c2 fd  	lw	t1, -36(tp)
8000baa0: 63 9c 62 04  	bne	t0, t1, 0x8000baf8 <.LBB15_3>
8000baa4: 6f 00 40 00  	j	0x8000baa8 <.LBB15_2>

8000baa8 <.LBB15_2>:
8000baa8: 03 23 42 fd  	lw	t1, -44(tp)
8000baac: 83 22 82 fe  	lw	t0, -24(tp)
8000bab0: 93 03 80 01  	li	t2, 24
8000bab4: 23 20 71 02  	sw	t2, 32(sp)
8000bab8: b3 83 72 02  	mul	t2, t0, t2
8000babc: b7 22 01 80  	lui	t0, 524306
8000bac0: 93 82 82 6c  	addi	t0, t0, 1736
8000bac4: 23 2e 51 00  	sw	t0, 28(sp)
8000bac8: b3 82 72 00  	add	t0, t0, t2
8000bacc: 57 40 03 5e  	<unknown>
8000bad0: d7 c0 02 5e  	<unknown>
8000bad4: ef e0 cf 98  	jal	0x80009c60 <strcpy>
8000bad8: 83 23 01 02  	lw	t2, 32(sp)
8000badc: 83 22 c1 01  	lw	t0, 28(sp)
8000bae0: 03 23 82 fe  	lw	t1, -24(tp)
8000bae4: 33 03 73 02  	mul	t1, t1, t2
8000bae8: b3 82 62 00  	add	t0, t0, t1
8000baec: 83 a2 42 01  	lw	t0, 20(t0)
8000baf0: 23 24 52 fc  	sw	t0, -56(tp)
8000baf4: 6f 00 c0 02  	j	0x8000bb20 <.LBB15_4>

8000baf8 <.LBB15_3>:
8000baf8: 83 22 42 fd  	lw	t0, -44(tp)
8000bafc: 03 23 02 fd  	lw	t1, -48(tp)
8000bb00: 83 23 c2 fc  	lw	t2, -52(tp)
8000bb04: 57 c0 03 5e  	<unknown>
8000bb08: d7 40 03 5e  	<unknown>
8000bb0c: 57 c1 02 5e  	<unknown>
8000bb10: ef 00 c0 0e  	jal	0x8000bbfc <errol3u_dtoa>
8000bb14: 0b 20 80 00  	regext	zero, zero, 8
8000bb18: 7b 64 00 fc  	vsw12.v	v0, -56(v0)
8000bb1c: 6f 00 40 00  	j	0x8000bb20 <.LBB15_4>

8000bb20 <.LBB15_4>:
8000bb20: 83 22 82 fc  	lw	t0, -56(tp)
8000bb24: 57 c0 02 5e  	<unknown>
8000bb28: 83 20 41 ff  	lw	ra, -12(sp)
8000bb2c: 0b c0 00 04  	barrier	x0, x0, 1
8000bb30: 13 01 41 ff  	addi	sp, sp, -12
8000bb34: 13 02 02 fd  	addi	tp, tp, -48
8000bb38: 67 80 00 00  	ret

8000bb3c <table_lower_bound>:
8000bb3c: 13 01 41 00  	addi	sp, sp, 4
8000bb40: 13 02 42 01  	addi	tp, tp, 20
8000bb44: 0b 20 10 00  	regext	zero, zero, 1
8000bb48: 57 40 02 5e  	<unknown>
8000bb4c: 23 2e 11 fe  	sw	ra, -4(sp)
8000bb50: 0b 20 80 00  	regext	zero, zero, 8
8000bb54: 7b 66 00 fe  	vsw12.v	v0, -20(v0)
8000bb58: 0b 20 80 00  	regext	zero, zero, 8
8000bb5c: 7b 68 10 fe  	vsw12.v	v1, -16(v0)
8000bb60: 0b 20 80 00  	regext	zero, zero, 8
8000bb64: 7b 6a 20 fe  	vsw12.v	v2, -12(v0)
8000bb68: 83 22 02 ff  	lw	t0, -16(tp)
8000bb6c: 23 2c 52 fe  	sw	t0, -8(tp)
8000bb70: 93 02 00 00  	li	t0, 0
8000bb74: 23 2e 52 fe  	sw	t0, -4(tp)
8000bb78: 6f 00 40 00  	j	0x8000bb7c <.LBB16_1>

8000bb7c <.LBB16_1>:
8000bb7c: 83 22 c2 ff  	lw	t0, -4(tp)
8000bb80: 03 23 02 ff  	lw	t1, -16(tp)
8000bb84: 63 de 62 04  	bge	t0, t1, 0x8000bbe0 <.LBB16_6>
8000bb88: 6f 00 40 00  	j	0x8000bb8c <.LBB16_2>

8000bb8c <.LBB16_2>:
8000bb8c: 83 22 c2 fe  	lw	t0, -20(tp)
8000bb90: 03 23 c2 ff  	lw	t1, -4(tp)
8000bb94: 13 13 23 00  	slli	t1, t1, 2
8000bb98: b3 82 62 00  	add	t0, t0, t1
8000bb9c: 83 a2 02 00  	lw	t0, 0(t0)
8000bba0: 03 23 42 ff  	lw	t1, -12(tp)
8000bba4: 63 fe 62 00  	bgeu	t0, t1, 0x8000bbc0 <.LBB16_4>
8000bba8: 6f 00 40 00  	j	0x8000bbac <.LBB16_3>

8000bbac <.LBB16_3>:
8000bbac: 83 22 c2 ff  	lw	t0, -4(tp)
8000bbb0: 93 92 12 00  	slli	t0, t0, 1
8000bbb4: 93 82 22 00  	addi	t0, t0, 2
8000bbb8: 23 2e 52 fe  	sw	t0, -4(tp)
8000bbbc: 6f 00 00 02  	j	0x8000bbdc <.LBB16_5>

8000bbc0 <.LBB16_4>:
8000bbc0: 83 22 c2 ff  	lw	t0, -4(tp)
8000bbc4: 23 2c 52 fe  	sw	t0, -8(tp)
8000bbc8: 83 22 c2 ff  	lw	t0, -4(tp)
8000bbcc: 93 92 12 00  	slli	t0, t0, 1
8000bbd0: 93 e2 12 00  	ori	t0, t0, 1
8000bbd4: 23 2e 52 fe  	sw	t0, -4(tp)
8000bbd8: 6f 00 40 00  	j	0x8000bbdc <.LBB16_5>

8000bbdc <.LBB16_5>:
8000bbdc: 6f f0 1f fa  	j	0x8000bb7c <.LBB16_1>

8000bbe0 <.LBB16_6>:
8000bbe0: 83 22 82 ff  	lw	t0, -8(tp)
8000bbe4: 57 c0 02 5e  	<unknown>
8000bbe8: 83 20 c1 ff  	lw	ra, -4(sp)
8000bbec: 0b c0 00 04  	barrier	x0, x0, 1
8000bbf0: 13 01 c1 ff  	addi	sp, sp, -4
8000bbf4: 13 02 c2 fe  	addi	tp, tp, -20
8000bbf8: 67 80 00 00  	ret

8000bbfc <errol3u_dtoa>:
8000bbfc: 13 01 c1 08  	addi	sp, sp, 140
8000bc00: 13 02 c2 0d  	addi	tp, tp, 220
8000bc04: 0b 20 10 00  	regext	zero, zero, 1
8000bc08: 57 40 02 5e  	<unknown>
8000bc0c: 23 2a 11 f6  	sw	ra, -140(sp)
8000bc10: 0b 20 80 00  	regext	zero, zero, 8
8000bc14: 7b 62 10 ea  	vsw12.v	v1, -348(v0)
8000bc18: 0b 20 80 00  	regext	zero, zero, 8
8000bc1c: 7b 60 00 ea  	vsw12.v	v0, -352(v0)
8000bc20: 0b 20 80 00  	regext	zero, zero, 8
8000bc24: 7b 64 20 ea  	vsw12.v	v2, -344(v0)
8000bc28: 83 22 02 ea  	lw	t0, -352(tp)
8000bc2c: 03 23 42 ea  	lw	t1, -348(tp)
8000bc30: 23 2e 62 ec  	sw	t1, -292(tp)
8000bc34: 23 2c 52 ec  	sw	t0, -296(tp)
8000bc38: 13 03 00 00  	li	t1, 0
8000bc3c: 23 2c 61 fe  	sw	t1, -8(sp)
8000bc40: 23 22 62 ee  	sw	t1, -284(tp)
8000bc44: 23 20 62 ee  	sw	t1, -288(tp)
8000bc48: 83 22 02 ea  	lw	t0, -352(tp)
8000bc4c: 83 23 42 ea  	lw	t2, -348(tp)
8000bc50: 23 26 72 ee  	sw	t2, -276(tp)
8000bc54: 23 24 52 ee  	sw	t0, -280(tp)
8000bc58: 23 2a 62 ee  	sw	t1, -268(tp)
8000bc5c: 23 28 62 ee  	sw	t1, -272(tp)
8000bc60: 03 24 02 ea  	lw	s0, -352(tp)
8000bc64: 83 23 42 ea  	lw	t2, -348(tp)
8000bc68: b7 02 40 43  	lui	t0, 275456
8000bc6c: 57 40 04 5e  	<unknown>
8000bc70: d7 c0 03 5e  	<unknown>
8000bc74: 57 41 03 5e  	<unknown>
8000bc78: d7 c1 02 5e  	<unknown>
8000bc7c: ef 60 8f b2  	jal	0x80001fa4 <__gtdf2>
8000bc80: 83 22 81 ff  	lw	t0, -8(sp)
8000bc84: d7 40 00 02  	vadd.vx	v1, v0, zero
8000bc88: 57 c0 02 5e  	<unknown>

8000bc8c <.Lpcrel_hi36>:
8000bc8c: 17 13 00 00  	auipc	t1, 1
8000bc90: 5b 30 43 c0  	setrpc	zero, t1, -1020
8000bc94: 5b d8 00 06  	vbge	v0, v1, 0x8000bd04 <.LBB17_3>
8000bc98: 6f 00 40 00  	j	0x8000bc9c <.LBB17_1>

8000bc9c <.LBB17_1>:
8000bc9c: 03 24 02 ea  	lw	s0, -352(tp)
8000bca0: 83 23 42 ea  	lw	t2, -348(tp)
8000bca4: b7 02 f0 47  	lui	t0, 294656
8000bca8: 93 82 f2 ff  	addi	t0, t0, -1
8000bcac: 13 03 40 ff  	li	t1, -12
8000bcb0: 57 40 04 5e  	<unknown>
8000bcb4: d7 c0 03 5e  	<unknown>
8000bcb8: 57 41 03 5e  	<unknown>
8000bcbc: d7 c1 02 5e  	<unknown>
8000bcc0: ef 50 1f dd  	jal	0x80001a90 <__ltdf2>
8000bcc4: 93 02 00 00  	li	t0, 0
8000bcc8: d7 c0 02 5e  	<unknown>

8000bccc <.Lpcrel_hi37>:
8000bccc: 17 13 00 00  	auipc	t1, 1
8000bcd0: 5b 30 43 bc  	setrpc	zero, t1, -1084
8000bcd4: 5b d8 00 02  	vbge	v0, v1, 0x8000bd04 <.LBB17_3>
8000bcd8: 6f 00 40 00  	j	0x8000bcdc <.LBB17_2>

8000bcdc <.LBB17_2>:
8000bcdc: 83 22 82 ea  	lw	t0, -344(tp)
8000bce0: 03 23 42 ea  	lw	t1, -348(tp)
8000bce4: 83 23 02 ea  	lw	t2, -352(tp)
8000bce8: 57 c0 03 5e  	<unknown>
8000bcec: d7 40 03 5e  	<unknown>
8000bcf0: 57 c1 02 5e  	<unknown>
8000bcf4: ef 00 d0 3b  	jal	0x8000c8b0 <errol_int>
8000bcf8: 0b 20 80 00  	regext	zero, zero, 8
8000bcfc: 7b 6e 00 e8  	vsw12.v	v0, -356(v0)
8000bd00: 6f 00 10 39  	j	0x8000c890 <.LBB17_54>

8000bd04 <.LBB17_3>:
8000bd04: 03 24 02 ea  	lw	s0, -352(tp)
8000bd08: 83 23 42 ea  	lw	t2, -348(tp)
8000bd0c: 13 03 00 00  	li	t1, 0
8000bd10: 23 2e 61 fe  	sw	t1, -4(sp)
8000bd14: b7 02 30 40  	lui	t0, 262912
8000bd18: 57 40 04 5e  	<unknown>
8000bd1c: d7 c0 03 5e  	<unknown>
8000bd20: 57 41 03 5e  	<unknown>
8000bd24: d7 c1 02 5e  	<unknown>
8000bd28: ef 60 4f 93  	jal	0x80001e5c <__gedf2>
8000bd2c: 83 22 c1 ff  	lw	t0, -4(sp)
8000bd30: d7 c0 02 5e  	<unknown>

8000bd34 <.Lpcrel_hi38>:
8000bd34: 17 13 00 00  	auipc	t1, 1
8000bd38: 5b 30 c3 b5  	setrpc	zero, t1, -1188
8000bd3c: 5b ca 00 06  	vblt	v0, v1, 0x8000bdb0 <.LBB17_6>
8000bd40: 6f 00 40 00  	j	0x8000bd44 <.LBB17_4>

8000bd44 <.LBB17_4>:
8000bd44: 03 24 02 ea  	lw	s0, -352(tp)
8000bd48: 83 23 42 ea  	lw	t2, -348(tp)
8000bd4c: 13 03 00 00  	li	t1, 0
8000bd50: 23 20 61 00  	sw	t1, 0(sp)
8000bd54: b7 02 40 43  	lui	t0, 275456
8000bd58: 57 40 04 5e  	<unknown>
8000bd5c: d7 c0 03 5e  	<unknown>
8000bd60: 57 41 03 5e  	<unknown>
8000bd64: d7 c1 02 5e  	<unknown>
8000bd68: ef 50 5f be  	jal	0x8000194c <__ledf2>
8000bd6c: 83 22 01 00  	lw	t0, 0(sp)
8000bd70: d7 40 00 02  	vadd.vx	v1, v0, zero
8000bd74: 57 c0 02 5e  	<unknown>

8000bd78 <.Lpcrel_hi39>:
8000bd78: 17 13 00 00  	auipc	t1, 1
8000bd7c: 5b 30 83 b1  	setrpc	zero, t1, -1256
8000bd80: 5b c8 00 02  	vblt	v0, v1, 0x8000bdb0 <.LBB17_6>
8000bd84: 6f 00 40 00  	j	0x8000bd88 <.LBB17_5>

8000bd88 <.LBB17_5>:
8000bd88: 83 22 82 ea  	lw	t0, -344(tp)
8000bd8c: 03 23 42 ea  	lw	t1, -348(tp)
8000bd90: 83 23 02 ea  	lw	t2, -352(tp)
8000bd94: 57 c0 03 5e  	<unknown>
8000bd98: d7 40 03 5e  	<unknown>
8000bd9c: 57 c1 02 5e  	<unknown>
8000bda0: ef 00 90 6b  	jal	0x8000cc58 <errol_fixed>
8000bda4: 0b 20 80 00  	regext	zero, zero, 8
8000bda8: 7b 6e 00 e8  	vsw12.v	v0, -356(v0)
8000bdac: 6f 00 50 2e  	j	0x8000c890 <.LBB17_54>

8000bdb0 <.LBB17_6>:
8000bdb0: 6f 00 40 00  	j	0x8000bdb4 <.LBB17_7>

8000bdb4 <.LBB17_7>:
8000bdb4: 03 23 02 ea  	lw	t1, -352(tp)
8000bdb8: 83 22 42 ea  	lw	t0, -348(tp)
8000bdbc: 57 40 03 5e  	<unknown>
8000bdc0: d7 c0 02 5e  	<unknown>
8000bdc4: ef 50 9f a7  	jal	0x8000183c <__fixdfsi>
8000bdc8: 0b 20 80 00  	regext	zero, zero, 8
8000bdcc: 7b 66 00 ea  	vsw12.v	v0, -340(v0)
8000bdd0: 83 22 c2 ea  	lw	t0, -340(tp)
8000bdd4: 57 c0 02 5e  	<unknown>
8000bdd8: ef 60 4f b1  	jal	0x800020ec <__floatsidf>
8000bddc: b7 62 47 55  	lui	t0, 349302
8000bde0: 13 83 22 a3  	addi	t1, t0, -1486
8000bde4: b7 42 d3 3f  	lui	t0, 261428
8000bde8: 93 82 32 41  	addi	t0, t0, 1043
8000bdec: 57 41 03 5e  	<unknown>
8000bdf0: d7 c1 02 5e  	<unknown>
8000bdf4: ef 40 cf b0  	jal	0x80000100 <__muldf3>
8000bdf8: 13 03 00 00  	li	t1, 0
8000bdfc: b7 32 73 40  	lui	t0, 263987
8000be00: 57 41 03 5e  	<unknown>
8000be04: d7 c1 02 5e  	<unknown>
8000be08: ef 60 0f c1  	jal	0x80002218 <__adddf3>
8000be0c: ef 50 1f a3  	jal	0x8000183c <__fixdfsi>
8000be10: 0b 20 80 00  	regext	zero, zero, 8
8000be14: 7b 60 00 ec  	vsw12.v	v0, -320(v0)
8000be18: 03 23 02 ec  	lw	t1, -320(tp)
8000be1c: 93 02 30 01  	li	t0, 19
8000be20: 63 ca 62 00  	blt	t0, t1, 0x8000be34 <.LBB17_9>
8000be24: 6f 00 40 00  	j	0x8000be28 <.LBB17_8>

8000be28 <.LBB17_8>:
8000be28: 93 02 40 01  	li	t0, 20
8000be2c: 23 20 52 ec  	sw	t0, -320(tp)
8000be30: 6f 00 40 02  	j	0x8000be54 <.LBB17_12>

8000be34 <.LBB17_9>:
8000be34: 83 22 02 ec  	lw	t0, -320(tp)
8000be38: 13 03 80 25  	li	t1, 600
8000be3c: 63 ea 62 00  	bltu	t0, t1, 0x8000be50 <.LBB17_11>
8000be40: 6f 00 40 00  	j	0x8000be44 <.LBB17_10>

8000be44 <.LBB17_10>:
8000be44: 93 02 70 25  	li	t0, 599
8000be48: 23 20 52 ec  	sw	t0, -320(tp)
8000be4c: 6f 00 40 00  	j	0x8000be50 <.LBB17_11>

8000be50 <.LBB17_11>:
8000be50: 6f 00 40 00  	j	0x8000be54 <.LBB17_12>

8000be54 <.LBB17_12>:
8000be54: 83 22 02 ec  	lw	t0, -320(tp)
8000be58: 13 93 42 00  	slli	t1, t0, 4
8000be5c: b7 f2 00 80  	lui	t0, 524303
8000be60: 93 82 82 06  	addi	t0, t0, 104
8000be64: 23 22 51 00  	sw	t0, 4(sp)
8000be68: b3 82 62 00  	add	t0, t0, t1
8000be6c: 03 a3 c2 00  	lw	t1, 12(t0)
8000be70: 23 2a 62 ec  	sw	t1, -300(tp)
8000be74: 03 a3 82 00  	lw	t1, 8(t0)
8000be78: 23 28 62 ec  	sw	t1, -304(tp)
8000be7c: 03 a3 42 00  	lw	t1, 4(t0)
8000be80: 23 26 62 ec  	sw	t1, -308(tp)
8000be84: 83 a2 02 00  	lw	t0, 0(t0)
8000be88: 23 24 52 ec  	sw	t0, -312(tp)
8000be8c: 83 23 42 ed  	lw	t2, -300(tp)
8000be90: 03 24 02 ed  	lw	s0, -304(tp)
8000be94: 83 24 c2 ec  	lw	s1, -308(tp)
8000be98: 03 25 82 ec  	lw	a0, -312(tp)
8000be9c: 83 22 42 ea  	lw	t0, -348(tp)
8000bea0: 03 23 02 ea  	lw	t1, -352(tp)
8000bea4: 93 05 82 ef  	addi	a1, tp, -264
8000bea8: 57 c0 05 5e  	<unknown>
8000beac: d7 40 05 5e  	<unknown>
8000beb0: 57 c1 04 5e  	<unknown>
8000beb4: d7 41 04 5e  	<unknown>
8000beb8: 57 c2 03 5e  	<unknown>
8000bebc: d7 42 03 5e  	<unknown>
8000bec0: 57 c3 02 5e  	<unknown>
8000bec4: ef f0 cf b1  	jal	0x8000b1e0 <hp_prod>
8000bec8: 83 22 41 00  	lw	t0, 4(sp)
8000becc: 03 23 42 f0  	lw	t1, -252(tp)
8000bed0: 23 2a 62 ec  	sw	t1, -300(tp)
8000bed4: 03 23 02 f0  	lw	t1, -256(tp)
8000bed8: 23 28 62 ec  	sw	t1, -304(tp)
8000bedc: 03 23 c2 ef  	lw	t1, -260(tp)
8000bee0: 23 26 62 ec  	sw	t1, -308(tp)
8000bee4: 03 23 82 ef  	lw	t1, -264(tp)
8000bee8: 23 24 62 ec  	sw	t1, -312(tp)
8000beec: 03 23 02 ec  	lw	t1, -320(tp)
8000bef0: 13 13 43 00  	slli	t1, t1, 4
8000bef4: 33 83 62 00  	add	t1, t0, t1
8000bef8: 83 22 03 00  	lw	t0, 0(t1)
8000befc: 03 23 43 00  	lw	t1, 4(t1)
8000bf00: 23 2e 62 ea  	sw	t1, -324(tp)
8000bf04: 23 2c 52 ea  	sw	t0, -328(tp)
8000bf08: b7 02 f0 3f  	lui	t0, 261888
8000bf0c: 23 2a 52 ea  	sw	t0, -332(tp)
8000bf10: 93 02 00 00  	li	t0, 0
8000bf14: 23 28 52 ea  	sw	t0, -336(tp)
8000bf18: 83 22 02 ec  	lw	t0, -320(tp)
8000bf1c: 13 03 30 13  	li	t1, 307
8000bf20: b3 82 62 40  	sub	t0, t0, t1
8000bf24: 23 20 52 ec  	sw	t0, -320(tp)
8000bf28: 6f 00 40 00  	j	0x8000bf2c <.LBB17_13>

8000bf2c <.LBB17_13>:
8000bf2c: 03 24 82 ec  	lw	s0, -312(tp)
8000bf30: 83 23 c2 ec  	lw	t2, -308(tp)
8000bf34: 13 03 00 00  	li	t1, 0
8000bf38: 23 26 61 00  	sw	t1, 12(sp)
8000bf3c: b7 02 24 40  	lui	t0, 262720
8000bf40: 57 40 04 5e  	<unknown>
8000bf44: d7 c0 03 5e  	<unknown>
8000bf48: 57 41 03 5e  	<unknown>
8000bf4c: d7 c1 02 5e  	<unknown>
8000bf50: ef 60 4f 85  	jal	0x80001fa4 <__gtdf2>
8000bf54: 03 23 c1 00  	lw	t1, 12(sp)
8000bf58: d7 40 00 02  	vadd.vx	v1, v0, zero
8000bf5c: 93 02 10 00  	li	t0, 1
8000bf60: 57 40 03 5e  	<unknown>
8000bf64: 23 24 51 00  	sw	t0, 8(sp)

8000bf68 <.Lpcrel_hi40>:
8000bf68: 17 03 00 00  	auipc	t1, 0
8000bf6c: 5b 30 83 09  	setrpc	zero, t1, 152
8000bf70: 5b c8 00 08  	vblt	v0, v1, 0x8000c000 <.LBB17_17>
8000bf74: 6f 00 40 00  	j	0x8000bf78 <.LBB17_14>

8000bf78 <.LBB17_14>:
8000bf78: 03 24 82 ec  	lw	s0, -312(tp)
8000bf7c: 83 23 c2 ec  	lw	t2, -308(tp)
8000bf80: 13 03 00 00  	li	t1, 0
8000bf84: 23 2a 61 00  	sw	t1, 20(sp)
8000bf88: b7 02 24 40  	lui	t0, 262720
8000bf8c: 57 40 04 5e  	<unknown>
8000bf90: d7 c0 03 5e  	<unknown>
8000bf94: 57 41 03 5e  	<unknown>
8000bf98: d7 c1 02 5e  	<unknown>
8000bf9c: ef 50 9f c3  	jal	0x80001bd4 <__nedf2>
8000bfa0: 03 23 41 01  	lw	t1, 20(sp)
8000bfa4: 93 02 03 00  	mv	t0, t1
8000bfa8: d7 40 03 5e  	<unknown>
8000bfac: 23 28 51 00  	sw	t0, 16(sp)

8000bfb0 <.Lpcrel_hi41>:
8000bfb0: 17 03 00 00  	auipc	t1, 0
8000bfb4: 5b 30 03 04  	setrpc	zero, t1, 64
8000bfb8: 5b 9c 00 02  	vbne	v0, v1, 0x8000bff0 <.LBB17_16>
8000bfbc: 6f 00 40 00  	j	0x8000bfc0 <.LBB17_15>

8000bfc0 <.LBB17_15>:
8000bfc0: 83 23 02 ed  	lw	t2, -304(tp)
8000bfc4: 03 23 42 ed  	lw	t1, -300(tp)
8000bfc8: 93 02 00 00  	li	t0, 0
8000bfcc: 57 c0 03 5e  	<unknown>
8000bfd0: d7 40 03 5e  	<unknown>
8000bfd4: 57 c1 02 5e  	<unknown>
8000bfd8: d7 c1 02 5e  	<unknown>
8000bfdc: ef 50 1f e8  	jal	0x80001e5c <__gedf2>
8000bfe0: 57 30 00 7e  	vmsgt.vi	v0, v0, 0
8000bfe4: d7 22 00 42  	vmv.x.s	t0, v0
8000bfe8: 23 28 51 00  	sw	t0, 16(sp)
8000bfec: 6f 00 40 00  	j	0x8000bff0 <.LBB17_16>

8000bff0 <.LBB17_16>:
8000bff0: 5b 20 00 00  	join	zero, zero, 0
8000bff4: 83 22 01 01  	lw	t0, 16(sp)
8000bff8: 23 24 51 00  	sw	t0, 8(sp)
8000bffc: 6f 00 40 00  	j	0x8000c000 <.LBB17_17>

8000c000 <.LBB17_17>:
8000c000: 5b 20 00 00  	join	zero, zero, 0
8000c004: 83 22 81 00  	lw	t0, 8(sp)
8000c008: 93 f2 12 00  	andi	t0, t0, 1
8000c00c: 63 8c 02 04  	beqz	t0, 0x8000c064 <.LBB17_19>
8000c010: 6f 00 40 00  	j	0x8000c014 <.LBB17_18>

8000c014 <.LBB17_18>:
8000c014: 83 22 02 ec  	lw	t0, -320(tp)
8000c018: 93 82 12 00  	addi	t0, t0, 1
8000c01c: 23 20 52 ec  	sw	t0, -320(tp)
8000c020: 93 02 82 ec  	addi	t0, tp, -312
8000c024: 57 c0 02 5e  	<unknown>
8000c028: ef d0 1f cb  	jal	0x80009cd8 <hp_div10>
8000c02c: 03 24 02 eb  	lw	s0, -336(tp)
8000c030: 83 23 42 eb  	lw	t2, -332(tp)
8000c034: 13 03 00 00  	li	t1, 0
8000c038: b7 02 24 40  	lui	t0, 262720
8000c03c: 57 40 04 5e  	<unknown>
8000c040: d7 c0 03 5e  	<unknown>
8000c044: 57 41 03 5e  	<unknown>
8000c048: d7 c1 02 5e  	<unknown>
8000c04c: ef 40 1f a5  	jal	0x80000a9c <__divdf3>
8000c050: 0b 20 80 00  	regext	zero, zero, 8
8000c054: 7b 6a 10 ea  	vsw12.v	v1, -332(v0)
8000c058: 0b 20 80 00  	regext	zero, zero, 8
8000c05c: 7b 68 00 ea  	vsw12.v	v0, -336(v0)
8000c060: 6f f0 df ec  	j	0x8000bf2c <.LBB17_13>

8000c064 <.LBB17_19>:
8000c064: 6f 00 40 00  	j	0x8000c068 <.LBB17_20>

8000c068 <.LBB17_20>:
8000c068: 03 24 82 ec  	lw	s0, -312(tp)
8000c06c: 83 23 c2 ec  	lw	t2, -308(tp)
8000c070: 13 03 00 00  	li	t1, 0
8000c074: 23 2e 61 00  	sw	t1, 28(sp)
8000c078: b7 02 f0 3f  	lui	t0, 261888
8000c07c: 57 40 04 5e  	<unknown>
8000c080: d7 c0 03 5e  	<unknown>
8000c084: 57 41 03 5e  	<unknown>
8000c088: d7 c1 02 5e  	<unknown>
8000c08c: ef 50 5f a0  	jal	0x80001a90 <__ltdf2>
8000c090: 03 23 c1 01  	lw	t1, 28(sp)
8000c094: 93 02 10 00  	li	t0, 1
8000c098: d7 40 03 5e  	<unknown>
8000c09c: 23 2c 51 00  	sw	t0, 24(sp)

8000c0a0 <.Lpcrel_hi42>:
8000c0a0: 17 03 00 00  	auipc	t1, 0
8000c0a4: 5b 30 83 09  	setrpc	zero, t1, 152
8000c0a8: 5b c8 00 08  	vblt	v0, v1, 0x8000c138 <.LBB17_24>
8000c0ac: 6f 00 40 00  	j	0x8000c0b0 <.LBB17_21>

8000c0b0 <.LBB17_21>:
8000c0b0: 03 24 82 ec  	lw	s0, -312(tp)
8000c0b4: 83 23 c2 ec  	lw	t2, -308(tp)
8000c0b8: 13 03 00 00  	li	t1, 0
8000c0bc: 23 22 61 02  	sw	t1, 36(sp)
8000c0c0: b7 02 f0 3f  	lui	t0, 261888
8000c0c4: 57 40 04 5e  	<unknown>
8000c0c8: d7 c0 03 5e  	<unknown>
8000c0cc: 57 41 03 5e  	<unknown>
8000c0d0: d7 c1 02 5e  	<unknown>
8000c0d4: ef 50 1f b0  	jal	0x80001bd4 <__nedf2>
8000c0d8: 03 23 41 02  	lw	t1, 36(sp)
8000c0dc: 93 02 03 00  	mv	t0, t1
8000c0e0: d7 40 03 5e  	<unknown>
8000c0e4: 23 20 51 02  	sw	t0, 32(sp)

8000c0e8 <.Lpcrel_hi43>:
8000c0e8: 17 03 00 00  	auipc	t1, 0
8000c0ec: 5b 30 03 04  	setrpc	zero, t1, 64
8000c0f0: 5b 9c 00 02  	vbne	v0, v1, 0x8000c128 <.LBB17_23>
8000c0f4: 6f 00 40 00  	j	0x8000c0f8 <.LBB17_22>

8000c0f8 <.LBB17_22>:
8000c0f8: 83 23 02 ed  	lw	t2, -304(tp)
8000c0fc: 03 23 42 ed  	lw	t1, -300(tp)
8000c100: 93 02 00 00  	li	t0, 0
8000c104: 57 c0 03 5e  	<unknown>
8000c108: d7 40 03 5e  	<unknown>
8000c10c: 57 c1 02 5e  	<unknown>
8000c110: d7 c1 02 5e  	<unknown>
8000c114: ef 50 df 97  	jal	0x80001a90 <__ltdf2>
8000c118: 57 b0 0f 76  	vmsle.vi	v0, v0, -1
8000c11c: d7 22 00 42  	vmv.x.s	t0, v0
8000c120: 23 20 51 02  	sw	t0, 32(sp)
8000c124: 6f 00 40 00  	j	0x8000c128 <.LBB17_23>

8000c128 <.LBB17_23>:
8000c128: 5b 20 00 00  	join	zero, zero, 0
8000c12c: 83 22 01 02  	lw	t0, 32(sp)
8000c130: 23 2c 51 00  	sw	t0, 24(sp)
8000c134: 6f 00 40 00  	j	0x8000c138 <.LBB17_24>

8000c138 <.LBB17_24>:
8000c138: 5b 20 00 00  	join	zero, zero, 0
8000c13c: 83 22 81 01  	lw	t0, 24(sp)
8000c140: 93 f2 12 00  	andi	t0, t0, 1
8000c144: 63 8c 02 04  	beqz	t0, 0x8000c19c <.LBB17_26>
8000c148: 6f 00 40 00  	j	0x8000c14c <.LBB17_25>

8000c14c <.LBB17_25>:
8000c14c: 83 22 02 ec  	lw	t0, -320(tp)
8000c150: 93 82 f2 ff  	addi	t0, t0, -1
8000c154: 23 20 52 ec  	sw	t0, -320(tp)
8000c158: 93 02 82 ec  	addi	t0, tp, -312
8000c15c: 57 c0 02 5e  	<unknown>
8000c160: ef d0 df d6  	jal	0x80009ecc <hp_mul10>
8000c164: 03 24 02 eb  	lw	s0, -336(tp)
8000c168: 83 23 42 eb  	lw	t2, -332(tp)
8000c16c: 13 03 00 00  	li	t1, 0
8000c170: b7 02 24 40  	lui	t0, 262720
8000c174: 57 40 04 5e  	<unknown>
8000c178: d7 c0 03 5e  	<unknown>
8000c17c: 57 41 03 5e  	<unknown>
8000c180: d7 c1 02 5e  	<unknown>
8000c184: ef 30 df f7  	jal	0x80000100 <__muldf3>
8000c188: 0b 20 80 00  	regext	zero, zero, 8
8000c18c: 7b 6a 10 ea  	vsw12.v	v1, -332(v0)
8000c190: 0b 20 80 00  	regext	zero, zero, 8
8000c194: 7b 68 00 ea  	vsw12.v	v0, -336(v0)
8000c198: 6f f0 1f ed  	j	0x8000c068 <.LBB17_20>

8000c19c <.LBB17_26>:
8000c19c: 83 22 82 ec  	lw	t0, -312(tp)
8000c1a0: 03 23 c2 ec  	lw	t1, -308(tp)
8000c1a4: 23 2e 62 ec  	sw	t1, -292(tp)
8000c1a8: 23 2c 52 ec  	sw	t0, -296(tp)
8000c1ac: 83 22 42 ed  	lw	t0, -300(tp)
8000c1b0: 23 2c 51 02  	sw	t0, 56(sp)
8000c1b4: 83 22 02 ed  	lw	t0, -304(tp)
8000c1b8: 23 2e 51 02  	sw	t0, 60(sp)
8000c1bc: 83 22 42 ea  	lw	t0, -348(tp)
8000c1c0: 03 23 02 ea  	lw	t1, -352(tp)
8000c1c4: 57 40 03 5e  	<unknown>
8000c1c8: d7 c0 02 5e  	<unknown>
8000c1cc: ef d0 5f ee  	jal	0x8000a0b0 <fpnext>
8000c1d0: 03 23 02 ea  	lw	t1, -352(tp)
8000c1d4: 83 22 42 ea  	lw	t0, -348(tp)
8000c1d8: 57 41 03 5e  	<unknown>
8000c1dc: d7 c1 02 5e  	<unknown>
8000c1e0: ef 60 1f a8  	jal	0x80002c60 <__subdf3>
8000c1e4: 03 23 82 eb  	lw	t1, -328(tp)
8000c1e8: 83 22 c2 eb  	lw	t0, -324(tp)
8000c1ec: 57 41 03 5e  	<unknown>
8000c1f0: d7 c1 02 5e  	<unknown>
8000c1f4: ef 30 df f0  	jal	0x80000100 <__muldf3>
8000c1f8: 03 23 02 eb  	lw	t1, -336(tp)
8000c1fc: 83 22 42 eb  	lw	t0, -332(tp)
8000c200: 57 41 03 5e  	<unknown>
8000c204: d7 c1 02 5e  	<unknown>
8000c208: ef 30 9f ef  	jal	0x80000100 <__muldf3>
8000c20c: 13 03 00 00  	li	t1, 0
8000c210: 23 2a 61 02  	sw	t1, 52(sp)
8000c214: b7 02 00 40  	lui	t0, 262144
8000c218: 23 28 51 02  	sw	t0, 48(sp)
8000c21c: 57 41 03 5e  	<unknown>
8000c220: d7 c1 02 5e  	<unknown>
8000c224: ef 40 9f 87  	jal	0x80000a9c <__divdf3>
8000c228: 03 23 c1 03  	lw	t1, 60(sp)
8000c22c: 83 22 81 03  	lw	t0, 56(sp)
8000c230: 57 41 00 02  	vadd.vx	v2, v0, zero
8000c234: d7 41 10 02  	vadd.vx	v3, v1, zero
8000c238: 57 40 03 5e  	<unknown>
8000c23c: d7 c0 02 5e  	<unknown>
8000c240: ef 50 9f fd  	jal	0x80002218 <__adddf3>
8000c244: 0b 20 80 00  	regext	zero, zero, 8
8000c248: 7b 62 10 ee  	vsw12.v	v1, -284(v0)
8000c24c: 0b 20 80 00  	regext	zero, zero, 8
8000c250: 7b 60 00 ee  	vsw12.v	v0, -288(v0)
8000c254: 83 22 82 ec  	lw	t0, -312(tp)
8000c258: 03 23 c2 ec  	lw	t1, -308(tp)
8000c25c: 23 26 62 ee  	sw	t1, -276(tp)
8000c260: 23 24 52 ee  	sw	t0, -280(tp)
8000c264: 83 22 42 ed  	lw	t0, -300(tp)
8000c268: 23 24 51 02  	sw	t0, 40(sp)
8000c26c: 83 22 02 ed  	lw	t0, -304(tp)
8000c270: 23 26 51 02  	sw	t0, 44(sp)
8000c274: 83 22 42 ea  	lw	t0, -348(tp)
8000c278: 03 23 02 ea  	lw	t1, -352(tp)
8000c27c: 57 40 03 5e  	<unknown>
8000c280: d7 c0 02 5e  	<unknown>
8000c284: ef d0 1f e9  	jal	0x8000a114 <fpprev>
8000c288: 03 23 02 ea  	lw	t1, -352(tp)
8000c28c: 83 22 42 ea  	lw	t0, -348(tp)
8000c290: 57 41 03 5e  	<unknown>
8000c294: d7 c1 02 5e  	<unknown>
8000c298: ef 60 9f 9c  	jal	0x80002c60 <__subdf3>
8000c29c: 03 23 82 eb  	lw	t1, -328(tp)
8000c2a0: 83 22 c2 eb  	lw	t0, -324(tp)
8000c2a4: 57 41 03 5e  	<unknown>
8000c2a8: d7 c1 02 5e  	<unknown>
8000c2ac: ef 30 5f e5  	jal	0x80000100 <__muldf3>
8000c2b0: 03 23 02 eb  	lw	t1, -336(tp)
8000c2b4: 83 22 42 eb  	lw	t0, -332(tp)
8000c2b8: 57 41 03 5e  	<unknown>
8000c2bc: d7 c1 02 5e  	<unknown>
8000c2c0: ef 30 1f e4  	jal	0x80000100 <__muldf3>
8000c2c4: 03 23 41 03  	lw	t1, 52(sp)
8000c2c8: 83 22 01 03  	lw	t0, 48(sp)
8000c2cc: 57 41 03 5e  	<unknown>
8000c2d0: d7 c1 02 5e  	<unknown>
8000c2d4: ef 40 8f fc  	jal	0x80000a9c <__divdf3>
8000c2d8: 03 23 c1 02  	lw	t1, 44(sp)
8000c2dc: 83 22 81 02  	lw	t0, 40(sp)
8000c2e0: 57 41 00 02  	vadd.vx	v2, v0, zero
8000c2e4: d7 41 10 02  	vadd.vx	v3, v1, zero
8000c2e8: 57 40 03 5e  	<unknown>
8000c2ec: d7 c0 02 5e  	<unknown>
8000c2f0: ef 50 9f f2  	jal	0x80002218 <__adddf3>
8000c2f4: 0b 20 80 00  	regext	zero, zero, 8
8000c2f8: 7b 6a 10 ee  	vsw12.v	v1, -268(v0)
8000c2fc: 0b 20 80 00  	regext	zero, zero, 8
8000c300: 7b 68 00 ee  	vsw12.v	v0, -272(v0)
8000c304: 93 02 82 ed  	addi	t0, tp, -296
8000c308: 57 c0 02 5e  	<unknown>
8000c30c: ef d0 df e6  	jal	0x8000a178 <hp_normalize>
8000c310: 93 02 82 ee  	addi	t0, tp, -280
8000c314: 57 c0 02 5e  	<unknown>
8000c318: ef d0 1f e6  	jal	0x8000a178 <hp_normalize>
8000c31c: 6f 00 40 00  	j	0x8000c320 <.LBB17_27>

8000c320 <.LBB17_27>:
8000c320: 03 24 82 ed  	lw	s0, -296(tp)
8000c324: 83 23 c2 ed  	lw	t2, -292(tp)
8000c328: 13 03 00 00  	li	t1, 0
8000c32c: 23 22 61 04  	sw	t1, 68(sp)
8000c330: b7 02 24 40  	lui	t0, 262720
8000c334: 57 40 04 5e  	<unknown>
8000c338: d7 c0 03 5e  	<unknown>
8000c33c: 57 41 03 5e  	<unknown>
8000c340: d7 c1 02 5e  	<unknown>
8000c344: ef 50 1f c6  	jal	0x80001fa4 <__gtdf2>
8000c348: 03 23 41 04  	lw	t1, 68(sp)
8000c34c: d7 40 00 02  	vadd.vx	v1, v0, zero
8000c350: 93 02 10 00  	li	t0, 1
8000c354: 57 40 03 5e  	<unknown>
8000c358: 23 20 51 04  	sw	t0, 64(sp)

8000c35c <.Lpcrel_hi44>:
8000c35c: 17 03 00 00  	auipc	t1, 0
8000c360: 5b 30 83 09  	setrpc	zero, t1, 152
8000c364: 5b c8 00 08  	vblt	v0, v1, 0x8000c3f4 <.LBB17_31>
8000c368: 6f 00 40 00  	j	0x8000c36c <.LBB17_28>

8000c36c <.LBB17_28>:
8000c36c: 03 24 82 ed  	lw	s0, -296(tp)
8000c370: 83 23 c2 ed  	lw	t2, -292(tp)
8000c374: 13 03 00 00  	li	t1, 0
8000c378: 23 26 61 04  	sw	t1, 76(sp)
8000c37c: b7 02 24 40  	lui	t0, 262720
8000c380: 57 40 04 5e  	<unknown>
8000c384: d7 c0 03 5e  	<unknown>
8000c388: 57 41 03 5e  	<unknown>
8000c38c: d7 c1 02 5e  	<unknown>
8000c390: ef 50 5f 84  	jal	0x80001bd4 <__nedf2>
8000c394: 03 23 c1 04  	lw	t1, 76(sp)
8000c398: 93 02 03 00  	mv	t0, t1
8000c39c: d7 40 03 5e  	<unknown>
8000c3a0: 23 24 51 04  	sw	t0, 72(sp)

8000c3a4 <.Lpcrel_hi45>:
8000c3a4: 17 03 00 00  	auipc	t1, 0
8000c3a8: 5b 30 03 04  	setrpc	zero, t1, 64
8000c3ac: 5b 9c 00 02  	vbne	v0, v1, 0x8000c3e4 <.LBB17_30>
8000c3b0: 6f 00 40 00  	j	0x8000c3b4 <.LBB17_29>

8000c3b4 <.LBB17_29>:
8000c3b4: 83 23 02 ee  	lw	t2, -288(tp)
8000c3b8: 03 23 42 ee  	lw	t1, -284(tp)
8000c3bc: 93 02 00 00  	li	t0, 0
8000c3c0: 57 c0 03 5e  	<unknown>
8000c3c4: d7 40 03 5e  	<unknown>
8000c3c8: 57 c1 02 5e  	<unknown>
8000c3cc: d7 c1 02 5e  	<unknown>
8000c3d0: ef 50 df a8  	jal	0x80001e5c <__gedf2>
8000c3d4: 57 30 00 7e  	vmsgt.vi	v0, v0, 0
8000c3d8: d7 22 00 42  	vmv.x.s	t0, v0
8000c3dc: 23 24 51 04  	sw	t0, 72(sp)
8000c3e0: 6f 00 40 00  	j	0x8000c3e4 <.LBB17_30>

8000c3e4 <.LBB17_30>:
8000c3e4: 5b 20 00 00  	join	zero, zero, 0
8000c3e8: 83 22 81 04  	lw	t0, 72(sp)
8000c3ec: 23 20 51 04  	sw	t0, 64(sp)
8000c3f0: 6f 00 40 00  	j	0x8000c3f4 <.LBB17_31>

8000c3f4 <.LBB17_31>:
8000c3f4: 5b 20 00 00  	join	zero, zero, 0
8000c3f8: 83 22 01 04  	lw	t0, 64(sp)
8000c3fc: 93 f2 12 00  	andi	t0, t0, 1
8000c400: 63 88 02 02  	beqz	t0, 0x8000c430 <.LBB17_33>
8000c404: 6f 00 40 00  	j	0x8000c408 <.LBB17_32>

8000c408 <.LBB17_32>:
8000c408: 83 22 02 ec  	lw	t0, -320(tp)
8000c40c: 93 82 12 00  	addi	t0, t0, 1
8000c410: 23 20 52 ec  	sw	t0, -320(tp)
8000c414: 93 02 82 ed  	addi	t0, tp, -296
8000c418: 57 c0 02 5e  	<unknown>
8000c41c: ef d0 df 8b  	jal	0x80009cd8 <hp_div10>
8000c420: 93 02 82 ee  	addi	t0, tp, -280
8000c424: 57 c0 02 5e  	<unknown>
8000c428: ef d0 1f 8b  	jal	0x80009cd8 <hp_div10>
8000c42c: 6f f0 5f ef  	j	0x8000c320 <.LBB17_27>

8000c430 <.LBB17_33>:
8000c430: 6f 00 40 00  	j	0x8000c434 <.LBB17_34>

8000c434 <.LBB17_34>:
8000c434: 03 24 82 ed  	lw	s0, -296(tp)
8000c438: 83 23 c2 ed  	lw	t2, -292(tp)
8000c43c: 13 03 00 00  	li	t1, 0
8000c440: 23 2a 61 04  	sw	t1, 84(sp)
8000c444: b7 02 f0 3f  	lui	t0, 261888
8000c448: 57 40 04 5e  	<unknown>
8000c44c: d7 c0 03 5e  	<unknown>
8000c450: 57 41 03 5e  	<unknown>
8000c454: d7 c1 02 5e  	<unknown>
8000c458: ef 50 8f e3  	jal	0x80001a90 <__ltdf2>
8000c45c: 03 23 41 05  	lw	t1, 84(sp)
8000c460: 93 02 10 00  	li	t0, 1
8000c464: d7 40 03 5e  	<unknown>
8000c468: 23 28 51 04  	sw	t0, 80(sp)

8000c46c <.Lpcrel_hi46>:
8000c46c: 17 03 00 00  	auipc	t1, 0
8000c470: 5b 30 83 09  	setrpc	zero, t1, 152
8000c474: 5b c8 00 08  	vblt	v0, v1, 0x8000c504 <.LBB17_38>
8000c478: 6f 00 40 00  	j	0x8000c47c <.LBB17_35>

8000c47c <.LBB17_35>:
8000c47c: 03 24 82 ed  	lw	s0, -296(tp)
8000c480: 83 23 c2 ed  	lw	t2, -292(tp)
8000c484: 13 03 00 00  	li	t1, 0
8000c488: 23 2e 61 04  	sw	t1, 92(sp)
8000c48c: b7 02 f0 3f  	lui	t0, 261888
8000c490: 57 40 04 5e  	<unknown>
8000c494: d7 c0 03 5e  	<unknown>
8000c498: 57 41 03 5e  	<unknown>
8000c49c: d7 c1 02 5e  	<unknown>
8000c4a0: ef 50 4f f3  	jal	0x80001bd4 <__nedf2>
8000c4a4: 03 23 c1 05  	lw	t1, 92(sp)
8000c4a8: 93 02 03 00  	mv	t0, t1
8000c4ac: d7 40 03 5e  	<unknown>
8000c4b0: 23 2c 51 04  	sw	t0, 88(sp)

8000c4b4 <.Lpcrel_hi47>:
8000c4b4: 17 03 00 00  	auipc	t1, 0
8000c4b8: 5b 30 03 04  	setrpc	zero, t1, 64
8000c4bc: 5b 9c 00 02  	vbne	v0, v1, 0x8000c4f4 <.LBB17_37>
8000c4c0: 6f 00 40 00  	j	0x8000c4c4 <.LBB17_36>

8000c4c4 <.LBB17_36>:
8000c4c4: 83 23 02 ee  	lw	t2, -288(tp)
8000c4c8: 03 23 42 ee  	lw	t1, -284(tp)
8000c4cc: 93 02 00 00  	li	t0, 0
8000c4d0: 57 c0 03 5e  	<unknown>
8000c4d4: d7 40 03 5e  	<unknown>
8000c4d8: 57 c1 02 5e  	<unknown>
8000c4dc: d7 c1 02 5e  	<unknown>
8000c4e0: ef 50 0f db  	jal	0x80001a90 <__ltdf2>
8000c4e4: 57 b0 0f 76  	vmsle.vi	v0, v0, -1
8000c4e8: d7 22 00 42  	vmv.x.s	t0, v0
8000c4ec: 23 2c 51 04  	sw	t0, 88(sp)
8000c4f0: 6f 00 40 00  	j	0x8000c4f4 <.LBB17_37>

8000c4f4 <.LBB17_37>:
8000c4f4: 5b 20 00 00  	join	zero, zero, 0
8000c4f8: 83 22 81 05  	lw	t0, 88(sp)
8000c4fc: 23 28 51 04  	sw	t0, 80(sp)
8000c500: 6f 00 40 00  	j	0x8000c504 <.LBB17_38>

8000c504 <.LBB17_38>:
8000c504: 5b 20 00 00  	join	zero, zero, 0
8000c508: 83 22 01 05  	lw	t0, 80(sp)
8000c50c: 93 f2 12 00  	andi	t0, t0, 1
8000c510: 63 88 02 02  	beqz	t0, 0x8000c540 <.LBB17_40>
8000c514: 6f 00 40 00  	j	0x8000c518 <.LBB17_39>

8000c518 <.LBB17_39>:
8000c518: 83 22 02 ec  	lw	t0, -320(tp)
8000c51c: 93 82 f2 ff  	addi	t0, t0, -1
8000c520: 23 20 52 ec  	sw	t0, -320(tp)
8000c524: 93 02 82 ed  	addi	t0, tp, -296
8000c528: 57 c0 02 5e  	<unknown>
8000c52c: ef d0 1f 9a  	jal	0x80009ecc <hp_mul10>
8000c530: 93 02 82 ee  	addi	t0, tp, -280
8000c534: 57 c0 02 5e  	<unknown>
8000c538: ef d0 5f 99  	jal	0x80009ecc <hp_mul10>
8000c53c: 6f f0 9f ef  	j	0x8000c434 <.LBB17_34>

8000c540 <.LBB17_40>:
8000c540: 6f 00 40 00  	j	0x8000c544 <.LBB17_41>

8000c544 <.LBB17_41>:
8000c544: 03 23 82 ed  	lw	t1, -296(tp)
8000c548: 83 22 c2 ed  	lw	t0, -292(tp)
8000c54c: 57 40 03 5e  	<unknown>
8000c550: d7 c0 02 5e  	<unknown>
8000c554: ef 50 cf 9d  	jal	0x80001730 <__fixunsdfsi>
8000c558: fb 74 02 f0  	vsb12.v	v0, -247(v4)
8000c55c: 83 22 82 ed  	lw	t0, -296(tp)
8000c560: 23 22 51 06  	sw	t0, 100(sp)
8000c564: 83 22 c2 ed  	lw	t0, -292(tp)
8000c568: 23 20 51 06  	sw	t0, 96(sp)
8000c56c: 83 02 92 f0  	lb	t0, -247(tp)
8000c570: 57 c0 02 5e  	<unknown>
8000c574: ef 50 9f b7  	jal	0x800020ec <__floatsidf>
8000c578: 03 23 41 06  	lw	t1, 100(sp)
8000c57c: 83 22 01 06  	lw	t0, 96(sp)
8000c580: 57 41 00 02  	vadd.vx	v2, v0, zero
8000c584: d7 41 10 02  	vadd.vx	v3, v1, zero
8000c588: 57 40 03 5e  	<unknown>
8000c58c: d7 c0 02 5e  	<unknown>
8000c590: ef 50 4f e4  	jal	0x80001bd4 <__nedf2>
8000c594: 93 02 00 00  	li	t0, 0
8000c598: d7 c0 02 5e  	<unknown>

8000c59c <.Lpcrel_hi48>:
8000c59c: 17 03 00 00  	auipc	t1, 0
8000c5a0: 5b 30 03 06  	setrpc	zero, t1, 96
8000c5a4: 5b 9c 00 04  	vbne	v0, v1, 0x8000c5fc <.LBB17_44>
8000c5a8: 6f 00 40 00  	j	0x8000c5ac <.LBB17_42>

8000c5ac <.LBB17_42>:
8000c5ac: 83 23 02 ee  	lw	t2, -288(tp)
8000c5b0: 03 23 42 ee  	lw	t1, -284(tp)
8000c5b4: 93 02 00 00  	li	t0, 0
8000c5b8: 23 24 51 06  	sw	t0, 104(sp)
8000c5bc: 57 c0 03 5e  	<unknown>
8000c5c0: d7 40 03 5e  	<unknown>
8000c5c4: 57 c1 02 5e  	<unknown>
8000c5c8: d7 c1 02 5e  	<unknown>
8000c5cc: ef 50 4f cc  	jal	0x80001a90 <__ltdf2>
8000c5d0: 83 22 81 06  	lw	t0, 104(sp)
8000c5d4: d7 c0 02 5e  	<unknown>

8000c5d8 <.Lpcrel_hi49>:
8000c5d8: 17 03 00 00  	auipc	t1, 0
8000c5dc: 5b 30 43 02  	setrpc	zero, t1, 36
8000c5e0: 5b de 00 00  	vbge	v0, v1, 0x8000c5fc <.LBB17_44>
8000c5e4: 6f 00 40 00  	j	0x8000c5e8 <.LBB17_43>

8000c5e8 <.LBB17_43>:
8000c5e8: 83 02 92 f0  	lb	t0, -247(tp)
8000c5ec: 13 03 10 00  	li	t1, 1
8000c5f0: b3 82 62 40  	sub	t0, t0, t1
8000c5f4: a3 04 52 f0  	sb	t0, -247(tp)
8000c5f8: 6f 00 40 00  	j	0x8000c5fc <.LBB17_44>

8000c5fc <.LBB17_44>:
8000c5fc: 5b 20 00 00  	join	zero, zero, 0
8000c600: 03 23 82 ee  	lw	t1, -280(tp)
8000c604: 83 22 c2 ee  	lw	t0, -276(tp)
8000c608: 57 40 03 5e  	<unknown>
8000c60c: d7 c0 02 5e  	<unknown>
8000c610: ef 50 0f 92  	jal	0x80001730 <__fixunsdfsi>
8000c614: 7b 74 02 f0  	vsb12.v	v0, -248(v4)
8000c618: 83 22 82 ee  	lw	t0, -280(tp)
8000c61c: 23 28 51 06  	sw	t0, 112(sp)
8000c620: 83 22 c2 ee  	lw	t0, -276(tp)
8000c624: 23 26 51 06  	sw	t0, 108(sp)
8000c628: 83 02 82 f0  	lb	t0, -248(tp)
8000c62c: 57 c0 02 5e  	<unknown>
8000c630: ef 50 df ab  	jal	0x800020ec <__floatsidf>
8000c634: 03 23 01 07  	lw	t1, 112(sp)
8000c638: 83 22 c1 06  	lw	t0, 108(sp)
8000c63c: 57 41 00 02  	vadd.vx	v2, v0, zero
8000c640: d7 41 10 02  	vadd.vx	v3, v1, zero
8000c644: 57 40 03 5e  	<unknown>
8000c648: d7 c0 02 5e  	<unknown>
8000c64c: ef 50 8f d8  	jal	0x80001bd4 <__nedf2>
8000c650: 93 02 00 00  	li	t0, 0
8000c654: d7 c0 02 5e  	<unknown>

8000c658 <.Lpcrel_hi50>:
8000c658: 17 03 00 00  	auipc	t1, 0
8000c65c: 5b 30 03 06  	setrpc	zero, t1, 96
8000c660: 5b 9c 00 04  	vbne	v0, v1, 0x8000c6b8 <.LBB17_47>
8000c664: 6f 00 40 00  	j	0x8000c668 <.LBB17_45>

8000c668 <.LBB17_45>:
8000c668: 83 23 02 ef  	lw	t2, -272(tp)
8000c66c: 03 23 42 ef  	lw	t1, -268(tp)
8000c670: 93 02 00 00  	li	t0, 0
8000c674: 23 2a 51 06  	sw	t0, 116(sp)
8000c678: 57 c0 03 5e  	<unknown>
8000c67c: d7 40 03 5e  	<unknown>
8000c680: 57 c1 02 5e  	<unknown>
8000c684: d7 c1 02 5e  	<unknown>
8000c688: ef 50 8f c0  	jal	0x80001a90 <__ltdf2>
8000c68c: 83 22 41 07  	lw	t0, 116(sp)
8000c690: d7 c0 02 5e  	<unknown>

8000c694 <.Lpcrel_hi51>:
8000c694: 17 03 00 00  	auipc	t1, 0
8000c698: 5b 30 43 02  	setrpc	zero, t1, 36
8000c69c: 5b de 00 00  	vbge	v0, v1, 0x8000c6b8 <.LBB17_47>
8000c6a0: 6f 00 40 00  	j	0x8000c6a4 <.LBB17_46>

8000c6a4 <.LBB17_46>:
8000c6a4: 83 02 82 f0  	lb	t0, -248(tp)
8000c6a8: 13 03 10 00  	li	t1, 1
8000c6ac: b3 82 62 40  	sub	t0, t0, t1
8000c6b0: 23 04 52 f0  	sb	t0, -248(tp)
8000c6b4: 6f 00 40 00  	j	0x8000c6b8 <.LBB17_47>

8000c6b8 <.LBB17_47>:
8000c6b8: 5b 20 00 00  	join	zero, zero, 0
8000c6bc: 83 02 82 f0  	lb	t0, -248(tp)
8000c6c0: 03 03 92 f0  	lb	t1, -247(tp)
8000c6c4: 63 86 62 00  	beq	t0, t1, 0x8000c6d0 <.LBB17_49>
8000c6c8: 6f 00 40 00  	j	0x8000c6cc <.LBB17_48>

8000c6cc <.LBB17_48>:
8000c6cc: 6f 00 80 0a  	j	0x8000c774 <.LBB17_50>

8000c6d0 <.LBB17_49>:
8000c6d0: 83 02 92 f0  	lb	t0, -247(tp)
8000c6d4: 93 82 02 03  	addi	t0, t0, 48
8000c6d8: 03 23 82 ea  	lw	t1, -344(tp)
8000c6dc: 93 03 13 00  	addi	t2, t1, 1
8000c6e0: 23 24 72 ea  	sw	t2, -344(tp)
8000c6e4: 23 00 53 00  	sb	t0, 0(t1)
8000c6e8: 83 02 92 f0  	lb	t0, -247(tp)
8000c6ec: 57 c0 02 5e  	<unknown>
8000c6f0: ef 50 df 9f  	jal	0x800020ec <__floatsidf>
8000c6f4: 57 41 00 02  	vadd.vx	v2, v0, zero
8000c6f8: d7 41 10 02  	vadd.vx	v3, v1, zero
8000c6fc: 03 23 82 ed  	lw	t1, -296(tp)
8000c700: 83 22 c2 ed  	lw	t0, -292(tp)
8000c704: 57 40 03 5e  	<unknown>
8000c708: d7 c0 02 5e  	<unknown>
8000c70c: ef 60 4f d5  	jal	0x80002c60 <__subdf3>
8000c710: 0b 20 80 00  	regext	zero, zero, 8
8000c714: 7b 6e 10 ec  	vsw12.v	v1, -292(v0)
8000c718: 0b 20 80 00  	regext	zero, zero, 8
8000c71c: 7b 6c 00 ec  	vsw12.v	v0, -296(v0)
8000c720: 83 02 82 f0  	lb	t0, -248(tp)
8000c724: 57 c0 02 5e  	<unknown>
8000c728: ef 50 5f 9c  	jal	0x800020ec <__floatsidf>
8000c72c: 57 41 00 02  	vadd.vx	v2, v0, zero
8000c730: d7 41 10 02  	vadd.vx	v3, v1, zero
8000c734: 03 23 82 ee  	lw	t1, -280(tp)
8000c738: 83 22 c2 ee  	lw	t0, -276(tp)
8000c73c: 57 40 03 5e  	<unknown>
8000c740: d7 c0 02 5e  	<unknown>
8000c744: ef 60 cf d1  	jal	0x80002c60 <__subdf3>
8000c748: 0b 20 80 00  	regext	zero, zero, 8
8000c74c: 7b 66 10 ee  	vsw12.v	v1, -276(v0)
8000c750: 0b 20 80 00  	regext	zero, zero, 8
8000c754: 7b 64 00 ee  	vsw12.v	v0, -280(v0)
8000c758: 93 02 82 ed  	addi	t0, tp, -296
8000c75c: 57 c0 02 5e  	<unknown>
8000c760: ef d0 cf f6  	jal	0x80009ecc <hp_mul10>
8000c764: 93 02 82 ee  	addi	t0, tp, -280
8000c768: 57 c0 02 5e  	<unknown>
8000c76c: ef d0 0f f6  	jal	0x80009ecc <hp_mul10>
8000c770: 6f f0 5f dd  	j	0x8000c544 <.LBB17_41>

8000c774 <.LBB17_50>:
8000c774: 03 24 82 ed  	lw	s0, -296(tp)
8000c778: 83 23 c2 ed  	lw	t2, -292(tp)
8000c77c: 03 23 82 ee  	lw	t1, -280(tp)
8000c780: 83 22 c2 ee  	lw	t0, -276(tp)
8000c784: 57 40 04 5e  	<unknown>
8000c788: d7 c0 03 5e  	<unknown>
8000c78c: 57 41 03 5e  	<unknown>
8000c790: d7 c1 02 5e  	<unknown>
8000c794: ef 50 5f a8  	jal	0x80002218 <__adddf3>
8000c798: 13 03 00 00  	li	t1, 0
8000c79c: 23 2c 61 06  	sw	t1, 120(sp)
8000c7a0: b7 02 00 40  	lui	t0, 262144
8000c7a4: 57 41 03 5e  	<unknown>
8000c7a8: d7 c1 02 5e  	<unknown>
8000c7ac: ef 40 0f af  	jal	0x80000a9c <__divdf3>
8000c7b0: 03 23 81 07  	lw	t1, 120(sp)
8000c7b4: 0b 20 80 00  	regext	zero, zero, 8
8000c7b8: 7b 6a 10 f0  	vsw12.v	v1, -236(v0)
8000c7bc: 0b 20 80 00  	regext	zero, zero, 8
8000c7c0: 7b 68 00 f0  	vsw12.v	v0, -240(v0)
8000c7c4: 03 24 02 f1  	lw	s0, -240(tp)
8000c7c8: 83 23 42 f1  	lw	t2, -236(tp)
8000c7cc: b7 02 e0 3f  	lui	t0, 261632
8000c7d0: 23 2e 51 06  	sw	t0, 124(sp)
8000c7d4: 57 40 04 5e  	<unknown>
8000c7d8: d7 c0 03 5e  	<unknown>
8000c7dc: 57 41 03 5e  	<unknown>
8000c7e0: d7 c1 02 5e  	<unknown>
8000c7e4: ef 50 5f a3  	jal	0x80002218 <__adddf3>
8000c7e8: ef 40 9f f4  	jal	0x80001730 <__fixunsdfsi>
8000c7ec: 7b 7c 02 f0  	vsb12.v	v0, -232(v4)
8000c7f0: 83 42 82 f1  	lbu	t0, -232(tp)
8000c7f4: 57 c0 02 5e  	<unknown>
8000c7f8: ef 50 5f 8f  	jal	0x800020ec <__floatsidf>
8000c7fc: 03 23 02 f1  	lw	t1, -240(tp)
8000c800: 83 22 42 f1  	lw	t0, -236(tp)
8000c804: 57 41 03 5e  	<unknown>
8000c808: d7 c1 02 5e  	<unknown>
8000c80c: ef 60 4f c5  	jal	0x80002c60 <__subdf3>
8000c810: 83 22 c1 07  	lw	t0, 124(sp)
8000c814: 03 23 81 07  	lw	t1, 120(sp)
8000c818: 57 41 03 5e  	<unknown>
8000c81c: d7 c1 02 5e  	<unknown>
8000c820: ef 50 4f bb  	jal	0x80001bd4 <__nedf2>
8000c824: 83 22 81 07  	lw	t0, 120(sp)
8000c828: d7 c0 02 5e  	<unknown>

8000c82c <.Lpcrel_hi52>:
8000c82c: 17 03 00 00  	auipc	t1, 0
8000c830: 5b 30 03 03  	setrpc	zero, t1, 48
8000c834: 5b 94 00 02  	vbne	v0, v1, 0x8000c85c <.LBB17_53>
8000c838: 6f 00 40 00  	j	0x8000c83c <.LBB17_51>

8000c83c <.LBB17_51>:
8000c83c: 83 42 82 f1  	lbu	t0, -232(tp)
8000c840: 93 f2 12 00  	andi	t0, t0, 1
8000c844: 63 8c 02 00  	beqz	t0, 0x8000c85c <.LBB17_53>
8000c848: 6f 00 40 00  	j	0x8000c84c <.LBB17_52>

8000c84c <.LBB17_52>:
8000c84c: 83 02 82 f1  	lb	t0, -232(tp)
8000c850: 93 82 f2 ff  	addi	t0, t0, -1
8000c854: 23 0c 52 f0  	sb	t0, -232(tp)
8000c858: 6f 00 40 00  	j	0x8000c85c <.LBB17_53>

8000c85c <.LBB17_53>:
8000c85c: 5b 20 00 00  	join	zero, zero, 0
8000c860: 83 02 82 f1  	lb	t0, -232(tp)
8000c864: 93 82 02 03  	addi	t0, t0, 48
8000c868: 03 23 82 ea  	lw	t1, -344(tp)
8000c86c: 93 03 13 00  	addi	t2, t1, 1
8000c870: 23 24 72 ea  	sw	t2, -344(tp)
8000c874: 23 00 53 00  	sb	t0, 0(t1)
8000c878: 03 23 82 ea  	lw	t1, -344(tp)
8000c87c: 93 02 00 00  	li	t0, 0
8000c880: 23 00 53 00  	sb	t0, 0(t1)
8000c884: 83 22 02 ec  	lw	t0, -320(tp)
8000c888: 23 2e 52 e8  	sw	t0, -356(tp)
8000c88c: 6f 00 40 00  	j	0x8000c890 <.LBB17_54>

8000c890 <.LBB17_54>:
8000c890: 5b 20 00 00  	join	zero, zero, 0
8000c894: 83 22 c2 e9  	lw	t0, -356(tp)
8000c898: 57 c0 02 5e  	<unknown>
8000c89c: 83 20 41 f7  	lw	ra, -140(sp)
8000c8a0: 0b c0 00 04  	barrier	x0, x0, 1
8000c8a4: 13 01 41 f7  	addi	sp, sp, -140
8000c8a8: 13 02 42 f2  	addi	tp, tp, -220
8000c8ac: 67 80 00 00  	ret

8000c8b0 <errol_int>:
8000c8b0: 13 01 81 02  	addi	sp, sp, 40
8000c8b4: 13 02 02 06  	addi	tp, tp, 96
8000c8b8: 0b 20 10 00  	regext	zero, zero, 1
8000c8bc: 57 40 02 5e  	<unknown>
8000c8c0: 23 2c 11 fc  	sw	ra, -40(sp)
8000c8c4: 0b 20 80 00  	regext	zero, zero, 8
8000c8c8: 7b 62 10 f8  	vsw12.v	v1, -124(v0)
8000c8cc: 0b 20 80 00  	regext	zero, zero, 8
8000c8d0: 7b 60 00 f8  	vsw12.v	v0, -128(v0)
8000c8d4: 0b 20 80 00  	regext	zero, zero, 8
8000c8d8: 7b 64 20 f8  	vsw12.v	v2, -120(v0)
8000c8dc: 03 23 02 f8  	lw	t1, -128(tp)
8000c8e0: 83 22 42 f8  	lw	t0, -124(tp)
8000c8e4: 57 40 03 5e  	<unknown>
8000c8e8: d7 c0 02 5e  	<unknown>
8000c8ec: ef 40 1f f5  	jal	0x8000183c <__fixdfsi>
8000c8f0: 0b 20 80 00  	regext	zero, zero, 8
8000c8f4: 7b 6e 00 f8  	vsw12.v	v0, -100(v0)
8000c8f8: 83 22 c2 f9  	lw	t0, -100(tp)
8000c8fc: 23 22 51 04  	sw	t0, 68(sp)
8000c900: 83 22 42 f8  	lw	t0, -124(tp)
8000c904: 03 23 02 f8  	lw	t1, -128(tp)
8000c908: 57 40 03 5e  	<unknown>
8000c90c: d7 c0 02 5e  	<unknown>
8000c910: ef d0 0f fa  	jal	0x8000a0b0 <fpnext>
8000c914: 03 23 02 f8  	lw	t1, -128(tp)
8000c918: 83 22 42 f8  	lw	t0, -124(tp)
8000c91c: 57 41 03 5e  	<unknown>
8000c920: d7 c1 02 5e  	<unknown>
8000c924: ef 60 cf b3  	jal	0x80002c60 <__subdf3>
8000c928: 13 03 00 00  	li	t1, 0
8000c92c: 23 2c 61 02  	sw	t1, 56(sp)
8000c930: b7 02 00 40  	lui	t0, 262144
8000c934: 23 2a 51 02  	sw	t0, 52(sp)
8000c938: 57 41 03 5e  	<unknown>
8000c93c: d7 c1 02 5e  	<unknown>
8000c940: ef 40 cf 95  	jal	0x80000a9c <__divdf3>
8000c944: ef f0 8f 87  	jal	0x8000b9bc <fpeint>
8000c948: 83 22 41 04  	lw	t0, 68(sp)
8000c94c: d7 40 00 02  	vadd.vx	v1, v0, zero
8000c950: 57 c0 02 5e  	<unknown>
8000c954: 57 80 00 0a  	vsub.vv	v0, v0, v1
8000c958: 0b 20 80 00  	regext	zero, zero, 8
8000c95c: 7b 6c 00 f8  	vsw12.v	v0, -104(v0)
8000c960: 83 22 c2 f9  	lw	t0, -100(tp)
8000c964: 23 28 51 02  	sw	t0, 48(sp)
8000c968: 83 22 42 f8  	lw	t0, -124(tp)
8000c96c: 23 2e 51 02  	sw	t0, 60(sp)
8000c970: 03 23 02 f8  	lw	t1, -128(tp)
8000c974: 23 20 61 04  	sw	t1, 64(sp)
8000c978: 57 40 03 5e  	<unknown>
8000c97c: d7 c0 02 5e  	<unknown>
8000c980: ef d0 4f f9  	jal	0x8000a114 <fpprev>
8000c984: 03 23 01 04  	lw	t1, 64(sp)
8000c988: 83 22 c1 03  	lw	t0, 60(sp)
8000c98c: 57 41 00 02  	vadd.vx	v2, v0, zero
8000c990: d7 41 10 02  	vadd.vx	v3, v1, zero
8000c994: 57 40 03 5e  	<unknown>
8000c998: d7 c0 02 5e  	<unknown>
8000c99c: ef 60 4f ac  	jal	0x80002c60 <__subdf3>
8000c9a0: 03 23 81 03  	lw	t1, 56(sp)
8000c9a4: 83 22 41 03  	lw	t0, 52(sp)
8000c9a8: 57 41 03 5e  	<unknown>
8000c9ac: d7 c1 02 5e  	<unknown>
8000c9b0: ef 40 cf 8e  	jal	0x80000a9c <__divdf3>
8000c9b4: ef f0 8f 80  	jal	0x8000b9bc <fpeint>
8000c9b8: 83 22 01 03  	lw	t0, 48(sp)
8000c9bc: 57 c0 02 02  	vadd.vx	v0, v0, t0
8000c9c0: 0b 20 80 00  	regext	zero, zero, 8
8000c9c4: 7b 60 00 fa  	vsw12.v	v0, -96(v0)
8000c9c8: 83 22 02 f8  	lw	t0, -128(tp)
8000c9cc: 03 23 42 f8  	lw	t1, -124(tp)
8000c9d0: 23 2a 62 f8  	sw	t1, -108(tp)
8000c9d4: 23 28 52 f8  	sw	t0, -112(tp)
8000c9d8: 83 42 02 f9  	lbu	t0, -112(tp)
8000c9dc: 93 f2 12 00  	andi	t0, t0, 1
8000c9e0: 63 8c 02 00  	beqz	t0, 0x8000c9f8 <.LBB18_2>
8000c9e4: 6f 00 40 00  	j	0x8000c9e8 <.LBB18_1>

8000c9e8 <.LBB18_1>:
8000c9e8: 83 22 02 fa  	lw	t0, -96(tp)
8000c9ec: 93 82 f2 ff  	addi	t0, t0, -1
8000c9f0: 23 20 52 fa  	sw	t0, -96(tp)
8000c9f4: 6f 00 40 01  	j	0x8000ca08 <.LBB18_3>

8000c9f8 <.LBB18_2>:
8000c9f8: 83 22 82 f9  	lw	t0, -104(tp)
8000c9fc: 93 82 f2 ff  	addi	t0, t0, -1
8000ca00: 23 2c 52 f8  	sw	t0, -104(tp)
8000ca04: 6f 00 40 00  	j	0x8000ca08 <.LBB18_3>

8000ca08 <.LBB18_3>:
8000ca08: 83 23 82 f9  	lw	t2, -104(tp)
8000ca0c: b7 82 01 80  	lui	t0, 524312
8000ca10: 23 26 51 04  	sw	t0, 76(sp)
8000ca14: 03 a3 82 25  	lw	t1, 600(t0)
8000ca18: 93 02 42 fa  	addi	t0, tp, -92
8000ca1c: 23 28 51 04  	sw	t0, 80(sp)
8000ca20: 57 c0 03 5e  	<unknown>
8000ca24: d7 40 03 5e  	<unknown>
8000ca28: 57 c1 02 5e  	<unknown>
8000ca2c: ef c0 8f 99  	jal	0x80008bc4 <__udivmodti4>
8000ca30: 83 22 c1 04  	lw	t0, 76(sp)
8000ca34: 03 a3 82 25  	lw	t1, 600(t0)
8000ca38: 93 02 82 fa  	addi	t0, tp, -88
8000ca3c: 23 24 51 04  	sw	t0, 72(sp)
8000ca40: d7 40 03 5e  	<unknown>
8000ca44: 57 c1 02 5e  	<unknown>
8000ca48: ef c0 cf 97  	jal	0x80008bc4 <__udivmodti4>
8000ca4c: 83 22 01 05  	lw	t0, 80(sp)
8000ca50: 03 23 c1 04  	lw	t1, 76(sp)
8000ca54: 83 23 42 fa  	lw	t2, -92(tp)
8000ca58: 23 26 72 fa  	sw	t2, -84(tp)
8000ca5c: 83 23 82 fa  	lw	t2, -88(tp)
8000ca60: 23 28 72 fa  	sw	t2, -80(tp)
8000ca64: 83 23 02 fa  	lw	t2, -96(tp)
8000ca68: 03 23 83 25  	lw	t1, 600(t1)
8000ca6c: 57 c0 03 5e  	<unknown>
8000ca70: d7 40 03 5e  	<unknown>
8000ca74: 57 c1 02 5e  	<unknown>
8000ca78: ef c0 cf 94  	jal	0x80008bc4 <__udivmodti4>
8000ca7c: 03 23 c1 04  	lw	t1, 76(sp)
8000ca80: 83 22 81 04  	lw	t0, 72(sp)
8000ca84: 03 23 83 25  	lw	t1, 600(t1)
8000ca88: d7 40 03 5e  	<unknown>
8000ca8c: 57 c1 02 5e  	<unknown>
8000ca90: ef c0 4f 93  	jal	0x80008bc4 <__udivmodti4>
8000ca94: 83 22 42 fa  	lw	t0, -92(tp)
8000ca98: 23 2a 52 fa  	sw	t0, -76(tp)
8000ca9c: 83 22 82 fa  	lw	t0, -88(tp)
8000caa0: 23 2c 52 fa  	sw	t0, -72(tp)
8000caa4: 83 22 02 fb  	lw	t0, -80(tp)
8000caa8: 03 23 82 fb  	lw	t1, -72(tp)
8000caac: 63 8e 62 04  	beq	t0, t1, 0x8000cb08 <.LBB18_5>
8000cab0: 6f 00 40 00  	j	0x8000cab4 <.LBB18_4>

8000cab4 <.LBB18_4>:
8000cab4: 83 22 02 fb  	lw	t0, -80(tp)
8000cab8: 23 26 52 fa  	sw	t0, -84(tp)
8000cabc: 83 22 82 fb  	lw	t0, -72(tp)
8000cac0: 23 2a 52 fa  	sw	t0, -76(tp)
8000cac4: 83 23 c2 f9  	lw	t2, -100(tp)
8000cac8: b7 82 01 80  	lui	t0, 524312
8000cacc: 83 a2 82 25  	lw	t0, 600(t0)
8000cad0: 37 63 66 66  	lui	t1, 419430
8000cad4: 13 03 73 66  	addi	t1, t1, 1639
8000cad8: b3 92 62 02  	mulh	t0, t0, t1
8000cadc: 13 d3 f2 01  	srli	t1, t0, 31
8000cae0: 93 d2 22 40  	srai	t0, t0, 2
8000cae4: 33 83 62 00  	add	t1, t0, t1
8000cae8: 93 02 00 00  	li	t0, 0
8000caec: 57 c0 03 5e  	<unknown>
8000caf0: d7 40 03 5e  	<unknown>
8000caf4: 57 c1 02 5e  	<unknown>
8000caf8: ef c0 cf 8c  	jal	0x80008bc4 <__udivmodti4>
8000cafc: 0b 20 80 00  	regext	zero, zero, 8
8000cb00: 7b 6e 00 f8  	vsw12.v	v0, -100(v0)
8000cb04: 6f 00 40 00  	j	0x8000cb08 <.LBB18_5>

8000cb08 <.LBB18_5>:
8000cb08: 03 23 c2 fa  	lw	t1, -84(tp)
8000cb0c: 83 22 42 fb  	lw	t0, -76(tp)
8000cb10: 57 40 03 5e  	<unknown>
8000cb14: d7 c0 02 5e  	<unknown>
8000cb18: ef 00 d0 7e  	jal	0x8000db04 <mismatch10>
8000cb1c: 0b 20 80 00  	regext	zero, zero, 8
8000cb20: 7b 6e 00 fa  	vsw12.v	v0, -68(v0)
8000cb24: 93 02 10 00  	li	t0, 1
8000cb28: 23 20 52 fc  	sw	t0, -64(tp)
8000cb2c: 83 22 02 fb  	lw	t0, -80(tp)
8000cb30: 03 23 82 fb  	lw	t1, -72(tp)
8000cb34: b3 c2 62 00  	xor	t0, t0, t1
8000cb38: 93 b2 12 00  	seqz	t0, t0
8000cb3c: 23 22 52 fc  	sw	t0, -60(tp)
8000cb40: 6f 00 40 00  	j	0x8000cb44 <.LBB18_6>

8000cb44 <.LBB18_6>:
8000cb44: 83 22 42 fc  	lw	t0, -60(tp)
8000cb48: 03 23 c2 fb  	lw	t1, -68(tp)
8000cb4c: 63 d6 62 02  	bge	t0, t1, 0x8000cb78 <.LBB18_9>
8000cb50: 6f 00 40 00  	j	0x8000cb54 <.LBB18_7>

8000cb54 <.LBB18_7>:
8000cb54: 83 22 02 fc  	lw	t0, -64(tp)
8000cb58: 13 03 a0 00  	li	t1, 10
8000cb5c: b3 82 62 02  	mul	t0, t0, t1
8000cb60: 23 20 52 fc  	sw	t0, -64(tp)
8000cb64: 6f 00 40 00  	j	0x8000cb68 <.LBB18_8>

8000cb68 <.LBB18_8>:
8000cb68: 83 22 42 fc  	lw	t0, -60(tp)
8000cb6c: 93 82 12 00  	addi	t0, t0, 1
8000cb70: 23 22 52 fc  	sw	t0, -60(tp)
8000cb74: 6f f0 1f fd  	j	0x8000cb44 <.LBB18_6>

8000cb78 <.LBB18_9>:
8000cb78: 83 23 c2 f9  	lw	t2, -100(tp)
8000cb7c: 03 23 02 fc  	lw	t1, -64(tp)
8000cb80: 93 02 00 00  	li	t0, 0
8000cb84: 57 c0 03 5e  	<unknown>
8000cb88: d7 40 03 5e  	<unknown>
8000cb8c: 57 c1 02 5e  	<unknown>
8000cb90: ef c0 4f 83  	jal	0x80008bc4 <__udivmodti4>
8000cb94: 0b 20 80 00  	regext	zero, zero, 8
8000cb98: 7b 64 00 fc  	vsw12.v	v0, -56(v0)
8000cb9c: 83 22 02 fb  	lw	t0, -80(tp)
8000cba0: 03 23 82 fb  	lw	t1, -72(tp)
8000cba4: 63 8c 62 00  	beq	t0, t1, 0x8000cbbc <.LBB18_11>
8000cba8: 6f 00 40 00  	j	0x8000cbac <.LBB18_10>

8000cbac <.LBB18_10>:
8000cbac: 83 22 c2 fb  	lw	t0, -68(tp)
8000cbb0: 93 82 32 01  	addi	t0, t0, 19
8000cbb4: 23 2e 52 fa  	sw	t0, -68(tp)
8000cbb8: 6f 00 40 00  	j	0x8000cbbc <.LBB18_11>

8000cbbc <.LBB18_11>:
8000cbbc: 03 23 82 fc  	lw	t1, -56(tp)
8000cbc0: 83 22 82 f8  	lw	t0, -120(tp)
8000cbc4: 57 40 03 5e  	<unknown>
8000cbc8: d7 c0 02 5e  	<unknown>
8000cbcc: ef b0 8f 94  	jal	0x80007d14 <u64toa>
8000cbd0: 57 b0 0f 02  	vadd.vi	v0, v0, -1
8000cbd4: 0b 20 80 00  	regext	zero, zero, 8
8000cbd8: 7b 66 00 fc  	vsw12.v	v0, -52(v0)
8000cbdc: 83 22 c2 fb  	lw	t0, -68(tp)
8000cbe0: 63 84 02 02  	beqz	t0, 0x8000cc08 <.LBB18_13>
8000cbe4: 6f 00 40 00  	j	0x8000cbe8 <.LBB18_12>

8000cbe8 <.LBB18_12>:
8000cbe8: 03 23 c2 fc  	lw	t1, -52(tp)
8000cbec: 83 02 03 00  	lb	t0, 0(t1)
8000cbf0: 93 a2 52 03  	slti	t0, t0, 53
8000cbf4: 93 c3 12 00  	xori	t2, t0, 1
8000cbf8: 83 02 f3 ff  	lb	t0, -1(t1)
8000cbfc: b3 82 72 00  	add	t0, t0, t2
8000cc00: a3 0f 53 fe  	sb	t0, -1(t1)
8000cc04: 6f 00 40 01  	j	0x8000cc18 <.LBB18_14>

8000cc08 <.LBB18_13>:
8000cc08: 83 22 c2 fc  	lw	t0, -52(tp)
8000cc0c: 93 82 12 00  	addi	t0, t0, 1
8000cc10: 23 26 52 fc  	sw	t0, -52(tp)
8000cc14: 6f 00 40 00  	j	0x8000cc18 <.LBB18_14>

8000cc18 <.LBB18_14>:
8000cc18: 83 22 c2 fc  	lw	t0, -52(tp)
8000cc1c: 03 23 82 f8  	lw	t1, -120(tp)
8000cc20: b3 82 62 40  	sub	t0, t0, t1
8000cc24: 03 23 c2 fb  	lw	t1, -68(tp)
8000cc28: b3 82 62 00  	add	t0, t0, t1
8000cc2c: 23 26 52 f8  	sw	t0, -116(tp)
8000cc30: 03 23 c2 fc  	lw	t1, -52(tp)
8000cc34: 93 02 00 00  	li	t0, 0
8000cc38: 23 00 53 00  	sb	t0, 0(t1)
8000cc3c: 83 22 c2 f8  	lw	t0, -116(tp)
8000cc40: 57 c0 02 5e  	<unknown>
8000cc44: 83 20 81 fd  	lw	ra, -40(sp)
8000cc48: 0b c0 00 04  	barrier	x0, x0, 1
8000cc4c: 13 01 81 fd  	addi	sp, sp, -40
8000cc50: 13 02 02 fa  	addi	tp, tp, -96
8000cc54: 67 80 00 00  	ret

8000cc58 <errol_fixed>:
8000cc58: 13 01 01 02  	addi	sp, sp, 32
8000cc5c: 13 02 02 07  	addi	tp, tp, 112
8000cc60: 0b 20 10 00  	regext	zero, zero, 1
8000cc64: 57 40 02 5e  	<unknown>
8000cc68: 23 20 11 fe  	sw	ra, -32(sp)
8000cc6c: 0b 20 80 00  	regext	zero, zero, 8
8000cc70: 7b 6e 10 f6  	vsw12.v	v1, -132(v0)
8000cc74: 0b 20 80 00  	regext	zero, zero, 8
8000cc78: 7b 6c 00 f6  	vsw12.v	v0, -136(v0)
8000cc7c: 0b 20 80 00  	regext	zero, zero, 8
8000cc80: 7b 60 20 f8  	vsw12.v	v2, -128(v0)
8000cc84: 03 23 82 f7  	lw	t1, -136(tp)
8000cc88: 83 22 c2 f7  	lw	t0, -132(tp)
8000cc8c: 57 40 03 5e  	<unknown>
8000cc90: d7 c0 02 5e  	<unknown>
8000cc94: ef 40 df a9  	jal	0x80001730 <__fixunsdfsi>
8000cc98: 0b 20 80 00  	regext	zero, zero, 8
8000cc9c: 7b 68 00 fa  	vsw12.v	v0, -80(v0)
8000cca0: 83 22 02 fb  	lw	t0, -80(tp)
8000cca4: 57 c0 02 5e  	<unknown>
8000cca8: ef 40 5f 97  	jal	0x8000161c <__floatunsidf>
8000ccac: 0b 20 80 00  	regext	zero, zero, 8
8000ccb0: 7b 6a 10 f8  	vsw12.v	v1, -108(v0)
8000ccb4: 0b 20 80 00  	regext	zero, zero, 8
8000ccb8: 7b 68 00 f8  	vsw12.v	v0, -112(v0)
8000ccbc: 03 24 82 f7  	lw	s0, -136(tp)
8000ccc0: 83 23 c2 f7  	lw	t2, -132(tp)
8000ccc4: 03 23 02 f9  	lw	t1, -112(tp)
8000ccc8: 83 22 42 f9  	lw	t0, -108(tp)
8000cccc: 57 40 04 5e  	<unknown>
8000ccd0: d7 c0 03 5e  	<unknown>
8000ccd4: 57 41 03 5e  	<unknown>
8000ccd8: d7 c1 02 5e  	<unknown>
8000ccdc: ef 50 5f f8  	jal	0x80002c60 <__subdf3>
8000cce0: 0b 20 80 00  	regext	zero, zero, 8
8000cce4: 7b 6e 10 f8  	vsw12.v	v1, -100(v0)
8000cce8: 0b 20 80 00  	regext	zero, zero, 8
8000ccec: 7b 6c 00 f8  	vsw12.v	v0, -104(v0)
8000ccf0: 83 22 c2 f7  	lw	t0, -132(tp)
8000ccf4: 03 23 82 f7  	lw	t1, -136(tp)
8000ccf8: 57 40 03 5e  	<unknown>
8000ccfc: d7 c0 02 5e  	<unknown>
8000cd00: ef d0 4f c1  	jal	0x8000a114 <fpprev>
8000cd04: 03 23 02 f9  	lw	t1, -112(tp)
8000cd08: 83 22 42 f9  	lw	t0, -108(tp)
8000cd0c: 57 41 03 5e  	<unknown>
8000cd10: d7 c1 02 5e  	<unknown>
8000cd14: ef 50 df f4  	jal	0x80002c60 <__subdf3>
8000cd18: 03 23 82 f9  	lw	t1, -104(tp)
8000cd1c: 83 22 c2 f9  	lw	t0, -100(tp)
8000cd20: 57 41 03 5e  	<unknown>
8000cd24: d7 c1 02 5e  	<unknown>
8000cd28: ef 50 0f cf  	jal	0x80002218 <__adddf3>
8000cd2c: 13 03 00 00  	li	t1, 0
8000cd30: 23 28 61 02  	sw	t1, 48(sp)
8000cd34: b7 02 00 40  	lui	t0, 262144
8000cd38: 23 2a 51 02  	sw	t0, 52(sp)
8000cd3c: 57 41 03 5e  	<unknown>
8000cd40: d7 c1 02 5e  	<unknown>
8000cd44: ef 30 9f d5  	jal	0x80000a9c <__divdf3>
8000cd48: 0b 20 80 00  	regext	zero, zero, 8
8000cd4c: 7b 62 10 fa  	vsw12.v	v1, -92(v0)
8000cd50: 0b 20 80 00  	regext	zero, zero, 8
8000cd54: 7b 60 00 fa  	vsw12.v	v0, -96(v0)
8000cd58: 83 22 c2 f7  	lw	t0, -132(tp)
8000cd5c: 03 23 82 f7  	lw	t1, -136(tp)
8000cd60: 57 40 03 5e  	<unknown>
8000cd64: d7 c0 02 5e  	<unknown>
8000cd68: ef d0 8f b4  	jal	0x8000a0b0 <fpnext>
8000cd6c: 03 23 02 f9  	lw	t1, -112(tp)
8000cd70: 83 22 42 f9  	lw	t0, -108(tp)
8000cd74: 57 41 03 5e  	<unknown>
8000cd78: d7 c1 02 5e  	<unknown>
8000cd7c: ef 50 5f ee  	jal	0x80002c60 <__subdf3>
8000cd80: 03 23 82 f9  	lw	t1, -104(tp)
8000cd84: 83 22 c2 f9  	lw	t0, -100(tp)
8000cd88: 57 41 03 5e  	<unknown>
8000cd8c: d7 c1 02 5e  	<unknown>
8000cd90: ef 50 8f c8  	jal	0x80002218 <__adddf3>
8000cd94: 83 22 41 03  	lw	t0, 52(sp)
8000cd98: 03 23 01 03  	lw	t1, 48(sp)
8000cd9c: 57 41 03 5e  	<unknown>
8000cda0: d7 c1 02 5e  	<unknown>
8000cda4: ef 30 9f cf  	jal	0x80000a9c <__divdf3>
8000cda8: 0b 20 80 00  	regext	zero, zero, 8
8000cdac: 7b 66 10 fa  	vsw12.v	v1, -84(v0)
8000cdb0: 0b 20 80 00  	regext	zero, zero, 8
8000cdb4: 7b 64 00 fa  	vsw12.v	v0, -88(v0)
8000cdb8: 03 23 02 fb  	lw	t1, -80(tp)
8000cdbc: 83 22 02 f8  	lw	t0, -128(tp)
8000cdc0: 57 40 03 5e  	<unknown>
8000cdc4: d7 c0 02 5e  	<unknown>
8000cdc8: ef a0 df f4  	jal	0x80007d14 <u64toa>
8000cdcc: 83 22 01 03  	lw	t0, 48(sp)
8000cdd0: 0b 20 80 00  	regext	zero, zero, 8
8000cdd4: 7b 62 00 f8  	vsw12.v	v0, -124(v0)
8000cdd8: 03 23 42 f8  	lw	t1, -124(tp)
8000cddc: 83 23 02 f8  	lw	t2, -128(tp)
8000cde0: 33 03 73 40  	sub	t1, t1, t2
8000cde4: 23 26 62 f8  	sw	t1, -116(tp)
8000cde8: 23 24 62 f8  	sw	t1, -120(tp)
8000cdec: 03 23 02 f8  	lw	t1, -128(tp)
8000cdf0: 83 23 82 f8  	lw	t2, -120(tp)
8000cdf4: 33 03 73 00  	add	t1, t1, t2
8000cdf8: 23 00 53 00  	sb	t0, 0(t1)
8000cdfc: 83 23 82 f9  	lw	t2, -104(tp)
8000ce00: 03 23 c2 f9  	lw	t1, -100(tp)
8000ce04: 57 c0 03 5e  	<unknown>
8000ce08: d7 40 03 5e  	<unknown>
8000ce0c: 57 c1 02 5e  	<unknown>
8000ce10: d7 c1 02 5e  	<unknown>
8000ce14: ef 40 5f f0  	jal	0x80001d18 <__eqdf2>
8000ce18: 83 22 01 03  	lw	t0, 48(sp)
8000ce1c: d7 c0 02 5e  	<unknown>

8000ce20 <.Lpcrel_hi53>:
8000ce20: 17 03 00 00  	auipc	t1, 0
8000ce24: 5b 30 43 39  	setrpc	zero, t1, 916
8000ce28: 5b 8a 00 32  	vbeq	v0, v1, 0x8000d15c <.LBB19_14>
8000ce2c: 6f 00 40 00  	j	0x8000ce30 <.LBB19_1>

8000ce30 <.LBB19_1>:
8000ce30: 6f 00 40 00  	j	0x8000ce34 <.LBB19_2>

8000ce34 <.LBB19_2>:
8000ce34: 83 23 82 f9  	lw	t2, -104(tp)
8000ce38: 03 23 c2 f9  	lw	t1, -100(tp)
8000ce3c: 93 02 00 00  	li	t0, 0
8000ce40: 23 2c 51 02  	sw	t0, 56(sp)
8000ce44: 57 c0 03 5e  	<unknown>
8000ce48: d7 40 03 5e  	<unknown>
8000ce4c: 57 c1 02 5e  	<unknown>
8000ce50: d7 c1 02 5e  	<unknown>
8000ce54: ef 40 5f ec  	jal	0x80001d18 <__eqdf2>
8000ce58: 83 22 81 03  	lw	t0, 56(sp)
8000ce5c: d7 c0 02 5e  	<unknown>

8000ce60 <.Lpcrel_hi54>:
8000ce60: 17 03 00 00  	auipc	t1, 0
8000ce64: 5b 30 83 1f  	setrpc	zero, t1, 504
8000ce68: 5b 88 00 1e  	vbeq	v0, v1, 0x8000d058 <.LBB19_7>
8000ce6c: 6f 00 40 00  	j	0x8000ce70 <.LBB19_3>

8000ce70 <.LBB19_3>:
8000ce70: 03 24 02 fa  	lw	s0, -96(tp)
8000ce74: 83 23 42 fa  	lw	t2, -92(tp)
8000ce78: 13 03 00 00  	li	t1, 0
8000ce7c: 23 20 61 04  	sw	t1, 64(sp)
8000ce80: b7 02 24 40  	lui	t0, 262720
8000ce84: 23 2e 51 02  	sw	t0, 60(sp)
8000ce88: 57 40 04 5e  	<unknown>
8000ce8c: d7 c0 03 5e  	<unknown>
8000ce90: 57 41 03 5e  	<unknown>
8000ce94: d7 c1 02 5e  	<unknown>
8000ce98: ef 30 8f a6  	jal	0x80000100 <__muldf3>
8000ce9c: 0b 20 80 00  	regext	zero, zero, 8
8000cea0: 7b 62 10 fa  	vsw12.v	v1, -92(v0)
8000cea4: 0b 20 80 00  	regext	zero, zero, 8
8000cea8: 7b 60 00 fa  	vsw12.v	v0, -96(v0)
8000ceac: 03 23 02 fa  	lw	t1, -96(tp)
8000ceb0: 83 22 42 fa  	lw	t0, -92(tp)
8000ceb4: 57 40 03 5e  	<unknown>
8000ceb8: d7 c0 02 5e  	<unknown>
8000cebc: ef 40 1f 98  	jal	0x8000183c <__fixdfsi>
8000cec0: 0b 20 80 00  	regext	zero, zero, 8
8000cec4: 7b 6a 00 fa  	vsw12.v	v0, -76(v0)
8000cec8: 83 22 42 fb  	lw	t0, -76(tp)
8000cecc: 57 c0 02 5e  	<unknown>
8000ced0: ef 50 cf a1  	jal	0x800020ec <__floatsidf>
8000ced4: 57 41 00 02  	vadd.vx	v2, v0, zero
8000ced8: d7 41 10 02  	vadd.vx	v3, v1, zero
8000cedc: 03 23 02 fa  	lw	t1, -96(tp)
8000cee0: 83 22 42 fa  	lw	t0, -92(tp)
8000cee4: 57 40 03 5e  	<unknown>
8000cee8: d7 c0 02 5e  	<unknown>
8000ceec: ef 50 5f d7  	jal	0x80002c60 <__subdf3>
8000cef0: 03 23 01 04  	lw	t1, 64(sp)
8000cef4: 83 22 c1 03  	lw	t0, 60(sp)
8000cef8: 0b 20 80 00  	regext	zero, zero, 8
8000cefc: 7b 62 10 fa  	vsw12.v	v1, -92(v0)
8000cf00: 0b 20 80 00  	regext	zero, zero, 8
8000cf04: 7b 60 00 fa  	vsw12.v	v0, -96(v0)
8000cf08: 03 24 82 f9  	lw	s0, -104(tp)
8000cf0c: 83 23 c2 f9  	lw	t2, -100(tp)
8000cf10: 57 40 04 5e  	<unknown>
8000cf14: d7 c0 03 5e  	<unknown>
8000cf18: 57 41 03 5e  	<unknown>
8000cf1c: d7 c1 02 5e  	<unknown>
8000cf20: ef 30 0f 9e  	jal	0x80000100 <__muldf3>
8000cf24: 0b 20 80 00  	regext	zero, zero, 8
8000cf28: 7b 6e 10 f8  	vsw12.v	v1, -100(v0)
8000cf2c: 0b 20 80 00  	regext	zero, zero, 8
8000cf30: 7b 6c 00 f8  	vsw12.v	v0, -104(v0)
8000cf34: 03 23 82 f9  	lw	t1, -104(tp)
8000cf38: 83 22 c2 f9  	lw	t0, -100(tp)
8000cf3c: 57 40 03 5e  	<unknown>
8000cf40: d7 c0 02 5e  	<unknown>
8000cf44: ef 40 9f 8f  	jal	0x8000183c <__fixdfsi>
8000cf48: 0b 20 80 00  	regext	zero, zero, 8
8000cf4c: 7b 6c 00 fa  	vsw12.v	v0, -72(v0)
8000cf50: 83 22 82 fb  	lw	t0, -72(tp)
8000cf54: 57 c0 02 5e  	<unknown>
8000cf58: ef 50 4f 99  	jal	0x800020ec <__floatsidf>
8000cf5c: 57 41 00 02  	vadd.vx	v2, v0, zero
8000cf60: d7 41 10 02  	vadd.vx	v3, v1, zero
8000cf64: 03 23 82 f9  	lw	t1, -104(tp)
8000cf68: 83 22 c2 f9  	lw	t0, -100(tp)
8000cf6c: 57 40 03 5e  	<unknown>
8000cf70: d7 c0 02 5e  	<unknown>
8000cf74: ef 50 df ce  	jal	0x80002c60 <__subdf3>
8000cf78: 03 23 01 04  	lw	t1, 64(sp)
8000cf7c: 83 22 c1 03  	lw	t0, 60(sp)
8000cf80: 0b 20 80 00  	regext	zero, zero, 8
8000cf84: 7b 6e 10 f8  	vsw12.v	v1, -100(v0)
8000cf88: 0b 20 80 00  	regext	zero, zero, 8
8000cf8c: 7b 6c 00 f8  	vsw12.v	v0, -104(v0)
8000cf90: 03 24 82 fa  	lw	s0, -88(tp)
8000cf94: 83 23 c2 fa  	lw	t2, -84(tp)
8000cf98: 57 40 04 5e  	<unknown>
8000cf9c: d7 c0 03 5e  	<unknown>
8000cfa0: 57 41 03 5e  	<unknown>
8000cfa4: d7 c1 02 5e  	<unknown>
8000cfa8: ef 30 8f 95  	jal	0x80000100 <__muldf3>
8000cfac: 0b 20 80 00  	regext	zero, zero, 8
8000cfb0: 7b 66 10 fa  	vsw12.v	v1, -84(v0)
8000cfb4: 0b 20 80 00  	regext	zero, zero, 8
8000cfb8: 7b 64 00 fa  	vsw12.v	v0, -88(v0)
8000cfbc: 03 23 82 fa  	lw	t1, -88(tp)
8000cfc0: 83 22 c2 fa  	lw	t0, -84(tp)
8000cfc4: 57 40 03 5e  	<unknown>
8000cfc8: d7 c0 02 5e  	<unknown>
8000cfcc: ef 40 1f 87  	jal	0x8000183c <__fixdfsi>
8000cfd0: 0b 20 80 00  	regext	zero, zero, 8
8000cfd4: 7b 6e 00 fa  	vsw12.v	v0, -68(v0)
8000cfd8: 83 22 c2 fb  	lw	t0, -68(tp)
8000cfdc: 57 c0 02 5e  	<unknown>
8000cfe0: ef 50 cf 90  	jal	0x800020ec <__floatsidf>
8000cfe4: 57 41 00 02  	vadd.vx	v2, v0, zero
8000cfe8: d7 41 10 02  	vadd.vx	v3, v1, zero
8000cfec: 03 23 82 fa  	lw	t1, -88(tp)
8000cff0: 83 22 c2 fa  	lw	t0, -84(tp)
8000cff4: 57 40 03 5e  	<unknown>
8000cff8: d7 c0 02 5e  	<unknown>
8000cffc: ef 50 5f c6  	jal	0x80002c60 <__subdf3>
8000d000: 0b 20 80 00  	regext	zero, zero, 8
8000d004: 7b 66 10 fa  	vsw12.v	v1, -84(v0)
8000d008: 0b 20 80 00  	regext	zero, zero, 8
8000d00c: 7b 64 00 fa  	vsw12.v	v0, -88(v0)
8000d010: 83 22 82 fb  	lw	t0, -72(tp)
8000d014: 93 82 02 03  	addi	t0, t0, 48
8000d018: 03 23 02 f8  	lw	t1, -128(tp)
8000d01c: 83 23 82 f8  	lw	t2, -120(tp)
8000d020: 13 84 13 00  	addi	s0, t2, 1
8000d024: 23 24 82 f8  	sw	s0, -120(tp)
8000d028: 33 03 73 00  	add	t1, t1, t2
8000d02c: 23 00 53 00  	sb	t0, 0(t1)
8000d030: 83 22 c2 fb  	lw	t0, -68(tp)
8000d034: 03 23 42 fb  	lw	t1, -76(tp)
8000d038: 63 9c 62 00  	bne	t0, t1, 0x8000d050 <.LBB19_5>
8000d03c: 6f 00 40 00  	j	0x8000d040 <.LBB19_4>

8000d040 <.LBB19_4>:
8000d040: 83 22 82 f8  	lw	t0, -120(tp)
8000d044: 13 03 30 03  	li	t1, 51
8000d048: 63 c6 62 00  	blt	t0, t1, 0x8000d054 <.LBB19_6>
8000d04c: 6f 00 40 00  	j	0x8000d050 <.LBB19_5>

8000d050 <.LBB19_5>:
8000d050: 6f 00 80 00  	j	0x8000d058 <.LBB19_7>

8000d054 <.LBB19_6>:
8000d054: 6f f0 1f de  	j	0x8000ce34 <.LBB19_2>

8000d058 <.LBB19_7>:
8000d058: 5b 20 00 00  	join	zero, zero, 0
8000d05c: 03 24 82 f9  	lw	s0, -104(tp)
8000d060: 83 23 c2 f9  	lw	t2, -100(tp)
8000d064: 13 03 00 00  	li	t1, 0
8000d068: 23 22 61 04  	sw	t1, 68(sp)
8000d06c: b7 02 e0 3f  	lui	t0, 261632
8000d070: 57 40 04 5e  	<unknown>
8000d074: d7 c0 03 5e  	<unknown>
8000d078: 57 41 03 5e  	<unknown>
8000d07c: d7 c1 02 5e  	<unknown>
8000d080: ef 40 5f f2  	jal	0x80001fa4 <__gtdf2>
8000d084: 83 22 41 04  	lw	t0, 68(sp)
8000d088: d7 40 00 02  	vadd.vx	v1, v0, zero
8000d08c: 57 c0 02 5e  	<unknown>

8000d090 <.Lpcrel_hi55>:
8000d090: 17 03 00 00  	auipc	t1, 0
8000d094: 5b 30 43 0c  	setrpc	zero, t1, 196
8000d098: 5b d6 00 02  	vbge	v0, v1, 0x8000d0c4 <.LBB19_9>
8000d09c: 6f 00 40 00  	j	0x8000d0a0 <.LBB19_8>

8000d0a0 <.LBB19_8>:
8000d0a0: 03 23 02 f8  	lw	t1, -128(tp)
8000d0a4: 83 22 82 f8  	lw	t0, -120(tp)
8000d0a8: b3 82 62 00  	add	t0, t0, t1
8000d0ac: 13 03 10 00  	li	t1, 1
8000d0b0: 33 83 62 40  	sub	t1, t0, t1
8000d0b4: 83 02 03 00  	lb	t0, 0(t1)
8000d0b8: 93 82 12 00  	addi	t0, t0, 1
8000d0bc: 23 00 53 00  	sb	t0, 0(t1)
8000d0c0: 6f 00 40 09  	j	0x8000d154 <.LBB19_13>

8000d0c4 <.LBB19_9>:
8000d0c4: 03 24 82 f9  	lw	s0, -104(tp)
8000d0c8: 83 23 c2 f9  	lw	t2, -100(tp)
8000d0cc: 13 03 00 00  	li	t1, 0
8000d0d0: 23 24 61 04  	sw	t1, 72(sp)
8000d0d4: b7 02 e0 3f  	lui	t0, 261632
8000d0d8: 57 40 04 5e  	<unknown>
8000d0dc: d7 c0 03 5e  	<unknown>
8000d0e0: 57 41 03 5e  	<unknown>
8000d0e4: d7 c1 02 5e  	<unknown>
8000d0e8: ef 40 df ae  	jal	0x80001bd4 <__nedf2>
8000d0ec: 83 22 81 04  	lw	t0, 72(sp)
8000d0f0: d7 c0 02 5e  	<unknown>

8000d0f4 <.Lpcrel_hi56>:
8000d0f4: 17 03 00 00  	auipc	t1, 0
8000d0f8: 5b 30 83 05  	setrpc	zero, t1, 88
8000d0fc: 5b 98 00 04  	vbne	v0, v1, 0x8000d14c <.LBB19_12>
8000d100: 6f 00 40 00  	j	0x8000d104 <.LBB19_10>

8000d104 <.LBB19_10>:
8000d104: 03 23 02 f8  	lw	t1, -128(tp)
8000d108: 83 22 82 f8  	lw	t0, -120(tp)
8000d10c: b3 82 62 00  	add	t0, t0, t1
8000d110: 13 03 10 00  	li	t1, 1
8000d114: b3 82 62 40  	sub	t0, t0, t1
8000d118: 83 c2 02 00  	lbu	t0, 0(t0)
8000d11c: 93 f2 12 00  	andi	t0, t0, 1
8000d120: 63 86 02 02  	beqz	t0, 0x8000d14c <.LBB19_12>
8000d124: 6f 00 40 00  	j	0x8000d128 <.LBB19_11>

8000d128 <.LBB19_11>:
8000d128: 03 23 02 f8  	lw	t1, -128(tp)
8000d12c: 83 22 82 f8  	lw	t0, -120(tp)
8000d130: b3 82 62 00  	add	t0, t0, t1
8000d134: 13 03 10 00  	li	t1, 1
8000d138: 33 83 62 40  	sub	t1, t0, t1
8000d13c: 83 02 03 00  	lb	t0, 0(t1)
8000d140: 93 82 12 00  	addi	t0, t0, 1
8000d144: 23 00 53 00  	sb	t0, 0(t1)
8000d148: 6f 00 40 00  	j	0x8000d14c <.LBB19_12>

8000d14c <.LBB19_12>:
8000d14c: 5b 20 00 00  	join	zero, zero, 0
8000d150: 6f 00 40 00  	j	0x8000d154 <.LBB19_13>

8000d154 <.LBB19_13>:
8000d154: 5b 20 00 00  	join	zero, zero, 0
8000d158: 6f 00 c0 05  	j	0x8000d1b4 <.LBB19_18>

8000d15c <.LBB19_14>:
8000d15c: 6f 00 40 00  	j	0x8000d160 <.LBB19_15>

8000d160 <.LBB19_15>:
8000d160: 03 23 02 f8  	lw	t1, -128(tp)
8000d164: 83 22 82 f8  	lw	t0, -120(tp)
8000d168: b3 82 62 00  	add	t0, t0, t1
8000d16c: 13 03 10 00  	li	t1, 1
8000d170: b3 82 62 40  	sub	t0, t0, t1
8000d174: 83 82 02 00  	lb	t0, 0(t0)
8000d178: 13 03 00 03  	li	t1, 48
8000d17c: 63 9a 62 02  	bne	t0, t1, 0x8000d1b0 <.LBB19_17>
8000d180: 6f 00 40 00  	j	0x8000d184 <.LBB19_16>

8000d184 <.LBB19_16>:
8000d184: 03 23 02 f8  	lw	t1, -128(tp)
8000d188: 83 22 82 f8  	lw	t0, -120(tp)
8000d18c: b3 82 62 00  	add	t0, t0, t1
8000d190: 13 03 10 00  	li	t1, 1
8000d194: 33 83 62 40  	sub	t1, t0, t1
8000d198: 93 02 00 00  	li	t0, 0
8000d19c: 23 00 53 00  	sb	t0, 0(t1)
8000d1a0: 83 22 82 f8  	lw	t0, -120(tp)
8000d1a4: 93 82 f2 ff  	addi	t0, t0, -1
8000d1a8: 23 24 52 f8  	sw	t0, -120(tp)
8000d1ac: 6f f0 5f fb  	j	0x8000d160 <.LBB19_15>

8000d1b0 <.LBB19_17>:
8000d1b0: 6f 00 40 00  	j	0x8000d1b4 <.LBB19_18>

8000d1b4 <.LBB19_18>:
8000d1b4: 5b 20 00 00  	join	zero, zero, 0
8000d1b8: 83 22 02 f8  	lw	t0, -128(tp)
8000d1bc: 03 23 82 f8  	lw	t1, -120(tp)
8000d1c0: 33 83 62 00  	add	t1, t0, t1
8000d1c4: 93 02 00 00  	li	t0, 0
8000d1c8: 23 00 53 00  	sb	t0, 0(t1)
8000d1cc: 83 22 c2 f8  	lw	t0, -116(tp)
8000d1d0: 57 c0 02 5e  	<unknown>
8000d1d4: 83 20 01 fe  	lw	ra, -32(sp)
8000d1d8: 0b c0 00 04  	barrier	x0, x0, 1
8000d1dc: 13 01 01 fe  	addi	sp, sp, -32
8000d1e0: 13 02 02 f9  	addi	tp, tp, -112
8000d1e4: 67 80 00 00  	ret

8000d1e8 <errol4_dtoa>:
8000d1e8: 13 01 c1 00  	addi	sp, sp, 12
8000d1ec: 13 02 02 03  	addi	tp, tp, 48
8000d1f0: 0b 20 10 00  	regext	zero, zero, 1
8000d1f4: 57 40 02 5e  	<unknown>
8000d1f8: 23 2a 11 fe  	sw	ra, -12(sp)
8000d1fc: 0b 20 80 00  	regext	zero, zero, 8
8000d200: 7b 68 10 fc  	vsw12.v	v1, -48(v0)
8000d204: 0b 20 80 00  	regext	zero, zero, 8
8000d208: 7b 66 00 fc  	vsw12.v	v0, -52(v0)
8000d20c: 0b 20 80 00  	regext	zero, zero, 8
8000d210: 7b 6a 20 fc  	vsw12.v	v2, -44(v0)
8000d214: 83 22 c2 fc  	lw	t0, -52(tp)
8000d218: 03 23 02 fd  	lw	t1, -48(tp)
8000d21c: 23 20 62 fe  	sw	t1, -32(tp)
8000d220: 23 2e 52 fc  	sw	t0, -36(tp)
8000d224: 93 02 20 1d  	li	t0, 466
8000d228: 23 22 52 fe  	sw	t0, -28(tp)
8000d22c: 03 23 42 fe  	lw	t1, -28(tp)
8000d230: 83 22 c2 fd  	lw	t0, -36(tp)
8000d234: b7 53 01 80  	lui	t2, 524309
8000d238: 93 83 83 f4  	addi	t2, t2, -184
8000d23c: 57 c0 03 5e  	<unknown>
8000d240: d7 40 03 5e  	<unknown>
8000d244: 57 c1 02 5e  	<unknown>
8000d248: ef e0 5f 8f  	jal	0x8000bb3c <table_lower_bound>
8000d24c: 0b 20 80 00  	regext	zero, zero, 8
8000d250: 7b 64 00 fe  	vsw12.v	v0, -24(v0)
8000d254: 83 22 82 fe  	lw	t0, -24(tp)
8000d258: 03 23 42 fe  	lw	t1, -28(tp)
8000d25c: 63 de 62 06  	bge	t0, t1, 0x8000d2d8 <.LBB20_3>
8000d260: 6f 00 40 00  	j	0x8000d264 <.LBB20_1>

8000d264 <.LBB20_1>:
8000d264: 83 22 82 fe  	lw	t0, -24(tp)
8000d268: 13 93 22 00  	slli	t1, t0, 2
8000d26c: b7 52 01 80  	lui	t0, 524309
8000d270: 93 82 82 f4  	addi	t0, t0, -184
8000d274: b3 82 62 00  	add	t0, t0, t1
8000d278: 83 a2 02 00  	lw	t0, 0(t0)
8000d27c: 03 23 c2 fd  	lw	t1, -36(tp)
8000d280: 63 9c 62 04  	bne	t0, t1, 0x8000d2d8 <.LBB20_3>
8000d284: 6f 00 40 00  	j	0x8000d288 <.LBB20_2>

8000d288 <.LBB20_2>:
8000d288: 03 23 42 fd  	lw	t1, -44(tp)
8000d28c: 83 22 82 fe  	lw	t0, -24(tp)
8000d290: 93 03 80 01  	li	t2, 24
8000d294: 23 20 71 02  	sw	t2, 32(sp)
8000d298: b3 83 72 02  	mul	t2, t0, t2
8000d29c: b7 52 01 80  	lui	t0, 524309
8000d2a0: 93 82 02 69  	addi	t0, t0, 1680
8000d2a4: 23 2e 51 00  	sw	t0, 28(sp)
8000d2a8: b3 82 72 00  	add	t0, t0, t2
8000d2ac: 57 40 03 5e  	<unknown>
8000d2b0: d7 c0 02 5e  	<unknown>
8000d2b4: ef c0 df 9a  	jal	0x80009c60 <strcpy>
8000d2b8: 83 23 01 02  	lw	t2, 32(sp)
8000d2bc: 83 22 c1 01  	lw	t0, 28(sp)
8000d2c0: 03 23 82 fe  	lw	t1, -24(tp)
8000d2c4: 33 03 73 02  	mul	t1, t1, t2
8000d2c8: b3 82 62 00  	add	t0, t0, t1
8000d2cc: 83 a2 42 01  	lw	t0, 20(t0)
8000d2d0: 23 24 52 fc  	sw	t0, -56(tp)
8000d2d4: 6f 00 c0 02  	j	0x8000d300 <.LBB20_4>

8000d2d8 <.LBB20_3>:
8000d2d8: 83 22 42 fd  	lw	t0, -44(tp)
8000d2dc: 03 23 02 fd  	lw	t1, -48(tp)
8000d2e0: 83 23 c2 fc  	lw	t2, -52(tp)
8000d2e4: 57 c0 03 5e  	<unknown>
8000d2e8: d7 40 03 5e  	<unknown>
8000d2ec: 57 c1 02 5e  	<unknown>
8000d2f0: ef 00 c0 02  	jal	0x8000d31c <errol4u_dtoa>
8000d2f4: 0b 20 80 00  	regext	zero, zero, 8
8000d2f8: 7b 64 00 fc  	vsw12.v	v0, -56(v0)
8000d2fc: 6f 00 40 00  	j	0x8000d300 <.LBB20_4>

8000d300 <.LBB20_4>:
8000d300: 83 22 82 fc  	lw	t0, -56(tp)
8000d304: 57 c0 02 5e  	<unknown>
8000d308: 83 20 41 ff  	lw	ra, -12(sp)
8000d30c: 0b c0 00 04  	barrier	x0, x0, 1
8000d310: 13 01 41 ff  	addi	sp, sp, -12
8000d314: 13 02 02 fd  	addi	tp, tp, -48
8000d318: 67 80 00 00  	ret

8000d31c <errol4u_dtoa>:
8000d31c: 13 01 c1 02  	addi	sp, sp, 44
8000d320: 13 02 42 0e  	addi	tp, tp, 228
8000d324: 0b 20 10 00  	regext	zero, zero, 1
8000d328: 57 40 02 5e  	<unknown>
8000d32c: 23 2a 11 fc  	sw	ra, -44(sp)
8000d330: 0b 20 80 00  	regext	zero, zero, 8
8000d334: 7b 6e 10 ee  	vsw12.v	v1, -260(v0)
8000d338: 0b 20 80 00  	regext	zero, zero, 8
8000d33c: 7b 6c 00 ee  	vsw12.v	v0, -264(v0)
8000d340: 0b 20 80 00  	regext	zero, zero, 8
8000d344: 7b 60 20 f0  	vsw12.v	v2, -256(v0)
8000d348: 03 24 82 ef  	lw	s0, -264(tp)
8000d34c: 83 23 c2 ef  	lw	t2, -260(tp)
8000d350: 13 03 40 00  	li	t1, 4
8000d354: b7 02 50 43  	lui	t0, 275712
8000d358: 57 40 04 5e  	<unknown>
8000d35c: d7 c0 03 5e  	<unknown>
8000d360: 57 41 03 5e  	<unknown>
8000d364: d7 c1 02 5e  	<unknown>
8000d368: ef 40 5f af  	jal	0x80001e5c <__gedf2>
8000d36c: 93 02 00 00  	li	t0, 0
8000d370: d7 c0 02 5e  	<unknown>

8000d374 <.Lpcrel_hi57>:
8000d374: 17 03 00 00  	auipc	t1, 0
8000d378: 5b 30 03 77  	setrpc	zero, t1, 1904
8000d37c: 5b c8 00 06  	vblt	v0, v1, 0x8000d3ec <.LBB21_3>
8000d380: 6f 00 40 00  	j	0x8000d384 <.LBB21_1>

8000d384 <.LBB21_1>:
8000d384: 03 24 82 ef  	lw	s0, -264(tp)
8000d388: 83 23 c2 ef  	lw	t2, -260(tp)
8000d38c: b7 02 f0 47  	lui	t0, 294656
8000d390: 93 82 f2 ff  	addi	t0, t0, -1
8000d394: 13 03 40 ff  	li	t1, -12
8000d398: 57 40 04 5e  	<unknown>
8000d39c: d7 c0 03 5e  	<unknown>
8000d3a0: 57 41 03 5e  	<unknown>
8000d3a4: d7 c1 02 5e  	<unknown>
8000d3a8: ef 40 8f ee  	jal	0x80001a90 <__ltdf2>
8000d3ac: 93 02 00 00  	li	t0, 0
8000d3b0: d7 c0 02 5e  	<unknown>

8000d3b4 <.Lpcrel_hi58>:
8000d3b4: 17 03 00 00  	auipc	t1, 0
8000d3b8: 5b 30 03 73  	setrpc	zero, t1, 1840
8000d3bc: 5b d8 00 02  	vbge	v0, v1, 0x8000d3ec <.LBB21_3>
8000d3c0: 6f 00 40 00  	j	0x8000d3c4 <.LBB21_2>

8000d3c4 <.LBB21_2>:
8000d3c4: 83 22 02 f0  	lw	t0, -256(tp)
8000d3c8: 03 23 c2 ef  	lw	t1, -260(tp)
8000d3cc: 83 23 82 ef  	lw	t2, -264(tp)
8000d3d0: 57 c0 03 5e  	<unknown>
8000d3d4: d7 40 03 5e  	<unknown>
8000d3d8: 57 c1 02 5e  	<unknown>
8000d3dc: ef f0 4f cd  	jal	0x8000c8b0 <errol_int>
8000d3e0: 0b 20 80 00  	regext	zero, zero, 8
8000d3e4: 7b 6a 00 ee  	vsw12.v	v0, -268(v0)
8000d3e8: 6f 00 c0 6f  	j	0x8000dae4 <.LBB21_27>

8000d3ec <.LBB21_3>:
8000d3ec: 03 24 82 ef  	lw	s0, -264(tp)
8000d3f0: 83 23 c2 ef  	lw	t2, -260(tp)
8000d3f4: 13 03 00 00  	li	t1, 0
8000d3f8: 23 20 61 06  	sw	t1, 96(sp)
8000d3fc: b7 02 30 40  	lui	t0, 262912
8000d400: 57 40 04 5e  	<unknown>
8000d404: d7 c0 03 5e  	<unknown>
8000d408: 57 41 03 5e  	<unknown>
8000d40c: d7 c1 02 5e  	<unknown>
8000d410: ef 40 df a4  	jal	0x80001e5c <__gedf2>
8000d414: 83 22 01 06  	lw	t0, 96(sp)
8000d418: d7 c0 02 5e  	<unknown>

8000d41c <.Lpcrel_hi59>:
8000d41c: 17 03 00 00  	auipc	t1, 0
8000d420: 5b 30 83 6c  	setrpc	zero, t1, 1736
8000d424: 5b ca 00 06  	vblt	v0, v1, 0x8000d498 <.LBB21_6>
8000d428: 6f 00 40 00  	j	0x8000d42c <.LBB21_4>

8000d42c <.LBB21_4>:
8000d42c: 03 24 82 ef  	lw	s0, -264(tp)
8000d430: 83 23 c2 ef  	lw	t2, -260(tp)
8000d434: 13 03 00 00  	li	t1, 0
8000d438: 23 22 61 06  	sw	t1, 100(sp)
8000d43c: b7 02 40 43  	lui	t0, 275456
8000d440: 57 40 04 5e  	<unknown>
8000d444: d7 c0 03 5e  	<unknown>
8000d448: 57 41 03 5e  	<unknown>
8000d44c: d7 c1 02 5e  	<unknown>
8000d450: ef 40 cf cf  	jal	0x8000194c <__ledf2>
8000d454: 83 22 41 06  	lw	t0, 100(sp)
8000d458: d7 40 00 02  	vadd.vx	v1, v0, zero
8000d45c: 57 c0 02 5e  	<unknown>

8000d460 <.Lpcrel_hi60>:
8000d460: 17 03 00 00  	auipc	t1, 0
8000d464: 5b 30 43 68  	setrpc	zero, t1, 1668
8000d468: 5b c8 00 02  	vblt	v0, v1, 0x8000d498 <.LBB21_6>
8000d46c: 6f 00 40 00  	j	0x8000d470 <.LBB21_5>

8000d470 <.LBB21_5>:
8000d470: 83 22 02 f0  	lw	t0, -256(tp)
8000d474: 03 23 c2 ef  	lw	t1, -260(tp)
8000d478: 83 23 82 ef  	lw	t2, -264(tp)
8000d47c: 57 c0 03 5e  	<unknown>
8000d480: d7 40 03 5e  	<unknown>
8000d484: 57 c1 02 5e  	<unknown>
8000d488: ef f0 0f fd  	jal	0x8000cc58 <errol_fixed>
8000d48c: 0b 20 80 00  	regext	zero, zero, 8
8000d490: 7b 6a 00 ee  	vsw12.v	v0, -268(v0)
8000d494: 6f 00 00 65  	j	0x8000dae4 <.LBB21_27>

8000d498 <.LBB21_6>:
8000d498: 6f 00 40 00  	j	0x8000d49c <.LBB21_7>

8000d49c <.LBB21_7>:
8000d49c: 03 23 82 ef  	lw	t1, -264(tp)
8000d4a0: 83 22 c2 ef  	lw	t0, -260(tp)
8000d4a4: 57 40 03 5e  	<unknown>
8000d4a8: d7 c0 02 5e  	<unknown>
8000d4ac: ef 40 0f b9  	jal	0x8000183c <__fixdfsi>
8000d4b0: 0b 20 80 00  	regext	zero, zero, 8
8000d4b4: 7b 62 00 f0  	vsw12.v	v0, -252(v0)
8000d4b8: 83 22 42 f0  	lw	t0, -252(tp)
8000d4bc: 57 c0 02 5e  	<unknown>
8000d4c0: ef 40 df c2  	jal	0x800020ec <__floatsidf>
8000d4c4: b7 62 47 55  	lui	t0, 349302
8000d4c8: 13 83 22 a3  	addi	t1, t0, -1486
8000d4cc: b7 42 d3 3f  	lui	t0, 261428
8000d4d0: 93 82 32 41  	addi	t0, t0, 1043
8000d4d4: 57 41 03 5e  	<unknown>
8000d4d8: d7 c1 02 5e  	<unknown>
8000d4dc: ef 20 5f c2  	jal	0x80000100 <__muldf3>
8000d4e0: 13 03 00 00  	li	t1, 0
8000d4e4: b7 22 72 40  	lui	t0, 263970
8000d4e8: 57 41 03 5e  	<unknown>
8000d4ec: d7 c1 02 5e  	<unknown>
8000d4f0: ef 40 9f d2  	jal	0x80002218 <__adddf3>
8000d4f4: ef 40 8f b4  	jal	0x8000183c <__fixdfsi>
8000d4f8: 0b 20 80 00  	regext	zero, zero, 8
8000d4fc: 7b 64 00 f0  	vsw12.v	v0, -248(v0)
8000d500: 03 23 82 f0  	lw	t1, -248(tp)
8000d504: 93 02 30 01  	li	t0, 19
8000d508: 63 ca 62 00  	blt	t0, t1, 0x8000d51c <.LBB21_9>
8000d50c: 6f 00 40 00  	j	0x8000d510 <.LBB21_8>

8000d510 <.LBB21_8>:
8000d510: 93 02 40 01  	li	t0, 20
8000d514: 23 24 52 f0  	sw	t0, -248(tp)
8000d518: 6f 00 40 02  	j	0x8000d53c <.LBB21_12>

8000d51c <.LBB21_9>:
8000d51c: 83 22 82 f0  	lw	t0, -248(tp)
8000d520: 13 03 80 25  	li	t1, 600
8000d524: 63 ea 62 00  	bltu	t0, t1, 0x8000d538 <.LBB21_11>
8000d528: 6f 00 40 00  	j	0x8000d52c <.LBB21_10>

8000d52c <.LBB21_10>:
8000d52c: 93 02 70 25  	li	t0, 599
8000d530: 23 24 52 f0  	sw	t0, -248(tp)
8000d534: 6f 00 40 00  	j	0x8000d538 <.LBB21_11>

8000d538 <.LBB21_11>:
8000d538: 6f 00 40 00  	j	0x8000d53c <.LBB21_12>

8000d53c <.LBB21_12>:
8000d53c: 83 22 82 f0  	lw	t0, -248(tp)
8000d540: 13 93 42 00  	slli	t1, t0, 4
8000d544: b7 f2 00 80  	lui	t0, 524303
8000d548: 93 82 82 06  	addi	t0, t0, 104
8000d54c: b3 82 62 00  	add	t0, t0, t1
8000d550: 03 a3 c2 00  	lw	t1, 12(t0)
8000d554: 23 2e 62 f0  	sw	t1, -228(tp)
8000d558: 03 a3 82 00  	lw	t1, 8(t0)
8000d55c: 23 2c 62 f0  	sw	t1, -232(tp)
8000d560: 03 a3 42 00  	lw	t1, 4(t0)
8000d564: 23 2a 62 f0  	sw	t1, -236(tp)
8000d568: 83 a2 02 00  	lw	t0, 0(t0)
8000d56c: 23 28 52 f0  	sw	t0, -240(tp)
8000d570: 83 22 02 f1  	lw	t0, -240(tp)
8000d574: 03 23 42 f1  	lw	t1, -236(tp)
8000d578: 23 26 62 f2  	sw	t1, -212(tp)
8000d57c: 23 24 52 f2  	sw	t0, -216(tp)
8000d580: 83 23 c2 f1  	lw	t2, -228(tp)
8000d584: 03 24 82 f1  	lw	s0, -232(tp)
8000d588: 83 24 42 f1  	lw	s1, -236(tp)
8000d58c: 03 25 02 f1  	lw	a0, -240(tp)
8000d590: 83 22 c2 ef  	lw	t0, -260(tp)
8000d594: 03 23 82 ef  	lw	t1, -264(tp)
8000d598: 93 05 02 f3  	addi	a1, tp, -208
8000d59c: 57 c0 05 5e  	<unknown>
8000d5a0: d7 40 05 5e  	<unknown>
8000d5a4: 57 c1 04 5e  	<unknown>
8000d5a8: d7 41 04 5e  	<unknown>
8000d5ac: 57 c2 03 5e  	<unknown>
8000d5b0: d7 42 03 5e  	<unknown>
8000d5b4: 57 c3 02 5e  	<unknown>
8000d5b8: ef d0 9f c2  	jal	0x8000b1e0 <hp_prod>
8000d5bc: 83 22 c2 f3  	lw	t0, -196(tp)
8000d5c0: 23 2e 52 f0  	sw	t0, -228(tp)
8000d5c4: 83 22 82 f3  	lw	t0, -200(tp)
8000d5c8: 23 2c 52 f0  	sw	t0, -232(tp)
8000d5cc: 83 22 42 f3  	lw	t0, -204(tp)
8000d5d0: 23 2a 52 f0  	sw	t0, -236(tp)
8000d5d4: 83 22 02 f3  	lw	t0, -208(tp)
8000d5d8: 23 28 52 f0  	sw	t0, -240(tp)
8000d5dc: b7 02 f0 3f  	lui	t0, 261888
8000d5e0: 23 22 52 f2  	sw	t0, -220(tp)
8000d5e4: 93 02 00 00  	li	t0, 0
8000d5e8: 23 24 51 06  	sw	t0, 104(sp)
8000d5ec: 23 20 52 f2  	sw	t0, -224(tp)
8000d5f0: 83 22 82 f0  	lw	t0, -248(tp)
8000d5f4: 13 03 20 12  	li	t1, 290
8000d5f8: b3 82 62 40  	sub	t0, t0, t1
8000d5fc: 23 24 52 f0  	sw	t0, -248(tp)
8000d600: 03 24 02 f1  	lw	s0, -240(tp)
8000d604: 83 23 42 f1  	lw	t2, -236(tp)
8000d608: b7 a2 d8 85  	lui	t0, 548234
8000d60c: 13 83 12 00  	addi	t1, t0, 1
8000d610: b7 32 76 43  	lui	t0, 276323
8000d614: 93 82 72 45  	addi	t0, t0, 1111
8000d618: 57 40 04 5e  	<unknown>
8000d61c: d7 c0 03 5e  	<unknown>
8000d620: 57 41 03 5e  	<unknown>
8000d624: d7 c1 02 5e  	<unknown>
8000d628: ef 40 8f c6  	jal	0x80001a90 <__ltdf2>
8000d62c: 83 22 81 06  	lw	t0, 104(sp)
8000d630: d7 c0 02 5e  	<unknown>

8000d634 <.Lpcrel_hi61>:
8000d634: 17 03 00 00  	auipc	t1, 0
8000d638: 5b 30 43 16  	setrpc	zero, t1, 356
8000d63c: 5b de 00 14  	vbge	v0, v1, 0x8000d798 <.LBB21_14>
8000d640: 6f 00 40 00  	j	0x8000d644 <.LBB21_13>

8000d644 <.LBB21_13>:
8000d644: 03 23 82 ef  	lw	t1, -264(tp)
8000d648: 83 22 c2 ef  	lw	t0, -260(tp)
8000d64c: 57 40 03 5e  	<unknown>
8000d650: d7 c0 02 5e  	<unknown>
8000d654: ef 40 8f 9e  	jal	0x8000183c <__fixdfsi>
8000d658: 0b 20 80 00  	regext	zero, zero, 8
8000d65c: 7b 62 00 f0  	vsw12.v	v0, -252(v0)
8000d660: 83 22 42 f0  	lw	t0, -252(tp)
8000d664: 57 c0 02 5e  	<unknown>
8000d668: ef 40 5f a8  	jal	0x800020ec <__floatsidf>
8000d66c: b7 62 47 55  	lui	t0, 349302
8000d670: 13 83 22 a3  	addi	t1, t0, -1486
8000d674: b7 42 d3 3f  	lui	t0, 261428
8000d678: 93 82 32 41  	addi	t0, t0, 1043
8000d67c: 57 41 03 5e  	<unknown>
8000d680: d7 c1 02 5e  	<unknown>
8000d684: ef 20 df a7  	jal	0x80000100 <__muldf3>
8000d688: 13 03 00 00  	li	t1, 0
8000d68c: b7 22 72 40  	lui	t0, 263970
8000d690: 57 41 03 5e  	<unknown>
8000d694: d7 c1 02 5e  	<unknown>
8000d698: ef 40 1f b8  	jal	0x80002218 <__adddf3>
8000d69c: ef 40 0f 9a  	jal	0x8000183c <__fixdfsi>
8000d6a0: 0b 20 80 00  	regext	zero, zero, 8
8000d6a4: 7b 64 00 f0  	vsw12.v	v0, -248(v0)
8000d6a8: 83 23 c2 f1  	lw	t2, -228(tp)
8000d6ac: 03 24 82 f1  	lw	s0, -232(tp)
8000d6b0: 83 24 42 f1  	lw	s1, -236(tp)
8000d6b4: 03 25 02 f1  	lw	a0, -240(tp)
8000d6b8: 83 22 c2 ef  	lw	t0, -260(tp)
8000d6bc: 03 23 82 ef  	lw	t1, -264(tp)
8000d6c0: 93 05 02 f4  	addi	a1, tp, -192
8000d6c4: 57 c0 05 5e  	<unknown>
8000d6c8: d7 40 05 5e  	<unknown>
8000d6cc: 57 c1 04 5e  	<unknown>
8000d6d0: d7 41 04 5e  	<unknown>
8000d6d4: 57 c2 03 5e  	<unknown>
8000d6d8: d7 42 03 5e  	<unknown>
8000d6dc: 57 c3 02 5e  	<unknown>
8000d6e0: ef d0 1f b0  	jal	0x8000b1e0 <hp_prod>
8000d6e4: 83 22 c2 f4  	lw	t0, -180(tp)
8000d6e8: 23 2e 52 f0  	sw	t0, -228(tp)
8000d6ec: 83 22 82 f4  	lw	t0, -184(tp)
8000d6f0: 23 2c 52 f0  	sw	t0, -232(tp)
8000d6f4: 83 22 42 f4  	lw	t0, -188(tp)
8000d6f8: 23 2a 52 f0  	sw	t0, -236(tp)
8000d6fc: 83 22 02 f4  	lw	t0, -192(tp)
8000d700: 23 28 52 f0  	sw	t0, -240(tp)
8000d704: 03 23 02 f1  	lw	t1, -240(tp)
8000d708: 83 22 42 f1  	lw	t0, -236(tp)
8000d70c: 03 24 82 f2  	lw	s0, -216(tp)
8000d710: 83 23 c2 f2  	lw	t2, -212(tp)
8000d714: 57 40 04 5e  	<unknown>
8000d718: d7 c0 03 5e  	<unknown>
8000d71c: 57 41 03 5e  	<unknown>
8000d720: d7 c1 02 5e  	<unknown>
8000d724: ef 20 df 9d  	jal	0x80000100 <__muldf3>
8000d728: 0b 20 80 00  	regext	zero, zero, 8
8000d72c: 7b 66 10 f2  	vsw12.v	v1, -212(v0)
8000d730: 0b 20 80 00  	regext	zero, zero, 8
8000d734: 7b 64 00 f2  	vsw12.v	v0, -216(v0)
8000d738: 83 23 c2 f1  	lw	t2, -228(tp)
8000d73c: 03 24 82 f1  	lw	s0, -232(tp)
8000d740: 83 24 42 f1  	lw	s1, -236(tp)
8000d744: 03 25 02 f1  	lw	a0, -240(tp)
8000d748: 83 22 c2 ef  	lw	t0, -260(tp)
8000d74c: 03 23 82 ef  	lw	t1, -264(tp)
8000d750: 93 05 02 f5  	addi	a1, tp, -176
8000d754: 57 c0 05 5e  	<unknown>
8000d758: d7 40 05 5e  	<unknown>
8000d75c: 57 c1 04 5e  	<unknown>
8000d760: d7 41 04 5e  	<unknown>
8000d764: 57 c2 03 5e  	<unknown>
8000d768: d7 42 03 5e  	<unknown>
8000d76c: 57 c3 02 5e  	<unknown>
8000d770: ef d0 1f a7  	jal	0x8000b1e0 <hp_prod>
8000d774: 83 22 c2 f5  	lw	t0, -164(tp)
8000d778: 23 2e 52 f0  	sw	t0, -228(tp)
8000d77c: 83 22 82 f5  	lw	t0, -168(tp)
8000d780: 23 2c 52 f0  	sw	t0, -232(tp)
8000d784: 83 22 42 f5  	lw	t0, -172(tp)
8000d788: 23 2a 52 f0  	sw	t0, -236(tp)
8000d78c: 83 22 02 f5  	lw	t0, -176(tp)
8000d790: 23 28 52 f0  	sw	t0, -240(tp)
8000d794: 6f 00 40 00  	j	0x8000d798 <.LBB21_14>

8000d798 <.LBB21_14>:
8000d798: 5b 20 00 00  	join	zero, zero, 0
8000d79c: 6f 00 40 00  	j	0x8000d7a0 <.LBB21_15>

8000d7a0 <.LBB21_15>:
8000d7a0: 03 24 02 f1  	lw	s0, -240(tp)
8000d7a4: 83 23 42 f1  	lw	t2, -236(tp)
8000d7a8: b7 a2 d8 85  	lui	t0, 548234
8000d7ac: 13 83 12 00  	addi	t1, t0, 1
8000d7b0: b7 32 76 43  	lui	t0, 276323
8000d7b4: 93 82 72 45  	addi	t0, t0, 1111
8000d7b8: 57 40 04 5e  	<unknown>
8000d7bc: d7 c0 03 5e  	<unknown>
8000d7c0: 57 41 03 5e  	<unknown>
8000d7c4: d7 c1 02 5e  	<unknown>
8000d7c8: ef 40 8f ac  	jal	0x80001a90 <__ltdf2>
8000d7cc: 93 02 00 00  	li	t0, 0
8000d7d0: d7 c0 02 5e  	<unknown>

8000d7d4 <.Lpcrel_hi62>:
8000d7d4: 17 03 00 00  	auipc	t1, 0
8000d7d8: 5b 30 03 06  	setrpc	zero, t1, 96
8000d7dc: 5b dc 00 04  	vbge	v0, v1, 0x8000d834 <.LBB21_17>
8000d7e0: 6f 00 40 00  	j	0x8000d7e4 <.LBB21_16>

8000d7e4 <.LBB21_16>:
8000d7e4: 83 22 82 f0  	lw	t0, -248(tp)
8000d7e8: 93 82 f2 ff  	addi	t0, t0, -1
8000d7ec: 23 24 52 f0  	sw	t0, -248(tp)
8000d7f0: 93 02 02 f1  	addi	t0, tp, -240
8000d7f4: 57 c0 02 5e  	<unknown>
8000d7f8: ef c0 4f ed  	jal	0x80009ecc <hp_mul10>
8000d7fc: 03 24 02 f2  	lw	s0, -224(tp)
8000d800: 83 23 42 f2  	lw	t2, -220(tp)
8000d804: 13 03 00 00  	li	t1, 0
8000d808: b7 02 24 40  	lui	t0, 262720
8000d80c: 57 40 04 5e  	<unknown>
8000d810: d7 c0 03 5e  	<unknown>
8000d814: 57 41 03 5e  	<unknown>
8000d818: d7 c1 02 5e  	<unknown>
8000d81c: ef 20 5f 8e  	jal	0x80000100 <__muldf3>
8000d820: 0b 20 80 00  	regext	zero, zero, 8
8000d824: 7b 62 10 f2  	vsw12.v	v1, -220(v0)
8000d828: 0b 20 80 00  	regext	zero, zero, 8
8000d82c: 7b 60 00 f2  	vsw12.v	v0, -224(v0)
8000d830: 6f f0 1f f7  	j	0x8000d7a0 <.LBB21_15>

8000d834 <.LBB21_17>:
8000d834: 5b 20 00 00  	join	zero, zero, 0
8000d838: 83 22 c2 ef  	lw	t0, -260(tp)
8000d83c: 03 23 82 ef  	lw	t1, -264(tp)
8000d840: 57 40 03 5e  	<unknown>
8000d844: d7 c0 02 5e  	<unknown>
8000d848: ef c0 9f 86  	jal	0x8000a0b0 <fpnext>
8000d84c: 03 23 82 ef  	lw	t1, -264(tp)
8000d850: 83 22 c2 ef  	lw	t0, -260(tp)
8000d854: 57 41 03 5e  	<unknown>
8000d858: d7 c1 02 5e  	<unknown>
8000d85c: ef 50 4f c0  	jal	0x80002c60 <__subdf3>
8000d860: 03 23 82 f2  	lw	t1, -216(tp)
8000d864: 83 22 c2 f2  	lw	t0, -212(tp)
8000d868: 57 41 03 5e  	<unknown>
8000d86c: d7 c1 02 5e  	<unknown>
8000d870: ef 20 1f 89  	jal	0x80000100 <__muldf3>
8000d874: 03 23 02 f2  	lw	t1, -224(tp)
8000d878: 83 22 42 f2  	lw	t0, -220(tp)
8000d87c: 57 41 03 5e  	<unknown>
8000d880: d7 c1 02 5e  	<unknown>
8000d884: ef 20 df 87  	jal	0x80000100 <__muldf3>
8000d888: 13 03 00 00  	li	t1, 0
8000d88c: 23 26 61 06  	sw	t1, 108(sp)
8000d890: b7 02 00 40  	lui	t0, 262144
8000d894: 57 41 03 5e  	<unknown>
8000d898: d7 c1 02 5e  	<unknown>
8000d89c: ef 30 0f a0  	jal	0x80000a9c <__divdf3>
8000d8a0: 0b 20 80 00  	regext	zero, zero, 8
8000d8a4: 7b 62 10 f6  	vsw12.v	v1, -156(v0)
8000d8a8: 0b 20 80 00  	regext	zero, zero, 8
8000d8ac: 7b 60 00 f6  	vsw12.v	v0, -160(v0)
8000d8b0: 03 23 02 f1  	lw	t1, -240(tp)
8000d8b4: 83 22 42 f1  	lw	t0, -236(tp)
8000d8b8: 57 40 03 5e  	<unknown>
8000d8bc: d7 c0 02 5e  	<unknown>
8000d8c0: ef 30 1f e7  	jal	0x80001730 <__fixunsdfsi>
8000d8c4: 0b 20 80 00  	regext	zero, zero, 8
8000d8c8: 7b 64 00 f6  	vsw12.v	v0, -152(v0)
8000d8cc: 83 22 82 f6  	lw	t0, -152(tp)
8000d8d0: 23 2a 51 06  	sw	t0, 116(sp)
8000d8d4: 03 24 82 f1  	lw	s0, -232(tp)
8000d8d8: 83 23 c2 f1  	lw	t2, -228(tp)
8000d8dc: 03 23 02 f6  	lw	t1, -160(tp)
8000d8e0: 83 22 42 f6  	lw	t0, -156(tp)
8000d8e4: 57 40 04 5e  	<unknown>
8000d8e8: d7 c0 03 5e  	<unknown>
8000d8ec: 57 41 03 5e  	<unknown>
8000d8f0: d7 c1 02 5e  	<unknown>
8000d8f4: ef 50 cf b6  	jal	0x80002c60 <__subdf3>
8000d8f8: ef 30 9f e3  	jal	0x80001730 <__fixunsdfsi>
8000d8fc: 83 22 41 07  	lw	t0, 116(sp)
8000d900: 57 c0 02 02  	vadd.vx	v0, v0, t0
8000d904: 0b 20 80 00  	regext	zero, zero, 8
8000d908: 7b 66 00 f6  	vsw12.v	v0, -148(v0)
8000d90c: 83 22 82 f6  	lw	t0, -152(tp)
8000d910: 23 28 51 06  	sw	t0, 112(sp)
8000d914: 03 24 82 f1  	lw	s0, -232(tp)
8000d918: 83 23 c2 f1  	lw	t2, -228(tp)
8000d91c: 03 23 02 f6  	lw	t1, -160(tp)
8000d920: 83 22 42 f6  	lw	t0, -156(tp)
8000d924: 57 40 04 5e  	<unknown>
8000d928: d7 c0 03 5e  	<unknown>
8000d92c: 57 41 03 5e  	<unknown>
8000d930: d7 c1 02 5e  	<unknown>
8000d934: ef 40 5f 8e  	jal	0x80002218 <__adddf3>
8000d938: ef 30 9f df  	jal	0x80001730 <__fixunsdfsi>
8000d93c: 83 22 01 07  	lw	t0, 112(sp)
8000d940: 57 c0 02 02  	vadd.vx	v0, v0, t0
8000d944: 0b 20 80 00  	regext	zero, zero, 8
8000d948: 7b 6a 00 f6  	vsw12.v	v0, -140(v0)
8000d94c: 83 22 42 f7  	lw	t0, -140(tp)
8000d950: 57 c0 02 5e  	<unknown>
8000d954: ef 30 9f cc  	jal	0x8000161c <__floatunsidf>
8000d958: b7 d2 4e 67  	lui	t0, 423149
8000d95c: 13 83 02 80  	addi	t1, t0, -2048
8000d960: b7 c2 ab 43  	lui	t0, 277180
8000d964: 93 82 d2 16  	addi	t0, t0, 365
8000d968: 57 41 03 5e  	<unknown>
8000d96c: d7 c1 02 5e  	<unknown>
8000d970: ef 40 cf ce  	jal	0x80001e5c <__gedf2>
8000d974: 83 22 c1 06  	lw	t0, 108(sp)
8000d978: d7 c0 02 5e  	<unknown>

8000d97c <.Lpcrel_hi63>:
8000d97c: 17 03 00 00  	auipc	t1, 0
8000d980: 5b 30 03 02  	setrpc	zero, t1, 32
8000d984: 5b cc 00 00  	vblt	v0, v1, 0x8000d99c <.LBB21_19>
8000d988: 6f 00 40 00  	j	0x8000d98c <.LBB21_18>

8000d98c <.LBB21_18>:
8000d98c: 83 22 82 f0  	lw	t0, -248(tp)
8000d990: 93 82 12 00  	addi	t0, t0, 1
8000d994: 23 24 52 f0  	sw	t0, -248(tp)
8000d998: 6f 00 40 00  	j	0x8000d99c <.LBB21_19>

8000d99c <.LBB21_19>:
8000d99c: 5b 20 00 00  	join	zero, zero, 0
8000d9a0: 93 02 10 00  	li	t0, 1
8000d9a4: 23 2c 52 f6  	sw	t0, -136(tp)
8000d9a8: 6f 00 40 00  	j	0x8000d9ac <.LBB21_20>

8000d9ac <.LBB21_20>:
8000d9ac: 83 22 c2 f6  	lw	t0, -148(tp)
8000d9b0: 37 d3 cc cc  	lui	t1, 838861
8000d9b4: 13 03 d3 cc  	addi	t1, t1, -819
8000d9b8: b3 b2 62 02  	mulhu	t0, t0, t1
8000d9bc: 93 d2 32 00  	srli	t0, t0, 3
8000d9c0: 23 26 52 f6  	sw	t0, -148(tp)
8000d9c4: 83 22 42 f7  	lw	t0, -140(tp)
8000d9c8: b3 b2 62 02  	mulhu	t0, t0, t1
8000d9cc: 93 d2 32 00  	srli	t0, t0, 3
8000d9d0: 23 2a 52 f6  	sw	t0, -140(tp)
8000d9d4: 83 22 c2 f6  	lw	t0, -148(tp)
8000d9d8: 03 23 42 f7  	lw	t1, -140(tp)
8000d9dc: 63 96 62 00  	bne	t0, t1, 0x8000d9e8 <.LBB21_22>
8000d9e0: 6f 00 40 00  	j	0x8000d9e4 <.LBB21_21>

8000d9e4 <.LBB21_21>:
8000d9e4: 6f 00 c0 01  	j	0x8000da00 <.LBB21_24>

8000d9e8 <.LBB21_22>:
8000d9e8: 6f 00 40 00  	j	0x8000d9ec <.LBB21_23>

8000d9ec <.LBB21_23>:
8000d9ec: 83 22 82 f7  	lw	t0, -136(tp)
8000d9f0: 13 03 a0 00  	li	t1, 10
8000d9f4: b3 82 62 02  	mul	t0, t0, t1
8000d9f8: 23 2c 52 f6  	sw	t0, -136(tp)
8000d9fc: 6f f0 1f fb  	j	0x8000d9ac <.LBB21_20>

8000da00 <.LBB21_24>:
8000da00: 83 22 82 f6  	lw	t0, -152(tp)
8000da04: 23 2e 51 06  	sw	t0, 124(sp)
8000da08: 83 22 82 f1  	lw	t0, -232(tp)
8000da0c: 23 22 51 08  	sw	t0, 132(sp)
8000da10: 83 22 c2 f1  	lw	t0, -228(tp)
8000da14: 23 20 51 08  	sw	t0, 128(sp)
8000da18: 83 22 82 f7  	lw	t0, -136(tp)
8000da1c: 23 2c 51 06  	sw	t0, 120(sp)
8000da20: 57 c0 02 5e  	<unknown>
8000da24: ef 30 9f bf  	jal	0x8000161c <__floatunsidf>
8000da28: 13 03 00 00  	li	t1, 0
8000da2c: b7 02 e0 3f  	lui	t0, 261632
8000da30: 57 41 03 5e  	<unknown>
8000da34: d7 c1 02 5e  	<unknown>
8000da38: ef 20 8f ec  	jal	0x80000100 <__muldf3>
8000da3c: 03 23 41 08  	lw	t1, 132(sp)
8000da40: 83 22 01 08  	lw	t0, 128(sp)
8000da44: 57 41 03 5e  	<unknown>
8000da48: d7 c1 02 5e  	<unknown>
8000da4c: ef 40 cf fc  	jal	0x80002218 <__adddf3>
8000da50: ef 30 1f ce  	jal	0x80001730 <__fixunsdfsi>
8000da54: 03 23 c1 07  	lw	t1, 124(sp)
8000da58: 83 22 81 07  	lw	t0, 120(sp)
8000da5c: 57 40 03 02  	vadd.vx	v0, v0, t1
8000da60: 57 e0 02 82  	vdivu.vx	v0, v0, t0
8000da64: 0b 20 80 00  	regext	zero, zero, 8
8000da68: 7b 68 00 f6  	vsw12.v	v0, -144(v0)
8000da6c: 83 22 42 f7  	lw	t0, -140(tp)
8000da70: 63 84 02 02  	beqz	t0, 0x8000da98 <.LBB21_26>
8000da74: 6f 00 40 00  	j	0x8000da78 <.LBB21_25>

8000da78 <.LBB21_25>:
8000da78: 03 23 42 f7  	lw	t1, -140(tp)
8000da7c: 83 22 02 f0  	lw	t0, -256(tp)
8000da80: 57 40 03 5e  	<unknown>
8000da84: d7 c0 02 5e  	<unknown>
8000da88: ef a0 cf a8  	jal	0x80007d14 <u64toa>
8000da8c: 0b 20 80 00  	regext	zero, zero, 8
8000da90: 7b 60 00 f0  	vsw12.v	v0, -256(v0)
8000da94: 6f 00 40 00  	j	0x8000da98 <.LBB21_26>

8000da98 <.LBB21_26>:
8000da98: 83 22 02 f7  	lw	t0, -144(tp)
8000da9c: 37 d3 cc cc  	lui	t1, 838861
8000daa0: 13 03 d3 cc  	addi	t1, t1, -819
8000daa4: 33 b3 62 02  	mulhu	t1, t0, t1
8000daa8: 13 53 33 00  	srli	t1, t1, 3
8000daac: 93 03 a0 00  	li	t2, 10
8000dab0: 33 03 73 02  	mul	t1, t1, t2
8000dab4: b3 82 62 40  	sub	t0, t0, t1
8000dab8: 93 e2 02 03  	ori	t0, t0, 48
8000dabc: 03 23 02 f0  	lw	t1, -256(tp)
8000dac0: 93 03 13 00  	addi	t2, t1, 1
8000dac4: 23 20 72 f0  	sw	t2, -256(tp)
8000dac8: 23 00 53 00  	sb	t0, 0(t1)
8000dacc: 03 23 02 f0  	lw	t1, -256(tp)
8000dad0: 93 02 00 00  	li	t0, 0
8000dad4: 23 00 53 00  	sb	t0, 0(t1)
8000dad8: 83 22 82 f0  	lw	t0, -248(tp)
8000dadc: 23 2a 52 ee  	sw	t0, -268(tp)
8000dae0: 6f 00 40 00  	j	0x8000dae4 <.LBB21_27>

8000dae4 <.LBB21_27>:
8000dae4: 5b 20 00 00  	join	zero, zero, 0
8000dae8: 83 22 42 ef  	lw	t0, -268(tp)
8000daec: 57 c0 02 5e  	<unknown>
8000daf0: 83 20 41 fd  	lw	ra, -44(sp)
8000daf4: 0b c0 00 04  	barrier	x0, x0, 1
8000daf8: 13 01 41 fd  	addi	sp, sp, -44
8000dafc: 13 02 c2 f1  	addi	tp, tp, -228
8000db00: 67 80 00 00  	ret

8000db04 <mismatch10>:
8000db04: 13 01 41 00  	addi	sp, sp, 4
8000db08: 13 02 82 01  	addi	tp, tp, 24
8000db0c: 0b 20 10 00  	regext	zero, zero, 1
8000db10: 57 40 02 5e  	<unknown>
8000db14: 23 2e 11 fe  	sw	ra, -4(sp)
8000db18: 0b 20 80 00  	regext	zero, zero, 8
8000db1c: 7b 64 00 fe  	vsw12.v	v0, -24(v0)
8000db20: 0b 20 80 00  	regext	zero, zero, 8
8000db24: 7b 66 10 fe  	vsw12.v	v1, -20(v0)
8000db28: b7 e2 0b 54  	lui	t0, 344254
8000db2c: 93 82 02 40  	addi	t0, t0, 1024
8000db30: 23 28 52 fe  	sw	t0, -16(tp)
8000db34: 83 22 82 fe  	lw	t0, -24(tp)
8000db38: 03 23 02 ff  	lw	t1, -16(tp)
8000db3c: b3 d2 62 02  	divu	t0, t0, t1
8000db40: 23 2a 52 fe  	sw	t0, -12(tp)
8000db44: 83 22 c2 fe  	lw	t0, -20(tp)
8000db48: 03 23 02 ff  	lw	t1, -16(tp)
8000db4c: b3 d2 62 02  	divu	t0, t0, t1
8000db50: 23 2c 52 fe  	sw	t0, -8(tp)
8000db54: 93 02 00 00  	li	t0, 0
8000db58: 23 2e 52 fe  	sw	t0, -4(tp)
8000db5c: 83 22 42 ff  	lw	t0, -12(tp)
8000db60: 03 23 82 ff  	lw	t1, -8(tp)
8000db64: 63 82 62 02  	beq	t0, t1, 0x8000db88 <.LBB22_2>
8000db68: 6f 00 40 00  	j	0x8000db6c <.LBB22_1>

8000db6c <.LBB22_1>:
8000db6c: 93 02 a0 00  	li	t0, 10
8000db70: 23 2e 52 fe  	sw	t0, -4(tp)
8000db74: 83 22 42 ff  	lw	t0, -12(tp)
8000db78: 23 24 52 fe  	sw	t0, -24(tp)
8000db7c: 83 22 82 ff  	lw	t0, -8(tp)
8000db80: 23 26 52 fe  	sw	t0, -20(tp)
8000db84: 6f 00 40 00  	j	0x8000db88 <.LBB22_2>

8000db88 <.LBB22_2>:
8000db88: 6f 00 40 00  	j	0x8000db8c <.LBB22_3>

8000db8c <.LBB22_3>:
8000db8c: 83 22 82 fe  	lw	t0, -24(tp)
8000db90: 37 d3 cc cc  	lui	t1, 838861
8000db94: 13 03 d3 cc  	addi	t1, t1, -819
8000db98: b3 b2 62 02  	mulhu	t0, t0, t1
8000db9c: 93 d2 32 00  	srli	t0, t0, 3
8000dba0: 23 24 52 fe  	sw	t0, -24(tp)
8000dba4: 83 22 c2 fe  	lw	t0, -20(tp)
8000dba8: b3 b2 62 02  	mulhu	t0, t0, t1
8000dbac: 93 d2 32 00  	srli	t0, t0, 3
8000dbb0: 23 26 52 fe  	sw	t0, -20(tp)
8000dbb4: 83 22 82 fe  	lw	t0, -24(tp)
8000dbb8: 03 23 c2 fe  	lw	t1, -20(tp)
8000dbbc: 63 92 62 02  	bne	t0, t1, 0x8000dbe0 <.LBB22_5>
8000dbc0: 6f 00 40 00  	j	0x8000dbc4 <.LBB22_4>

8000dbc4 <.LBB22_4>:
8000dbc4: 83 22 c2 ff  	lw	t0, -4(tp)
8000dbc8: 57 c0 02 5e  	<unknown>
8000dbcc: 83 20 c1 ff  	lw	ra, -4(sp)
8000dbd0: 0b c0 00 04  	barrier	x0, x0, 1
8000dbd4: 13 01 c1 ff  	addi	sp, sp, -4
8000dbd8: 13 02 82 fe  	addi	tp, tp, -24
8000dbdc: 67 80 00 00  	ret

8000dbe0 <.LBB22_5>:
8000dbe0: 6f 00 40 00  	j	0x8000dbe4 <.LBB22_6>

8000dbe4 <.LBB22_6>:
8000dbe4: 83 22 c2 ff  	lw	t0, -4(tp)
8000dbe8: 93 82 12 00  	addi	t0, t0, 1
8000dbec: 23 2e 52 fe  	sw	t0, -4(tp)
8000dbf0: 6f f0 df f9  	j	0x8000db8c <.LBB22_3>

8000dbf4 <split>:
8000dbf4: 13 01 41 00  	addi	sp, sp, 4
8000dbf8: 13 02 82 01  	addi	tp, tp, 24
8000dbfc: 0b 20 10 00  	regext	zero, zero, 1
8000dc00: 57 40 02 5e  	<unknown>
8000dc04: 23 2e 11 fe  	sw	ra, -4(sp)
8000dc08: 0b 20 80 00  	regext	zero, zero, 8
8000dc0c: 7b 68 10 fe  	vsw12.v	v1, -16(v0)
8000dc10: 0b 20 80 00  	regext	zero, zero, 8
8000dc14: 7b 66 00 fe  	vsw12.v	v0, -20(v0)
8000dc18: 0b 20 80 00  	regext	zero, zero, 8
8000dc1c: 7b 6a 20 fe  	vsw12.v	v2, -12(v0)
8000dc20: 0b 20 80 00  	regext	zero, zero, 8
8000dc24: 7b 6c 30 fe  	vsw12.v	v3, -8(v0)
8000dc28: 83 22 02 ff  	lw	t0, -16(tp)
8000dc2c: 03 23 c2 fe  	lw	t1, -20(tp)
8000dc30: 57 40 03 5e  	<unknown>
8000dc34: d7 c0 02 5e  	<unknown>
8000dc38: ef 00 80 06  	jal	0x8000dca0 <gethi>
8000dc3c: 83 22 42 ff  	lw	t0, -12(tp)
8000dc40: 57 c1 02 5e  	<unknown>
8000dc44: 7b 62 11 00  	vsw12.v	v1, 4(v2)
8000dc48: d7 c0 02 5e  	<unknown>
8000dc4c: 7b e0 00 00  	vsw12.v	v0, 0(v1)
8000dc50: 03 24 c2 fe  	lw	s0, -20(tp)
8000dc54: 83 23 02 ff  	lw	t2, -16(tp)
8000dc58: 83 22 42 ff  	lw	t0, -12(tp)
8000dc5c: 03 a3 02 00  	lw	t1, 0(t0)
8000dc60: 83 a2 42 00  	lw	t0, 4(t0)
8000dc64: 57 40 04 5e  	<unknown>
8000dc68: d7 c0 03 5e  	<unknown>
8000dc6c: 57 41 03 5e  	<unknown>
8000dc70: d7 c1 02 5e  	<unknown>
8000dc74: ef 40 df fe  	jal	0x80002c60 <__subdf3>
8000dc78: 83 22 82 ff  	lw	t0, -8(tp)
8000dc7c: 57 c1 02 5e  	<unknown>
8000dc80: 7b 62 11 00  	vsw12.v	v1, 4(v2)
8000dc84: d7 c0 02 5e  	<unknown>
8000dc88: 7b e0 00 00  	vsw12.v	v0, 0(v1)
8000dc8c: 83 20 c1 ff  	lw	ra, -4(sp)
8000dc90: 0b c0 00 04  	barrier	x0, x0, 1
8000dc94: 13 01 c1 ff  	addi	sp, sp, -4
8000dc98: 13 02 82 fe  	addi	tp, tp, -24
8000dc9c: 67 80 00 00  	ret

8000dca0 <gethi>:
8000dca0: 13 01 41 00  	addi	sp, sp, 4
8000dca4: 13 02 02 02  	addi	tp, tp, 32
8000dca8: 0b 20 10 00  	regext	zero, zero, 1
8000dcac: 57 40 02 5e  	<unknown>
8000dcb0: 23 2e 11 fe  	sw	ra, -4(sp)
8000dcb4: 0b 20 80 00  	regext	zero, zero, 8
8000dcb8: 7b 64 10 fe  	vsw12.v	v1, -24(v0)
8000dcbc: 0b 20 80 00  	regext	zero, zero, 8
8000dcc0: 7b 62 00 fe  	vsw12.v	v0, -28(v0)
8000dcc4: 83 22 42 fe  	lw	t0, -28(tp)
8000dcc8: 03 23 82 fe  	lw	t1, -24(tp)
8000dccc: 23 28 62 fe  	sw	t1, -16(tp)
8000dcd0: 23 26 52 fe  	sw	t0, -20(tp)
8000dcd4: 83 22 c2 fe  	lw	t0, -20(tp)
8000dcd8: 37 03 00 f8  	lui	t1, 1015808
8000dcdc: b3 f2 62 00  	and	t0, t0, t1
8000dce0: 23 26 52 fe  	sw	t0, -20(tp)
8000dce4: 03 23 c2 fe  	lw	t1, -20(tp)
8000dce8: 83 22 02 ff  	lw	t0, -16(tp)
8000dcec: 57 40 03 5e  	<unknown>
8000dcf0: d7 c0 02 5e  	<unknown>
8000dcf4: 83 20 c1 ff  	lw	ra, -4(sp)
8000dcf8: 0b c0 00 04  	barrier	x0, x0, 1
8000dcfc: 13 01 c1 ff  	addi	sp, sp, -4
8000dd00: 13 02 02 fe  	addi	tp, tp, -32
8000dd04: 67 80 00 00  	ret
