
saxpy.riscv:     file format elf64-littleriscv


Disassembly of section .text:

0000000080000000 <_start>:
    80000000:	00000093          	li	ra,0
    80000004:	00000113          	li	sp,0
    80000008:	00000193          	li	gp,0
    8000000c:	00000213          	li	tp,0
    80000010:	00000293          	li	t0,0
    80000014:	00000313          	li	t1,0
    80000018:	00000393          	li	t2,0
    8000001c:	00000413          	li	s0,0
    80000020:	00000493          	li	s1,0
    80000024:	00000513          	li	a0,0
    80000028:	00000593          	li	a1,0
    8000002c:	00000613          	li	a2,0
    80000030:	00000693          	li	a3,0
    80000034:	00000713          	li	a4,0
    80000038:	00000793          	li	a5,0
    8000003c:	00000813          	li	a6,0
    80000040:	00000893          	li	a7,0
    80000044:	00000913          	li	s2,0
    80000048:	00000993          	li	s3,0
    8000004c:	00000a13          	li	s4,0
    80000050:	00000a93          	li	s5,0
    80000054:	00000b13          	li	s6,0
    80000058:	00000b93          	li	s7,0
    8000005c:	00000c13          	li	s8,0
    80000060:	00000c93          	li	s9,0
    80000064:	00000d13          	li	s10,0
    80000068:	00000d93          	li	s11,0
    8000006c:	00000e13          	li	t3,0
    80000070:	00000e93          	li	t4,0
    80000074:	00000f13          	li	t5,0
    80000078:	00000f93          	li	t6,0
    8000007c:	0001e2b7          	lui	t0,0x1e
    80000080:	3002a073          	csrs	mstatus,t0
    80000084:	00000297          	auipc	t0,0x0
    80000088:	09028293          	addi	t0,t0,144 # 80000114 <_start+0x114>
    8000008c:	30529073          	csrw	mtvec,t0
    80000090:	00301073          	fscsr	zero
    80000094:	f0000053          	fmv.w.x	ft0,zero
    80000098:	f00000d3          	fmv.w.x	ft1,zero
    8000009c:	f0000153          	fmv.w.x	ft2,zero
    800000a0:	f00001d3          	fmv.w.x	ft3,zero
    800000a4:	f0000253          	fmv.w.x	ft4,zero
    800000a8:	f00002d3          	fmv.w.x	ft5,zero
    800000ac:	f0000353          	fmv.w.x	ft6,zero
    800000b0:	f00003d3          	fmv.w.x	ft7,zero
    800000b4:	f0000453          	fmv.w.x	fs0,zero
    800000b8:	f00004d3          	fmv.w.x	fs1,zero
    800000bc:	f0000553          	fmv.w.x	fa0,zero
    800000c0:	f00005d3          	fmv.w.x	fa1,zero
    800000c4:	f0000653          	fmv.w.x	fa2,zero
    800000c8:	f00006d3          	fmv.w.x	fa3,zero
    800000cc:	f0000753          	fmv.w.x	fa4,zero
    800000d0:	f00007d3          	fmv.w.x	fa5,zero
    800000d4:	f0000853          	fmv.w.x	fa6,zero
    800000d8:	f00008d3          	fmv.w.x	fa7,zero
    800000dc:	f0000953          	fmv.w.x	fs2,zero
    800000e0:	f00009d3          	fmv.w.x	fs3,zero
    800000e4:	f0000a53          	fmv.w.x	fs4,zero
    800000e8:	f0000ad3          	fmv.w.x	fs5,zero
    800000ec:	f0000b53          	fmv.w.x	fs6,zero
    800000f0:	f0000bd3          	fmv.w.x	fs7,zero
    800000f4:	f0000c53          	fmv.w.x	fs8,zero
    800000f8:	f0000cd3          	fmv.w.x	fs9,zero
    800000fc:	f0000d53          	fmv.w.x	fs10,zero
    80000100:	f0000dd3          	fmv.w.x	fs11,zero
    80000104:	f0000e53          	fmv.w.x	ft8,zero
    80000108:	f0000ed3          	fmv.w.x	ft9,zero
    8000010c:	f0000f53          	fmv.w.x	ft10,zero
    80000110:	f0000fd3          	fmv.w.x	ft11,zero
    80000114:	00001197          	auipc	gp,0x1
    80000118:	2ac18193          	addi	gp,gp,684 # 800013c0 <__global_pointer$>
    8000011c:	f1402473          	csrr	s0,mhartid
    80000120:	00f00293          	li	t0,15
    80000124:	00021217          	auipc	tp,0x21
    80000128:	edc20213          	addi	tp,tp,-292 # 80021000 <__stack_start>
    8000012c:	005412b3          	sll	t0,s0,t0
    80000130:	00520233          	add	tp,tp,t0
    80000134:	000082b7          	lui	t0,0x8
    80000138:	00028293          	mv	t0,t0
    8000013c:	00520133          	add	sp,tp,t0
    80000140:	00000297          	auipc	t0,0x0
    80000144:	04828293          	addi	t0,t0,72 # 80000188 <trap_entry>
    80000148:	30529073          	csrw	mtvec,t0
    8000014c:	274000ef          	jal	ra,800003c0 <__init_tls>
    80000150:	00000293          	li	t0,0
    80000154:	00540463          	beq	s0,t0,8000015c <_start+0x15c>
    80000158:	1840006f          	j	800002dc <_start_secondary>
    8000015c:	82018293          	addi	t0,gp,-2016 # 80000be0 <htif_lock>
    80000160:	95818313          	addi	t1,gp,-1704 # 80000d18 <__bss_end>
    80000164:	0062f863          	bgeu	t0,t1,80000174 <_start+0x174>
    80000168:	0002b023          	sd	zero,0(t0)
    8000016c:	00828293          	addi	t0,t0,8
    80000170:	fe62ece3          	bltu	t0,t1,80000168 <_start+0x168>
    80000174:	00000517          	auipc	a0,0x0
    80000178:	37c50513          	addi	a0,a0,892 # 800004f0 <__libc_fini_array>
    8000017c:	324000ef          	jal	ra,800004a0 <atexit>
    80000180:	3c8000ef          	jal	ra,80000548 <__libc_init_array>
    80000184:	1300006f          	j	800002b4 <_start_main>

0000000080000188 <trap_entry>:
    80000188:	34011073          	csrw	mscratch,sp
    8000018c:	f0010113          	addi	sp,sp,-256
    80000190:	00113423          	sd	ra,8(sp)
    80000194:	340020f3          	csrr	ra,mscratch
    80000198:	00113823          	sd	ra,16(sp)
    8000019c:	00313c23          	sd	gp,24(sp)
    800001a0:	02413023          	sd	tp,32(sp)
    800001a4:	02513423          	sd	t0,40(sp)
    800001a8:	02613823          	sd	t1,48(sp)
    800001ac:	02713c23          	sd	t2,56(sp)
    800001b0:	04813023          	sd	s0,64(sp)
    800001b4:	04913423          	sd	s1,72(sp)
    800001b8:	04a13823          	sd	a0,80(sp)
    800001bc:	04b13c23          	sd	a1,88(sp)
    800001c0:	06c13023          	sd	a2,96(sp)
    800001c4:	06d13423          	sd	a3,104(sp)
    800001c8:	06e13823          	sd	a4,112(sp)
    800001cc:	06f13c23          	sd	a5,120(sp)
    800001d0:	09013023          	sd	a6,128(sp)
    800001d4:	09113423          	sd	a7,136(sp)
    800001d8:	09213823          	sd	s2,144(sp)
    800001dc:	09313c23          	sd	s3,152(sp)
    800001e0:	0b413023          	sd	s4,160(sp)
    800001e4:	0b513423          	sd	s5,168(sp)
    800001e8:	0b613823          	sd	s6,176(sp)
    800001ec:	0b713c23          	sd	s7,184(sp)
    800001f0:	0d813023          	sd	s8,192(sp)
    800001f4:	0d913423          	sd	s9,200(sp)
    800001f8:	0da13823          	sd	s10,208(sp)
    800001fc:	0db13c23          	sd	s11,216(sp)
    80000200:	0fc13023          	sd	t3,224(sp)
    80000204:	0fd13423          	sd	t4,232(sp)
    80000208:	0fe13823          	sd	t5,240(sp)
    8000020c:	0ff13c23          	sd	t6,248(sp)
    80000210:	34102573          	csrr	a0,mepc
    80000214:	342025f3          	csrr	a1,mcause
    80000218:	34302673          	csrr	a2,mtval
    8000021c:	00010693          	mv	a3,sp
    80000220:	184000ef          	jal	ra,800003a4 <handle_trap>
    80000224:	34151073          	csrw	mepc,a0
    80000228:	000022b7          	lui	t0,0x2
    8000022c:	8002829b          	addiw	t0,t0,-2048 # 1800 <CSR_GDS+0xff9>
    80000230:	3002a073          	csrs	mstatus,t0
    80000234:	00813083          	ld	ra,8(sp)
    80000238:	01813183          	ld	gp,24(sp)
    8000023c:	02013203          	ld	tp,32(sp)
    80000240:	02813283          	ld	t0,40(sp)
    80000244:	03013303          	ld	t1,48(sp)
    80000248:	03813383          	ld	t2,56(sp)
    8000024c:	04013403          	ld	s0,64(sp)
    80000250:	04813483          	ld	s1,72(sp)
    80000254:	05013503          	ld	a0,80(sp)
    80000258:	05813583          	ld	a1,88(sp)
    8000025c:	06013603          	ld	a2,96(sp)
    80000260:	06813683          	ld	a3,104(sp)
    80000264:	07013703          	ld	a4,112(sp)
    80000268:	07813783          	ld	a5,120(sp)
    8000026c:	08013803          	ld	a6,128(sp)
    80000270:	08813883          	ld	a7,136(sp)
    80000274:	09013903          	ld	s2,144(sp)
    80000278:	09813983          	ld	s3,152(sp)
    8000027c:	0a013a03          	ld	s4,160(sp)
    80000280:	0a813a83          	ld	s5,168(sp)
    80000284:	0b013b03          	ld	s6,176(sp)
    80000288:	0b813b83          	ld	s7,184(sp)
    8000028c:	0c013c03          	ld	s8,192(sp)
    80000290:	0c813c83          	ld	s9,200(sp)
    80000294:	0d013d03          	ld	s10,208(sp)
    80000298:	0d813d83          	ld	s11,216(sp)
    8000029c:	0e013e03          	ld	t3,224(sp)
    800002a0:	0e813e83          	ld	t4,232(sp)
    800002a4:	0f013f03          	ld	t5,240(sp)
    800002a8:	0f813f83          	ld	t6,248(sp)
    800002ac:	01013103          	ld	sp,16(sp)
    800002b0:	30200073          	mret

00000000800002b4 <_start_main>:
    800002b4:	fff00293          	li	t0,-1
    800002b8:	0110000f          	fence	w,w
    800002bc:	8251ac23          	sw	t0,-1992(gp) # 80000bf8 <__boot_sync>
    800002c0:	00100513          	li	a0,1
    800002c4:	00000597          	auipc	a1,0x0
    800002c8:	53c58593          	addi	a1,a1,1340 # 80000800 <argv>
    800002cc:	00001617          	auipc	a2,0x1
    800002d0:	8f463603          	ld	a2,-1804(a2) # 80000bc0 <environ>
    800002d4:	030000ef          	jal	ra,80000304 <__main>
    800002d8:	1dc0006f          	j	800004b4 <exit>

00000000800002dc <_start_secondary>:
    800002dc:	8381a283          	lw	t0,-1992(gp) # 80000bf8 <__boot_sync>
    800002e0:	fe028ee3          	beqz	t0,800002dc <_start_secondary>
    800002e4:	0220000f          	fence	r,r
    800002e8:	00100513          	li	a0,1
    800002ec:	00000597          	auipc	a1,0x0
    800002f0:	51458593          	addi	a1,a1,1300 # 80000800 <argv>
    800002f4:	00001617          	auipc	a2,0x1
    800002f8:	8cc63603          	ld	a2,-1844(a2) # 80000bc0 <environ>
    800002fc:	008000ef          	jal	ra,80000304 <__main>
    80000300:	1b40006f          	j	800004b4 <exit>

0000000080000304 <__main>:
    80000304:	ff010113          	addi	sp,sp,-16
    80000308:	00813423          	sd	s0,8(sp)
    8000030c:	01010413          	addi	s0,sp,16
    80000310:	02000e93          	li	t4,32
    80000314:	0d0efed7          	vsetvli	t4,t4,e32,m1,ta,ma
    80000318:	00000e93          	li	t4,0
    8000031c:	0180006f          	j	80000334 <saxpy>

0000000080000320 <main_end>:
    80000320:	00000793          	li	a5,0
    80000324:	00078513          	mv	a0,a5
    80000328:	00813403          	ld	s0,8(sp)
    8000032c:	01010113          	addi	sp,sp,16
    80000330:	00008067          	ret

0000000080000334 <saxpy>:
    80000334:	807022f3          	csrr	t0,gds
    80000338:	00000297          	auipc	t0,0x0
    8000033c:	55828293          	addi	t0,t0,1368 # 80000890 <global_data>
    80000340:	80002373          	csrr	t1,tid
    80000344:	5208a3d7          	vid.v	v7
    80000348:	02734457          	vadd.vx	v8,v7,t1
    8000034c:	0002a383          	lw	t2,0(t0)
    80000350:	5e03c4d7          	vmv.v.x	v9,t2
    80000354:	0284da0b          	vbge	v8,v9,80000388 <L_END>
    80000358:	0042aa03          	lw	s4,4(t0)
    8000035c:	01f38393          	addi	t2,t2,31
    80000360:	0053d393          	srli	t2,t2,0x5
    80000364:	00739393          	slli	t2,t2,0x7
    80000368:	00231313          	slli	t1,t1,0x2
    8000036c:	08028513          	addi	a0,t0,128
    80000370:	00650533          	add	a0,a0,t1
    80000374:	02056507          	vle32.v	v10,(a0)
    80000378:	007505b3          	add	a1,a0,t2
    8000037c:	0205e587          	vle32.v	v11,(a1)
    80000380:	b2aa55d7          	vfmacc.vf	v11,fs4,v10
    80000384:	0205e5a7          	vse32.v	v11,(a1)

0000000080000388 <L_END>:
    80000388:	0000340b          	join	v0,v0,80000390 <L_ENDPRG>
    8000038c:	0000320b          	join	v0,v0,80000390 <L_ENDPRG>

0000000080000390 <L_ENDPRG>:
    80000390:	0200200b          	barrier	zero,zero,zero
    80000394:	0000200b          	endprg	zero,zero,zero
    80000398:	0000200b          	endprg	zero,zero,zero
    8000039c:	0000200b          	endprg	zero,zero,zero
    800003a0:	f81ff06f          	j	80000320 <main_end>

00000000800003a4 <handle_trap>:
    800003a4:	ff010113          	addi	sp,sp,-16
    800003a8:	02159513          	slli	a0,a1,0x21
    800003ac:	00113423          	sd	ra,8(sp)
    800003b0:	02155513          	srli	a0,a0,0x21
    800003b4:	0005d463          	bgez	a1,800003bc <handle_trap+0x18>
    800003b8:	40a0053b          	negw	a0,a0
    800003bc:	048000ef          	jal	ra,80000404 <_exit>

00000000800003c0 <__init_tls>:
    800003c0:	ff010113          	addi	sp,sp,-16
    800003c4:	00000613          	li	a2,0
    800003c8:	00000597          	auipc	a1,0x0
    800003cc:	43458593          	addi	a1,a1,1076 # 800007fc <__tbss_end>
    800003d0:	00020513          	mv	a0,tp
    800003d4:	00813023          	sd	s0,0(sp)
    800003d8:	00113423          	sd	ra,8(sp)
    800003dc:	00020413          	mv	s0,tp
    800003e0:	1fc000ef          	jal	ra,800005dc <memcpy>
    800003e4:	00000513          	li	a0,0
    800003e8:	00a40533          	add	a0,s0,a0
    800003ec:	00013403          	ld	s0,0(sp)
    800003f0:	00813083          	ld	ra,8(sp)
    800003f4:	00000613          	li	a2,0
    800003f8:	00000593          	li	a1,0
    800003fc:	01010113          	addi	sp,sp,16
    80000400:	2000006f          	j	80000600 <memset>

0000000080000404 <_exit>:
    80000404:	0015179b          	slliw	a5,a0,0x1
    80000408:	0017e793          	ori	a5,a5,1
    8000040c:	0007879b          	sext.w	a5,a5
    80000410:	01079793          	slli	a5,a5,0x10
    80000414:	0107d793          	srli	a5,a5,0x10
    80000418:	00000717          	auipc	a4,0x0
    8000041c:	46870713          	addi	a4,a4,1128 # 80000880 <tohost>
    80000420:	00000697          	auipc	a3,0x0
    80000424:	4606b423          	sd	zero,1128(a3) # 80000888 <fromhost>
    80000428:	00f73023          	sd	a5,0(a4)
    8000042c:	ff5ff06f          	j	80000420 <_exit+0x1c>

0000000080000430 <htif_syscall>:
    80000430:	fc010113          	addi	sp,sp,-64
    80000434:	00d13023          	sd	a3,0(sp)
    80000438:	00a13423          	sd	a0,8(sp)
    8000043c:	00b13823          	sd	a1,16(sp)
    80000440:	fff00793          	li	a5,-1
    80000444:	00c13c23          	sd	a2,24(sp)
    80000448:	0107d793          	srli	a5,a5,0x10
    8000044c:	00010613          	mv	a2,sp
    80000450:	00f67633          	and	a2,a2,a5
    80000454:	82018713          	addi	a4,gp,-2016 # 80000be0 <htif_lock>
    80000458:	fff00693          	li	a3,-1
    8000045c:	00072783          	lw	a5,0(a4)
    80000460:	fe079ee3          	bnez	a5,8000045c <htif_syscall+0x2c>
    80000464:	0cd727af          	amoswap.w.aq	a5,a3,(a4)
    80000468:	fe079ae3          	bnez	a5,8000045c <htif_syscall+0x2c>
    8000046c:	0110000f          	fence	w,w
    80000470:	00000697          	auipc	a3,0x0
    80000474:	41068693          	addi	a3,a3,1040 # 80000880 <tohost>
    80000478:	00c6b023          	sd	a2,0(a3)
    8000047c:	0086b783          	ld	a5,8(a3)
    80000480:	fe078ee3          	beqz	a5,8000047c <htif_syscall+0x4c>
    80000484:	00000797          	auipc	a5,0x0
    80000488:	4007b223          	sd	zero,1028(a5) # 80000888 <fromhost>
    8000048c:	0a07202f          	amoswap.w.rl	zero,zero,(a4)
    80000490:	0220000f          	fence	r,r
    80000494:	00013503          	ld	a0,0(sp)
    80000498:	04010113          	addi	sp,sp,64
    8000049c:	00008067          	ret

00000000800004a0 <atexit>:
    800004a0:	00050593          	mv	a1,a0
    800004a4:	00000693          	li	a3,0
    800004a8:	00000613          	li	a2,0
    800004ac:	00000513          	li	a0,0
    800004b0:	16c0006f          	j	8000061c <__register_exitproc>

00000000800004b4 <exit>:
    800004b4:	ff010113          	addi	sp,sp,-16
    800004b8:	00813023          	sd	s0,0(sp)
    800004bc:	00113423          	sd	ra,8(sp)
    800004c0:	00000797          	auipc	a5,0x0
    800004c4:	20478793          	addi	a5,a5,516 # 800006c4 <__call_exitprocs>
    800004c8:	00050413          	mv	s0,a0
    800004cc:	00078663          	beqz	a5,800004d8 <exit+0x24>
    800004d0:	00000593          	li	a1,0
    800004d4:	1f0000ef          	jal	ra,800006c4 <__call_exitprocs>
    800004d8:	8181b503          	ld	a0,-2024(gp) # 80000bd8 <_global_impure_ptr>
    800004dc:	04853783          	ld	a5,72(a0)
    800004e0:	00078463          	beqz	a5,800004e8 <exit+0x34>
    800004e4:	000780e7          	jalr	a5
    800004e8:	00040513          	mv	a0,s0
    800004ec:	f19ff0ef          	jal	ra,80000404 <_exit>

00000000800004f0 <__libc_fini_array>:
    800004f0:	fe010113          	addi	sp,sp,-32
    800004f4:	00813823          	sd	s0,16(sp)
    800004f8:	00913423          	sd	s1,8(sp)
    800004fc:	00000417          	auipc	s0,0x0
    80000500:	34c40413          	addi	s0,s0,844 # 80000848 <__fini_array_end>
    80000504:	00000497          	auipc	s1,0x0
    80000508:	34448493          	addi	s1,s1,836 # 80000848 <__fini_array_end>
    8000050c:	40940433          	sub	s0,s0,s1
    80000510:	00113c23          	sd	ra,24(sp)
    80000514:	40345413          	srai	s0,s0,0x3
    80000518:	00041c63          	bnez	s0,80000530 <__libc_fini_array+0x40>
    8000051c:	01813083          	ld	ra,24(sp)
    80000520:	01013403          	ld	s0,16(sp)
    80000524:	00813483          	ld	s1,8(sp)
    80000528:	02010113          	addi	sp,sp,32
    8000052c:	00008067          	ret
    80000530:	fff40413          	addi	s0,s0,-1
    80000534:	00341793          	slli	a5,s0,0x3
    80000538:	00f487b3          	add	a5,s1,a5
    8000053c:	0007b783          	ld	a5,0(a5)
    80000540:	000780e7          	jalr	a5
    80000544:	fd5ff06f          	j	80000518 <__libc_fini_array+0x28>

0000000080000548 <__libc_init_array>:
    80000548:	fe010113          	addi	sp,sp,-32
    8000054c:	00813823          	sd	s0,16(sp)
    80000550:	00913423          	sd	s1,8(sp)
    80000554:	00000417          	auipc	s0,0x0
    80000558:	2f440413          	addi	s0,s0,756 # 80000848 <__fini_array_end>
    8000055c:	00000497          	auipc	s1,0x0
    80000560:	2ec48493          	addi	s1,s1,748 # 80000848 <__fini_array_end>
    80000564:	408484b3          	sub	s1,s1,s0
    80000568:	01213023          	sd	s2,0(sp)
    8000056c:	00113c23          	sd	ra,24(sp)
    80000570:	4034d493          	srai	s1,s1,0x3
    80000574:	00000913          	li	s2,0
    80000578:	02991e63          	bne	s2,s1,800005b4 <__libc_init_array+0x6c>
    8000057c:	00000417          	auipc	s0,0x0
    80000580:	2cc40413          	addi	s0,s0,716 # 80000848 <__fini_array_end>
    80000584:	00000497          	auipc	s1,0x0
    80000588:	2c448493          	addi	s1,s1,708 # 80000848 <__fini_array_end>
    8000058c:	408484b3          	sub	s1,s1,s0
    80000590:	4034d493          	srai	s1,s1,0x3
    80000594:	00000913          	li	s2,0
    80000598:	02991863          	bne	s2,s1,800005c8 <__libc_init_array+0x80>
    8000059c:	01813083          	ld	ra,24(sp)
    800005a0:	01013403          	ld	s0,16(sp)
    800005a4:	00813483          	ld	s1,8(sp)
    800005a8:	00013903          	ld	s2,0(sp)
    800005ac:	02010113          	addi	sp,sp,32
    800005b0:	00008067          	ret
    800005b4:	00043783          	ld	a5,0(s0)
    800005b8:	00190913          	addi	s2,s2,1
    800005bc:	00840413          	addi	s0,s0,8
    800005c0:	000780e7          	jalr	a5
    800005c4:	fb5ff06f          	j	80000578 <__libc_init_array+0x30>
    800005c8:	00043783          	ld	a5,0(s0)
    800005cc:	00190913          	addi	s2,s2,1
    800005d0:	00840413          	addi	s0,s0,8
    800005d4:	000780e7          	jalr	a5
    800005d8:	fc1ff06f          	j	80000598 <__libc_init_array+0x50>

00000000800005dc <memcpy>:
    800005dc:	00050313          	mv	t1,a0
    800005e0:	00060e63          	beqz	a2,800005fc <memcpy+0x20>
    800005e4:	00058383          	lb	t2,0(a1)
    800005e8:	00730023          	sb	t2,0(t1)
    800005ec:	fff60613          	addi	a2,a2,-1
    800005f0:	00130313          	addi	t1,t1,1
    800005f4:	00158593          	addi	a1,a1,1
    800005f8:	fe0616e3          	bnez	a2,800005e4 <memcpy+0x8>
    800005fc:	00008067          	ret

0000000080000600 <memset>:
    80000600:	00050313          	mv	t1,a0
    80000604:	00060a63          	beqz	a2,80000618 <memset+0x18>
    80000608:	00b30023          	sb	a1,0(t1)
    8000060c:	fff60613          	addi	a2,a2,-1
    80000610:	00130313          	addi	t1,t1,1
    80000614:	fe061ae3          	bnez	a2,80000608 <memset+0x8>
    80000618:	00008067          	ret

000000008000061c <__register_exitproc>:
    8000061c:	00050893          	mv	a7,a0
    80000620:	83018513          	addi	a0,gp,-2000 # 80000bf0 <_global_atexit>
    80000624:	00053703          	ld	a4,0(a0)
    80000628:	02071463          	bnez	a4,80000650 <__register_exitproc+0x34>
    8000062c:	00000797          	auipc	a5,0x0
    80000630:	5d478793          	addi	a5,a5,1492 # 80000c00 <_global_atexit0>
    80000634:	00f53023          	sd	a5,0(a0)
    80000638:	00000713          	li	a4,0
    8000063c:	00070663          	beqz	a4,80000648 <__register_exitproc+0x2c>
    80000640:	00073703          	ld	a4,0(a4)
    80000644:	10e7b823          	sd	a4,272(a5)
    80000648:	00000717          	auipc	a4,0x0
    8000064c:	5b870713          	addi	a4,a4,1464 # 80000c00 <_global_atexit0>
    80000650:	00872783          	lw	a5,8(a4)
    80000654:	01f00813          	li	a6,31
    80000658:	fff00513          	li	a0,-1
    8000065c:	06f84263          	blt	a6,a5,800006c0 <__register_exitproc+0xa4>
    80000660:	04088263          	beqz	a7,800006a4 <__register_exitproc+0x88>
    80000664:	11073803          	ld	a6,272(a4)
    80000668:	04080c63          	beqz	a6,800006c0 <__register_exitproc+0xa4>
    8000066c:	00379513          	slli	a0,a5,0x3
    80000670:	00a80533          	add	a0,a6,a0
    80000674:	00c53023          	sd	a2,0(a0)
    80000678:	20082303          	lw	t1,512(a6)
    8000067c:	00100613          	li	a2,1
    80000680:	00f6163b          	sllw	a2,a2,a5
    80000684:	00c36333          	or	t1,t1,a2
    80000688:	20682023          	sw	t1,512(a6)
    8000068c:	10d53023          	sd	a3,256(a0)
    80000690:	00200693          	li	a3,2
    80000694:	00d89863          	bne	a7,a3,800006a4 <__register_exitproc+0x88>
    80000698:	20482683          	lw	a3,516(a6)
    8000069c:	00c6e6b3          	or	a3,a3,a2
    800006a0:	20d82223          	sw	a3,516(a6)
    800006a4:	0017869b          	addiw	a3,a5,1
    800006a8:	00278793          	addi	a5,a5,2
    800006ac:	00379793          	slli	a5,a5,0x3
    800006b0:	00d72423          	sw	a3,8(a4)
    800006b4:	00f70733          	add	a4,a4,a5
    800006b8:	00b73023          	sd	a1,0(a4)
    800006bc:	00000513          	li	a0,0
    800006c0:	00008067          	ret

00000000800006c4 <__call_exitprocs>:
    800006c4:	fa010113          	addi	sp,sp,-96
    800006c8:	03413823          	sd	s4,48(sp)
    800006cc:	03513423          	sd	s5,40(sp)
    800006d0:	03613023          	sd	s6,32(sp)
    800006d4:	01713c23          	sd	s7,24(sp)
    800006d8:	04113c23          	sd	ra,88(sp)
    800006dc:	04813823          	sd	s0,80(sp)
    800006e0:	04913423          	sd	s1,72(sp)
    800006e4:	05213023          	sd	s2,64(sp)
    800006e8:	03313c23          	sd	s3,56(sp)
    800006ec:	01813823          	sd	s8,16(sp)
    800006f0:	01913423          	sd	s9,8(sp)
    800006f4:	00050a93          	mv	s5,a0
    800006f8:	00058a13          	mv	s4,a1
    800006fc:	83018b13          	addi	s6,gp,-2000 # 80000bf0 <_global_atexit>
    80000700:	00100b93          	li	s7,1
    80000704:	000b3483          	ld	s1,0(s6)
    80000708:	02048063          	beqz	s1,80000728 <__call_exitprocs+0x64>
    8000070c:	0084a403          	lw	s0,8(s1)
    80000710:	1104b983          	ld	s3,272(s1)
    80000714:	fff4091b          	addiw	s2,s0,-1
    80000718:	00341413          	slli	s0,s0,0x3
    8000071c:	00898cb3          	add	s9,s3,s0
    80000720:	00848433          	add	s0,s1,s0
    80000724:	02095c63          	bgez	s2,8000075c <__call_exitprocs+0x98>
    80000728:	05813083          	ld	ra,88(sp)
    8000072c:	05013403          	ld	s0,80(sp)
    80000730:	04813483          	ld	s1,72(sp)
    80000734:	04013903          	ld	s2,64(sp)
    80000738:	03813983          	ld	s3,56(sp)
    8000073c:	03013a03          	ld	s4,48(sp)
    80000740:	02813a83          	ld	s5,40(sp)
    80000744:	02013b03          	ld	s6,32(sp)
    80000748:	01813b83          	ld	s7,24(sp)
    8000074c:	01013c03          	ld	s8,16(sp)
    80000750:	00813c83          	ld	s9,8(sp)
    80000754:	06010113          	addi	sp,sp,96
    80000758:	00008067          	ret
    8000075c:	020a0063          	beqz	s4,8000077c <__call_exitprocs+0xb8>
    80000760:	00099a63          	bnez	s3,80000774 <__call_exitprocs+0xb0>
    80000764:	fff9091b          	addiw	s2,s2,-1
    80000768:	ff8c8c93          	addi	s9,s9,-8
    8000076c:	ff840413          	addi	s0,s0,-8
    80000770:	fb5ff06f          	j	80000724 <__call_exitprocs+0x60>
    80000774:	0f8cb783          	ld	a5,248(s9)
    80000778:	ff4796e3          	bne	a5,s4,80000764 <__call_exitprocs+0xa0>
    8000077c:	0084a783          	lw	a5,8(s1)
    80000780:	00843703          	ld	a4,8(s0)
    80000784:	fff7879b          	addiw	a5,a5,-1
    80000788:	05279063          	bne	a5,s2,800007c8 <__call_exitprocs+0x104>
    8000078c:	0124a423          	sw	s2,8(s1)
    80000790:	fc070ae3          	beqz	a4,80000764 <__call_exitprocs+0xa0>
    80000794:	0084ac03          	lw	s8,8(s1)
    80000798:	00098c63          	beqz	s3,800007b0 <__call_exitprocs+0xec>
    8000079c:	2009a783          	lw	a5,512(s3)
    800007a0:	012b96bb          	sllw	a3,s7,s2
    800007a4:	00d7f7b3          	and	a5,a5,a3
    800007a8:	0007879b          	sext.w	a5,a5
    800007ac:	02079263          	bnez	a5,800007d0 <__call_exitprocs+0x10c>
    800007b0:	000700e7          	jalr	a4
    800007b4:	0084a703          	lw	a4,8(s1)
    800007b8:	000b3783          	ld	a5,0(s6)
    800007bc:	f58714e3          	bne	a4,s8,80000704 <__call_exitprocs+0x40>
    800007c0:	faf482e3          	beq	s1,a5,80000764 <__call_exitprocs+0xa0>
    800007c4:	f41ff06f          	j	80000704 <__call_exitprocs+0x40>
    800007c8:	00043423          	sd	zero,8(s0)
    800007cc:	fc5ff06f          	j	80000790 <__call_exitprocs+0xcc>
    800007d0:	2049a783          	lw	a5,516(s3)
    800007d4:	ff8cb583          	ld	a1,-8(s9)
    800007d8:	00d7f7b3          	and	a5,a5,a3
    800007dc:	0007879b          	sext.w	a5,a5
    800007e0:	00079863          	bnez	a5,800007f0 <__call_exitprocs+0x12c>
    800007e4:	000a8513          	mv	a0,s5
    800007e8:	000700e7          	jalr	a4
    800007ec:	fc9ff06f          	j	800007b4 <__call_exitprocs+0xf0>
    800007f0:	00058513          	mv	a0,a1
    800007f4:	000700e7          	jalr	a4
    800007f8:	fbdff06f          	j	800007b4 <__call_exitprocs+0xf0>

Disassembly of section .htif:

0000000080000880 <tohost>:
	...

0000000080000888 <fromhost>:
	...
